(dp0
F0.125
I00
sF0.011
I00
sF0.028
I00
sF0.139
I00
sF0.19
I00
sF0.06
I00
sF0.136
I00
sF0.186
I00
sF0.016
I00
sF0.051
I00
sF0.167
I00
sF0.132
I00
sF0.13
I00
sF0.023
I00
sF0.109
I00
sF0.181
I00
sF0.072
I00
sF0.116
I00
sF0.11
I00
sF0.079
I00
sF0.166
I00
sF0.156
I00
sF0.001
I00
sF0.086
I00
sF0.135
I00
sF0.047
I00
sF0.078
I00
sF0.093
I00
sF0.062
I00
sF0.149
I00
sF0.013
I00
sF0.025
I00
sF0.163
I00
sF0.063
I00
sF0.061
I00
sF0.107
I00
sF0.177
I00
sF0.021
I00
sF0.095
I00
sF0.14
I00
sF0.006
I00
sF0.057
I00
sF0.038
I00
sF0.034
I00
sF0.077
I00
sF0.09
I00
sF0.042
I00
sF0.126
I00
sF0.131
I00
sF0.014
I00
sF0.164
I00
sF0.017
I00
sF0.091
I00
sF0.145
I00
sF0.049
I00
sF0.159
I00
sF0.08
I00
sF0.105
I00
sF0.173
I00
sF0.068
I00
sF0.112
I00
sF0.075
I00
sF0.15
I00
sF0.031
I00
sF0.119
I00
sF0.097
I00
sF0.082
I00
sF0.098
I00
sF0.089
I00
sF0.092
I00
sF0.196
I00
sF0.162
I00
sF0.048
I00
sF0.114
I00
sF0.096
I00
sF0.103
I00
sF0.169
I00
sF0.174
I00
sF0.066
I00
sF0.055
I00
sF0.183
I00
sF0.019
I00
sF0.073
I00
sF0.041
I00
sF0.192
I00
sF0.197
I00
sF0.16
I00
sF0.124
I00
sF0.104
I00
sF0.087
I00
sF0.137
I00
sF0.094
I00
sF0.151
I00
sF0.036
I00
sF0.027
I00
sF0.101
I00
sF0.165
I00
sF0.128
I00
sF0.108
I00
sF0.029
I00
sF0.071
I00
sF0.178
I00
sF0.193
I00
sF0.188
I00
sF0.02
I00
sF0.039
I00
sF0.122
I00
sF0.168
I00
sF0.133
I00
sF0.184
I00
sF0.053
I00
sF0.033
I00
sF0.099
I00
sF0.161
I00
sF0.056
I00
sF0.106
I00
sF0.176
I00
sF0.175
I00
sF0.148
I00
sF0.069
I00
sF0.123
I00
sF0.113
I00
sF0.189
I00
sF0.024
I00
sF0.152
I00
sF0.12
I00
sF0.118
I00
sF0.084
I00
sF0.083
I00
sF0.129
I00
sF0.182
I00
sF0.155
I00
sF0.18
I00
sF0.064
I00
sF0.046
I00
sF0.194
I00
sF0.157
I00
sF0.065
I00
sF0.052
I00
sF0.004
I00
sF0.171
I00
sF0.134
I00
sF0.111
I00
sF0.185
I00
sF0.074
I00
sF0.059
I00
sF0.088
I00
sF0.199
I00
sF0.081
I00
sF0.008
I00
s.