(dp0
S'30_True_True_399_103_frequent_False_5_relu_0.497_False_512_relu_0.2_adagrad_0.075_128_40'
p1
I00
sS'7_True_True_262_30_frequent_False_12_relu_0.347_False_512_relu_0.2_adagrad_0.031_128_40'
p2
I00
sS'6_True_False_331_38_compact_False_9_relu_0.242_False_512_relu_0.2_adagrad_0.022_128_40'
p3
I00
sS'28_True_True_292_143_compact_True_18_relu_0.427_False_512_relu_0.2_adagrad_0.06_128_40'
p4
I00
sS'6_True_True_258_112_compact_False_7_relu_0.213_False_512_relu_0.2_adagrad_0.016_128_40'
p5
I00
sS'30_True_True_263_105_frequent_False_13_relu_0.214_False_512_relu_0.2_adagrad_0.02_128_40'
p6
I00
sS'28_True_False_383_39_frequent_True_19_relu_0.271_False_512_relu_0.2_adagrad_0.022_128_40'
p7
I00
sS'23_False_True_265_38_frequent_False_44_relu_0.533_False_512_relu_0.2_adagrad_0.047_128_40'
p8
I00
sS'27_False_True_204_49_compact_False_32_relu_0.29_False_512_relu_0.2_adagrad_0.015_128_40'
p9
I00
sS'31_False_True_265_40_compact_True_40_relu_0.241_False_512_relu_0.2_adagrad_0.017_128_40'
p10
I00
sS'27_False_True_446_92_compact_True_8_relu_0.397_False_512_relu_0.2_adagrad_0.054_128_40'
p11
I00
sS'21_True_True_250_36_frequent_True_10_relu_0.424_False_512_relu_0.2_adagrad_0.074_128_40'
p12
I00
sS'34_False_False_247_31_compact_True_9_relu_0.313_False_512_relu_0.2_adagrad_0.018_128_40'
p13
I00
sS'15_False_False_218_70_frequent_True_5_relu_0.324_False_512_relu_0.2_adagrad_0.037_128_40'
p14
I00
sS'13_False_False_473_92_compact_False_5_relu_0.288_False_512_relu_0.2_adagrad_0.079_128_40'
p15
I00
sS'25_True_False_292_73_compact_True_5_relu_0.351_False_512_relu_0.2_adagrad_0.068_128_40'
p16
I00
sS'7_False_False_291_80_compact_False_6_relu_0.327_False_512_relu_0.2_adagrad_0.021_128_40'
p17
I00
sS'7_False_False_284_146_frequent_True_6_relu_0.478_False_512_relu_0.2_adagrad_0.077_128_40'
p18
I00
sS'19_False_False_386_56_compact_False_16_relu_0.33_False_512_relu_0.2_adagrad_0.016_128_40'
p19
I00
sS'29_True_True_264_108_compact_False_13_relu_0.526_False_512_relu_0.2_adagrad_0.031_128_40'
p20
I00
sS'8_True_False_207_30_frequent_False_12_relu_0.236_False_512_relu_0.2_adagrad_0.039_128_40'
p21
I00
sS'11_True_False_262_47_frequent_False_59_relu_0.28_False_512_relu_0.2_adagrad_0.028_128_40'
p22
I00
sS'15_True_False_319_98_frequent_True_14_relu_0.25_False_512_relu_0.2_adagrad_0.073_128_40'
p23
I00
sS'11_False_True_326_61_compact_True_55_relu_0.374_False_512_relu_0.2_adagrad_0.086_128_40'
p24
I00
sS'22_False_False_236_73_compact_True_26_relu_0.585_False_512_relu_0.2_adagrad_0.019_128_40'
p25
I00
sS'5_True_False_226_94_compact_False_48_relu_0.464_False_512_relu_0.2_adagrad_0.056_128_40'
p26
I00
sS'6_False_False_283_61_compact_True_8_relu_0.467_False_512_relu_0.2_adagrad_0.061_128_40'
p27
I00
sS'9_True_True_222_32_compact_True_11_relu_0.415_False_512_relu_0.2_adagrad_0.011_128_40'
p28
S'-'
p29
sS'7_False_False_314_49_compact_True_33_relu_0.431_False_512_relu_0.2_adagrad_0.018_128_40'
p30
I00
sS'6_True_True_454_81_compact_False_8_relu_0.302_False_512_relu_0.2_adagrad_0.018_128_40'
p31
I00
sS'25_True_True_222_114_compact_True_27_relu_0.284_False_512_relu_0.2_adagrad_0.022_128_40'
p32
I00
sS'28_False_True_240_30_frequent_True_41_relu_0.26_False_512_relu_0.2_adagrad_0.012_128_40'
p33
I00
sS'31_True_False_361_40_compact_True_12_relu_0.228_False_512_relu_0.2_adagrad_0.021_128_40'
p34
I00
sS'6_True_False_491_89_frequent_False_12_relu_0.499_False_512_relu_0.2_adagrad_0.022_128_40'
p35
I00
sS'27_True_True_209_90_compact_False_16_relu_0.233_False_512_relu_0.2_adagrad_0.066_128_40'
p36
I00
sS'5_True_False_261_49_compact_True_55_relu_0.534_False_512_relu_0.2_adagrad_0.021_128_40'
p37
I00
sS'5_False_True_260_59_compact_True_42_relu_0.399_False_512_relu_0.2_adagrad_0.019_128_40'
p38
I00
sS'15_True_False_494_75_compact_False_10_relu_0.273_False_512_relu_0.2_adagrad_0.028_128_40'
p39
I00
sS'22_False_True_250_102_frequent_False_43_relu_0.258_False_512_relu_0.2_adagrad_0.012_128_40'
p40
I00
sS'12_False_False_327_67_frequent_True_10_relu_0.425_False_512_relu_0.2_adagrad_0.076_128_40'
p41
I00
sS'15_True_False_359_87_frequent_True_19_relu_0.299_False_512_relu_0.2_adagrad_0.012_128_40'
p42
I00
sS'31_False_False_204_41_frequent_False_39_relu_0.294_False_512_relu_0.2_adagrad_0.048_128_40'
p43
I00
sS'25_False_True_435_32_frequent_True_5_relu_0.407_False_512_relu_0.2_adagrad_0.04_128_40'
p44
I00
sS'17_False_True_389_63_compact_True_14_relu_0.2_False_512_relu_0.2_adagrad_0.022_128_40'
p45
I00
sS'7_False_True_261_101_compact_False_5_relu_0.452_False_512_relu_0.2_adagrad_0.057_128_40'
p46
I00
sS'18_True_True_272_48_compact_False_5_relu_0.417_False_512_relu_0.2_adagrad_0.033_128_40'
p47
I00
sS'12_False_True_359_33_compact_True_15_relu_0.563_False_512_relu_0.2_adagrad_0.021_128_40'
p48
I00
sS'14_False_False_328_55_frequent_True_8_relu_0.593_False_512_relu_0.2_adagrad_0.067_128_40'
p49
I00
sS'12_True_True_328_28_compact_False_6_relu_0.322_False_512_relu_0.2_adagrad_0.063_128_40'
p50
I00
sS'20_False_False_467_115_frequent_True_31_relu_0.55_False_512_relu_0.2_adagrad_0.011_128_40'
p51
I00
sS'7_False_False_211_36_compact_True_42_relu_0.31_False_512_relu_0.2_adagrad_0.04_128_40'
p52
I00
sS'5_False_False_325_58_frequent_True_8_relu_0.544_False_512_relu_0.2_adagrad_0.015_128_40'
p53
I00
sS'5_False_True_249_127_compact_True_31_relu_0.518_False_512_relu_0.2_adagrad_0.043_128_40'
p54
I00
sS'6_False_False_303_68_compact_True_22_relu_0.369_False_512_relu_0.2_adagrad_0.014_128_40'
p55
I00
sS'11_True_False_398_26_compact_True_6_relu_0.334_False_512_relu_0.2_adagrad_0.028_128_40'
p56
I00
sS'15_False_False_208_97_frequent_False_25_relu_0.443_False_512_relu_0.2_adagrad_0.088_128_40'
p57
I00
sS'7_True_False_314_105_compact_True_12_relu_0.294_False_512_relu_0.2_adagrad_0.058_128_40'
p58
g29
sS'22_True_False_289_69_compact_False_8_relu_0.397_False_512_relu_0.2_adagrad_0.081_128_40'
p59
I00
sS'33_False_False_203_127_frequent_False_30_relu_0.411_False_512_relu_0.2_adagrad_0.015_128_40'
p60
I00
sS'21_False_False_315_30_frequent_True_14_relu_0.22_False_512_relu_0.2_adagrad_0.011_128_40'
p61
I00
sS'6_True_False_211_50_compact_True_14_relu_0.271_False_512_relu_0.2_adagrad_0.035_128_40'
p62
I00
sS'7_False_False_254_55_frequent_False_24_relu_0.452_False_512_relu_0.2_adagrad_0.03_128_40'
p63
I00
sS'28_True_False_304_147_frequent_True_10_relu_0.371_False_512_relu_0.2_adagrad_0.011_128_40'
p64
I00
sS'22_False_True_207_71_compact_False_47_relu_0.469_False_512_relu_0.2_adagrad_0.046_128_40'
p65
I00
sS'6_True_False_276_33_frequent_False_9_relu_0.26_False_512_relu_0.2_adagrad_0.022_128_40'
p66
I00
sS'30_True_True_482_41_compact_False_59_relu_0.257_False_512_relu_0.2_adagrad_0.03_128_40'
p67
I00
sS'14_True_True_358_67_compact_True_10_relu_0.212_False_512_relu_0.2_adagrad_0.021_128_40'
p68
I00
sS'29_False_True_499_124_frequent_False_24_relu_0.283_False_512_relu_0.2_adagrad_0.038_128_40'
p69
I00
sS'7_False_False_313_112_compact_False_7_relu_0.218_False_512_relu_0.2_adagrad_0.041_128_40'
p70
I00
sS'11_False_False_350_97_compact_False_7_relu_0.24_False_512_relu_0.2_adagrad_0.056_128_40'
p71
I00
sS'13_True_False_281_39_frequent_False_11_relu_0.297_False_512_relu_0.2_adagrad_0.084_128_40'
p72
I00
sS'7_False_True_234_36_frequent_True_23_relu_0.452_False_512_relu_0.2_adagrad_0.02_128_40'
p73
I00
sS'7_True_True_252_118_frequent_True_20_relu_0.241_False_512_relu_0.2_adagrad_0.015_128_40'
p74
I00
sS'5_False_False_244_28_compact_True_23_relu_0.225_False_512_relu_0.2_adagrad_0.015_128_40'
p75
I00
sS'9_False_True_428_132_frequent_False_24_relu_0.542_False_512_relu_0.2_adagrad_0.069_128_40'
p76
I00
sS'5_False_True_229_71_frequent_False_47_relu_0.465_False_512_relu_0.2_adagrad_0.089_128_40'
p77
I00
sS'18_False_False_285_75_compact_True_36_relu_0.239_False_512_relu_0.2_adagrad_0.019_128_40'
p78
I00
sS'26_False_True_240_29_compact_True_9_relu_0.559_False_512_relu_0.2_adagrad_0.026_128_40'
p79
I00
sS'12_True_False_366_110_frequent_False_23_relu_0.316_False_512_relu_0.2_adagrad_0.019_128_40'
p80
I00
sS'12_False_False_448_68_compact_True_14_relu_0.205_False_512_relu_0.2_adagrad_0.031_128_40'
p81
I00
sS'27_True_False_200_52_frequent_True_7_relu_0.262_False_512_relu_0.2_adagrad_0.036_128_40'
p82
I00
sS'20_True_False_451_88_frequent_False_38_relu_0.293_False_512_relu_0.2_adagrad_0.04_128_40'
p83
g29
sS'12_False_False_264_122_compact_True_34_relu_0.205_False_512_relu_0.2_adagrad_0.08_128_40'
p84
I00
sS'15_True_False_355_42_frequent_False_8_relu_0.228_False_512_relu_0.2_adagrad_0.035_128_40'
p85
I00
sS'16_False_True_208_26_compact_False_25_relu_0.585_False_512_relu_0.2_adagrad_0.021_128_40'
p86
I00
sS'10_True_False_431_118_compact_True_22_relu_0.519_False_512_relu_0.2_adagrad_0.032_128_40'
p87
I00
sS'23_False_False_303_30_compact_True_34_relu_0.433_False_512_relu_0.2_adagrad_0.027_128_40'
p88
I00
sS'21_False_False_242_53_frequent_True_6_relu_0.251_False_512_relu_0.2_adagrad_0.036_128_40'
p89
g29
sS'5_True_False_363_28_compact_True_7_relu_0.23_False_512_relu_0.2_adagrad_0.022_128_40'
p90
I00
sS'14_True_True_202_72_frequent_False_6_relu_0.482_False_512_relu_0.2_adagrad_0.031_128_40'
p91
I00
sS'6_False_True_494_28_compact_False_9_relu_0.252_False_512_relu_0.2_adagrad_0.074_128_40'
p92
I00
sS'20_False_False_444_53_frequent_False_15_relu_0.308_False_512_relu_0.2_adagrad_0.026_128_40'
p93
I00
sS'5_True_True_474_32_frequent_False_21_relu_0.412_False_512_relu_0.2_adagrad_0.011_128_40'
p94
I00
sS'9_False_False_331_41_frequent_False_23_relu_0.345_False_512_relu_0.2_adagrad_0.022_128_40'
p95
I00
sS'32_False_False_379_99_frequent_False_13_relu_0.331_False_512_relu_0.2_adagrad_0.063_128_40'
p96
I00
sS'34_True_False_292_36_frequent_True_23_relu_0.273_False_512_relu_0.2_adagrad_0.067_128_40'
p97
I00
sS'8_False_False_241_106_compact_False_40_relu_0.304_False_512_relu_0.2_adagrad_0.047_128_40'
p98
I00
sS'11_True_False_474_51_frequent_False_18_relu_0.402_False_512_relu_0.2_adagrad_0.014_128_40'
p99
I00
sS'13_False_False_250_31_frequent_True_5_relu_0.388_False_512_relu_0.2_adagrad_0.069_128_40'
p100
I00
sS'15_True_True_377_33_frequent_True_7_relu_0.279_False_512_relu_0.2_adagrad_0.036_128_40'
p101
I00
sS'31_True_True_253_121_compact_False_17_relu_0.229_False_512_relu_0.2_adagrad_0.083_128_40'
p102
I00
sS'21_False_False_423_27_compact_True_32_relu_0.292_False_512_relu_0.2_adagrad_0.016_128_40'
p103
I00
sS'6_False_False_285_74_frequent_True_15_relu_0.298_False_512_relu_0.2_adagrad_0.046_128_40'
p104
g29
sS'31_True_False_297_88_compact_True_7_relu_0.33_False_512_relu_0.2_adagrad_0.032_128_40'
p105
I00
sS'24_False_True_343_147_compact_False_21_relu_0.304_False_512_relu_0.2_adagrad_0.014_128_40'
p106
I00
sS'28_False_True_411_81_compact_True_10_relu_0.267_False_512_relu_0.2_adagrad_0.011_128_40'
p107
g29
sS'9_True_False_282_109_compact_True_7_relu_0.557_False_512_relu_0.2_adagrad_0.011_128_40'
p108
I00
sS'30_False_False_488_34_frequent_True_34_relu_0.33_False_512_relu_0.2_adagrad_0.089_128_40'
p109
I00
sS'6_False_True_320_72_frequent_False_8_relu_0.386_False_512_relu_0.2_adagrad_0.033_128_40'
p110
I00
sS'21_False_False_431_98_compact_False_11_relu_0.405_False_512_relu_0.2_adagrad_0.028_128_40'
p111
I00
sS'9_False_True_410_87_frequent_False_58_relu_0.248_False_512_relu_0.2_adagrad_0.047_128_40'
p112
I00
sS'12_True_False_258_113_frequent_False_54_relu_0.262_False_512_relu_0.2_adagrad_0.023_128_40'
p113
I00
sS'13_False_True_224_27_frequent_True_41_relu_0.325_False_512_relu_0.2_adagrad_0.076_128_40'
p114
I00
sS'23_True_True_273_82_frequent_False_14_relu_0.441_False_512_relu_0.2_adagrad_0.088_128_40'
p115
I00
sS'17_False_True_345_130_frequent_True_32_relu_0.241_False_512_relu_0.2_adagrad_0.024_128_40'
p116
I00
sS'5_True_False_391_32_frequent_True_62_relu_0.243_False_512_relu_0.2_adagrad_0.07_128_40'
p117
I00
sS'8_True_True_468_38_frequent_True_13_relu_0.549_False_512_relu_0.2_adagrad_0.034_128_40'
p118
I00
sS'6_True_False_254_44_frequent_True_57_relu_0.239_False_512_relu_0.2_adagrad_0.019_128_40'
p119
I00
sS'10_True_True_485_101_frequent_False_43_relu_0.4_False_512_relu_0.2_adagrad_0.032_128_40'
p120
I00
sS'6_True_True_437_48_compact_True_19_relu_0.388_False_512_relu_0.2_adagrad_0.015_128_40'
p121
I00
sS'31_True_True_248_121_frequent_False_44_relu_0.424_False_512_relu_0.2_adagrad_0.03_128_40'
p122
I00
sS'21_True_True_316_46_compact_False_43_relu_0.442_False_512_relu_0.2_adagrad_0.074_128_40'
p123
I00
sS'15_True_False_223_28_frequent_False_18_relu_0.45_False_512_relu_0.2_adagrad_0.067_128_40'
p124
g29
sS'18_True_True_466_62_compact_True_19_relu_0.238_False_512_relu_0.2_adagrad_0.035_128_40'
p125
I00
sS'27_True_False_335_52_frequent_False_5_relu_0.381_False_512_relu_0.2_adagrad_0.014_128_40'
p126
I00
sS'17_False_False_256_117_frequent_True_10_relu_0.369_False_512_relu_0.2_adagrad_0.035_128_40'
p127
I00
sS'18_False_True_364_89_frequent_True_7_relu_0.479_False_512_relu_0.2_adagrad_0.028_128_40'
p128
I00
sS'15_True_True_375_121_frequent_False_29_relu_0.202_False_512_relu_0.2_adagrad_0.053_128_40'
p129
I00
sS'30_False_True_227_118_compact_True_12_relu_0.588_False_512_relu_0.2_adagrad_0.032_128_40'
p130
I00
sS'18_False_True_332_78_compact_False_27_relu_0.505_False_512_relu_0.2_adagrad_0.072_128_40'
p131
I00
sS'16_False_False_254_54_compact_False_54_relu_0.492_False_512_relu_0.2_adagrad_0.015_128_40'
p132
I00
sS'17_True_False_240_147_frequent_False_47_relu_0.394_False_512_relu_0.2_adagrad_0.018_128_40'
p133
I00
sS'11_True_False_458_47_frequent_False_10_relu_0.332_False_512_relu_0.2_adagrad_0.085_128_40'
p134
I00
sS'5_True_False_494_87_compact_True_36_relu_0.576_False_512_relu_0.2_adagrad_0.053_128_40'
p135
I00
sS'23_False_True_362_55_frequent_False_17_relu_0.282_False_512_relu_0.2_adagrad_0.019_128_40'
p136
g29
sS'22_True_True_264_62_frequent_True_10_relu_0.268_False_512_relu_0.2_adagrad_0.07_128_40'
p137
I00
sS'17_True_True_396_59_frequent_True_5_relu_0.246_False_512_relu_0.2_adagrad_0.033_128_40'
p138
I00
sS'5_False_False_252_39_compact_True_21_relu_0.456_False_512_relu_0.2_adagrad_0.014_128_40'
p139
I00
sS'6_True_False_380_128_compact_True_26_relu_0.305_False_512_relu_0.2_adagrad_0.014_128_40'
p140
I00
sS'8_False_False_270_34_compact_True_45_relu_0.21_False_512_relu_0.2_adagrad_0.071_128_40'
p141
I00
sS'12_False_False_432_135_compact_True_7_relu_0.265_False_512_relu_0.2_adagrad_0.011_128_40'
p142
I00
sS'32_False_False_208_99_compact_True_23_relu_0.329_False_512_relu_0.2_adagrad_0.069_128_40'
p143
I00
sS'11_True_True_366_31_frequent_True_5_relu_0.491_False_512_relu_0.2_adagrad_0.041_128_40'
p144
I00
sS'16_False_True_320_44_frequent_False_5_relu_0.253_False_512_relu_0.2_adagrad_0.036_128_40'
p145
I00
sS'12_False_False_384_88_frequent_True_22_relu_0.579_False_512_relu_0.2_adagrad_0.067_128_40'
p146
I00
sS'10_True_False_472_83_frequent_False_8_relu_0.334_False_512_relu_0.2_adagrad_0.035_128_40'
p147
I00
sS'27_True_False_355_125_frequent_True_7_relu_0.38_False_512_relu_0.2_adagrad_0.019_128_40'
p148
I00
sS'12_True_True_390_56_frequent_True_10_relu_0.425_False_512_relu_0.2_adagrad_0.01_128_40'
p149
I00
sS'12_False_False_208_92_frequent_True_23_relu_0.29_False_512_relu_0.2_adagrad_0.036_128_40'
p150
I00
sS'10_False_False_334_66_compact_False_52_relu_0.503_False_512_relu_0.2_adagrad_0.015_128_40'
p151
I00
sS'26_False_False_306_40_frequent_True_5_relu_0.331_False_512_relu_0.2_adagrad_0.077_128_40'
p152
I00
sS'15_True_False_402_32_frequent_True_38_relu_0.396_False_512_relu_0.2_adagrad_0.037_128_40'
p153
I00
sS'5_False_True_437_51_compact_True_27_relu_0.574_False_512_relu_0.2_adagrad_0.02_128_40'
p154
I00
sS'5_False_False_209_95_compact_False_8_relu_0.244_False_512_relu_0.2_adagrad_0.072_128_40'
p155
I00
sS'11_True_False_370_51_frequent_True_20_relu_0.297_False_512_relu_0.2_adagrad_0.062_128_40'
p156
I00
sS'21_False_False_243_127_compact_True_26_relu_0.459_False_512_relu_0.2_adagrad_0.063_128_40'
p157
I00
sS'18_False_True_309_48_frequent_True_17_relu_0.266_False_512_relu_0.2_adagrad_0.035_128_40'
p158
I00
sS'17_True_True_394_124_compact_True_6_relu_0.482_False_512_relu_0.2_adagrad_0.023_128_40'
p159
I00
sS'18_True_False_272_126_compact_True_6_relu_0.367_False_512_relu_0.2_adagrad_0.01_128_40'
p160
I00
sS'14_False_True_261_111_compact_False_13_relu_0.232_False_512_relu_0.2_adagrad_0.023_128_40'
p161
I00
sS'6_False_True_245_32_compact_True_20_relu_0.386_False_512_relu_0.2_adagrad_0.02_128_40'
p162
I00
sS'12_True_True_311_99_frequent_True_31_relu_0.275_False_512_relu_0.2_adagrad_0.085_128_40'
p163
I00
sS'21_False_True_498_53_compact_True_9_relu_0.264_False_512_relu_0.2_adagrad_0.018_128_40'
p164
I00
sS'6_True_False_211_92_compact_True_5_relu_0.296_False_512_relu_0.2_adagrad_0.028_128_40'
p165
I00
sS'18_False_True_327_63_compact_True_13_relu_0.55_False_512_relu_0.2_adagrad_0.04_128_40'
p166
I00
sS'30_False_True_278_97_compact_True_31_relu_0.499_False_512_relu_0.2_adagrad_0.025_128_40'
p167
I00
sS'25_True_False_372_58_compact_True_29_relu_0.371_False_512_relu_0.2_adagrad_0.016_128_40'
p168
I00
sS'6_True_True_484_28_compact_False_9_relu_0.467_False_512_relu_0.2_adagrad_0.02_128_40'
p169
I00
sS'6_True_True_261_140_compact_False_58_relu_0.422_False_512_relu_0.2_adagrad_0.047_128_40'
p170
g29
sS'21_False_False_256_67_frequent_False_48_relu_0.576_False_512_relu_0.2_adagrad_0.047_128_40'
p171
I00
sS'22_True_True_337_118_compact_False_5_relu_0.369_False_512_relu_0.2_adagrad_0.016_128_40'
p172
I00
sS'33_False_True_227_84_frequent_True_35_relu_0.501_False_512_relu_0.2_adagrad_0.058_128_40'
p173
I00
sS'15_True_False_395_134_compact_True_5_relu_0.36_False_512_relu_0.2_adagrad_0.079_128_40'
p174
I00
sS'17_True_False_240_32_frequent_False_53_relu_0.292_False_512_relu_0.2_adagrad_0.012_128_40'
p175
I00
sS'13_True_True_307_89_compact_True_12_relu_0.296_False_512_relu_0.2_adagrad_0.014_128_40'
p176
I00
sS'7_True_False_225_45_frequent_True_17_relu_0.415_False_512_relu_0.2_adagrad_0.02_128_40'
p177
I00
sS'30_False_True_225_70_frequent_False_7_relu_0.502_False_512_relu_0.2_adagrad_0.032_128_40'
p178
g29
sS'21_True_True_250_47_compact_True_14_relu_0.432_False_512_relu_0.2_adagrad_0.057_128_40'
p179
I00
sS'31_True_True_427_72_frequent_True_35_relu_0.594_False_512_relu_0.2_adagrad_0.076_128_40'
p180
I00
sS'20_True_False_472_52_compact_True_16_relu_0.419_False_512_relu_0.2_adagrad_0.024_128_40'
p181
I00
sS'7_True_True_370_40_frequent_False_51_relu_0.434_False_512_relu_0.2_adagrad_0.044_128_40'
p182
I00
sS'26_True_True_280_25_frequent_True_16_relu_0.208_False_512_relu_0.2_adagrad_0.03_128_40'
p183
I00
sS'34_False_False_479_64_compact_False_28_relu_0.599_False_512_relu_0.2_adagrad_0.067_128_40'
p184
I00
sS'19_True_True_381_35_compact_True_22_relu_0.548_False_512_relu_0.2_adagrad_0.026_128_40'
p185
I00
sS'28_True_True_319_56_frequent_True_42_relu_0.511_False_512_relu_0.2_adagrad_0.012_128_40'
p186
I00
sS'25_False_False_372_63_frequent_True_11_relu_0.291_False_512_relu_0.2_adagrad_0.025_128_40'
p187
I00
sS'18_False_False_359_37_frequent_True_35_relu_0.348_False_512_relu_0.2_adagrad_0.032_128_40'
p188
I00
sS'11_False_True_202_78_frequent_True_5_relu_0.416_False_512_relu_0.2_adagrad_0.063_128_40'
p189
I00
sS'10_True_True_253_30_frequent_True_13_relu_0.473_False_512_relu_0.2_adagrad_0.048_128_40'
p190
I00
sS'10_False_True_487_48_frequent_False_33_relu_0.462_False_512_relu_0.2_adagrad_0.012_128_40'
p191
I00
sS'17_False_False_444_30_frequent_False_61_relu_0.213_False_512_relu_0.2_adagrad_0.011_128_40'
p192
I00
sS'28_True_True_332_76_compact_True_7_relu_0.208_False_512_relu_0.2_adagrad_0.02_128_40'
p193
I00
sS'16_True_False_215_27_compact_False_16_relu_0.236_False_512_relu_0.2_adagrad_0.039_128_40'
p194
I00
sS'16_False_True_267_72_frequent_True_58_relu_0.279_False_512_relu_0.2_adagrad_0.019_128_40'
p195
I00
sS'5_True_True_464_30_compact_True_44_relu_0.509_False_512_relu_0.2_adagrad_0.028_128_40'
p196
I00
sS'7_True_True_356_53_compact_True_8_relu_0.382_False_512_relu_0.2_adagrad_0.042_128_40'
p197
I00
sS'7_False_False_317_66_frequent_True_5_relu_0.476_False_512_relu_0.2_adagrad_0.063_128_40'
p198
I00
sS'21_False_False_340_90_frequent_True_15_relu_0.465_False_512_relu_0.2_adagrad_0.01_128_40'
p199
I00
sS'14_False_True_331_97_frequent_False_29_relu_0.229_False_512_relu_0.2_adagrad_0.015_128_40'
p200
I00
sS'32_True_True_291_47_frequent_True_63_relu_0.267_False_512_relu_0.2_adagrad_0.062_128_40'
p201
I00
sS'7_False_True_430_96_compact_True_7_relu_0.241_False_512_relu_0.2_adagrad_0.054_128_40'
p202
I00
sS'6_True_False_250_26_frequent_False_8_relu_0.403_False_512_relu_0.2_adagrad_0.078_128_40'
p203
I00
sS'26_False_False_451_32_frequent_False_8_relu_0.207_False_512_relu_0.2_adagrad_0.011_128_40'
p204
I00
sS'5_True_False_350_69_compact_True_7_relu_0.321_False_512_relu_0.2_adagrad_0.081_128_40'
p205
I00
sS'8_False_True_299_27_compact_True_10_relu_0.57_False_512_relu_0.2_adagrad_0.031_128_40'
p206
I00
sS'10_False_False_354_70_frequent_False_45_relu_0.587_False_512_relu_0.2_adagrad_0.014_128_40'
p207
I00
sS'5_True_False_209_73_frequent_True_20_relu_0.503_False_512_relu_0.2_adagrad_0.079_128_40'
p208
I00
sS'10_True_True_226_34_frequent_True_20_relu_0.226_False_512_relu_0.2_adagrad_0.014_128_40'
p209
I00
sS'10_True_False_246_97_frequent_True_9_relu_0.223_False_512_relu_0.2_adagrad_0.024_128_40'
p210
I00
sS'29_True_False_483_64_frequent_True_29_relu_0.456_False_512_relu_0.2_adagrad_0.033_128_40'
p211
I00
sS'18_True_True_325_33_compact_True_14_relu_0.409_False_512_relu_0.2_adagrad_0.033_128_40'
p212
I00
sS'7_False_True_438_38_compact_True_36_relu_0.206_False_512_relu_0.2_adagrad_0.027_128_40'
p213
I00
sS'22_False_False_213_116_frequent_False_48_relu_0.263_False_512_relu_0.2_adagrad_0.088_128_40'
p214
I00
sS'6_False_True_441_59_compact_True_29_relu_0.222_False_512_relu_0.2_adagrad_0.073_128_40'
p215
I00
sS'26_True_False_305_85_frequent_True_6_relu_0.27_False_512_relu_0.2_adagrad_0.017_128_40'
p216
g29
sS'18_False_True_266_127_compact_True_5_relu_0.493_False_512_relu_0.2_adagrad_0.035_128_40'
p217
I00
sS'31_False_False_205_95_frequent_False_10_relu_0.262_False_512_relu_0.2_adagrad_0.018_128_40'
p218
I00
sS'5_True_True_214_72_compact_False_10_relu_0.252_False_512_relu_0.2_adagrad_0.021_128_40'
p219
I00
sS'31_True_False_312_93_frequent_False_11_relu_0.479_False_512_relu_0.2_adagrad_0.019_128_40'
p220
I00
sS'24_False_True_392_30_compact_True_25_relu_0.275_False_512_relu_0.2_adagrad_0.015_128_40'
p221
I00
sS'8_True_True_326_30_frequent_True_33_relu_0.26_False_512_relu_0.2_adagrad_0.016_128_40'
p222
I00
sS'25_False_True_433_41_frequent_False_40_relu_0.287_False_512_relu_0.2_adagrad_0.02_128_40'
p223
I00
sS'14_True_True_397_49_frequent_True_25_relu_0.236_False_512_relu_0.2_adagrad_0.019_128_40'
p224
I00
sS'9_False_False_222_76_frequent_False_48_relu_0.206_False_512_relu_0.2_adagrad_0.071_128_40'
p225
I00
sS'33_False_True_390_69_frequent_False_5_relu_0.22_False_512_relu_0.2_adagrad_0.01_128_40'
p226
I00
sS'12_True_True_272_140_frequent_False_16_relu_0.25_False_512_relu_0.2_adagrad_0.048_128_40'
p227
I00
sS'29_False_True_402_55_compact_False_10_relu_0.311_False_512_relu_0.2_adagrad_0.055_128_40'
p228
I00
sS'20_True_True_344_40_compact_True_32_relu_0.213_False_512_relu_0.2_adagrad_0.062_128_40'
p229
I00
sS'14_False_False_238_50_compact_False_29_relu_0.492_False_512_relu_0.2_adagrad_0.029_128_40'
p230
I00
sS'16_False_True_357_119_compact_False_60_relu_0.212_False_512_relu_0.2_adagrad_0.016_128_40'
p231
I00
sS'6_False_False_205_25_compact_False_5_relu_0.237_False_512_relu_0.2_adagrad_0.034_128_40'
p232
g29
sS'18_True_False_333_41_frequent_True_11_relu_0.217_False_512_relu_0.2_adagrad_0.024_128_40'
p233
I00
sS'5_True_True_348_34_compact_False_22_relu_0.241_False_512_relu_0.2_adagrad_0.041_128_40'
p234
I00
sS'6_True_True_287_34_frequent_False_11_relu_0.303_False_512_relu_0.2_adagrad_0.036_128_40'
p235
I00
sS'27_True_True_322_47_compact_False_37_relu_0.339_False_512_relu_0.2_adagrad_0.013_128_40'
p236
I00
sS'12_True_True_201_82_frequent_True_7_relu_0.404_False_512_relu_0.2_adagrad_0.089_128_40'
p237
I00
sS'7_True_True_252_96_frequent_False_33_relu_0.347_False_512_relu_0.2_adagrad_0.064_128_40'
p238
I00
sS'5_True_False_442_77_frequent_False_6_relu_0.552_False_512_relu_0.2_adagrad_0.072_128_40'
p239
I00
sS'23_False_False_427_31_compact_True_6_relu_0.523_False_512_relu_0.2_adagrad_0.022_128_40'
p240
I00
sS'7_False_True_256_27_frequent_False_24_relu_0.29_False_512_relu_0.2_adagrad_0.019_128_40'
p241
I00
sS'27_True_True_355_62_compact_False_24_relu_0.29_False_512_relu_0.2_adagrad_0.038_128_40'
p242
I00
sS'26_False_False_233_64_compact_True_38_relu_0.268_False_512_relu_0.2_adagrad_0.053_128_40'
p243
I00
sS'18_False_False_228_81_compact_False_9_relu_0.456_False_512_relu_0.2_adagrad_0.018_128_40'
p244
I00
sS'9_False_False_377_50_compact_False_5_relu_0.207_False_512_relu_0.2_adagrad_0.037_128_40'
p245
I00
sS'19_True_True_330_42_frequent_True_24_relu_0.326_False_512_relu_0.2_adagrad_0.038_128_40'
p246
I00
sS'16_False_False_208_36_compact_False_37_relu_0.256_False_512_relu_0.2_adagrad_0.021_128_40'
p247
I00
sS'28_True_False_257_67_compact_False_9_relu_0.494_False_512_relu_0.2_adagrad_0.03_128_40'
p248
I00
sS'24_True_False_445_29_frequent_True_10_relu_0.471_False_512_relu_0.2_adagrad_0.01_128_40'
p249
I00
sS'5_False_False_292_76_frequent_False_5_relu_0.284_False_512_relu_0.2_adagrad_0.033_128_40'
p250
I00
sS'12_True_True_387_40_frequent_True_10_relu_0.501_False_512_relu_0.2_adagrad_0.038_128_40'
p251
I00
sS'8_False_True_346_27_frequent_True_63_relu_0.25_False_512_relu_0.2_adagrad_0.06_128_40'
p252
I00
sS'19_False_False_205_139_frequent_False_9_relu_0.464_False_512_relu_0.2_adagrad_0.015_128_40'
p253
I00
sS'14_False_True_208_38_compact_False_6_relu_0.221_False_512_relu_0.2_adagrad_0.02_128_40'
p254
I00
sS'27_True_True_377_119_frequent_False_60_relu_0.551_False_512_relu_0.2_adagrad_0.032_128_40'
p255
I00
sS'6_True_False_369_31_compact_True_6_relu_0.297_False_512_relu_0.2_adagrad_0.077_128_40'
p256
I00
sS'9_True_True_443_43_compact_False_12_relu_0.353_False_512_relu_0.2_adagrad_0.053_128_40'
p257
I00
sS'21_True_False_473_32_compact_False_63_relu_0.289_False_512_relu_0.2_adagrad_0.017_128_40'
p258
I00
sS'24_True_False_378_39_compact_True_62_relu_0.494_False_512_relu_0.2_adagrad_0.042_128_40'
p259
I00
sS'12_True_False_450_33_frequent_True_17_relu_0.498_False_512_relu_0.2_adagrad_0.018_128_40'
p260
I00
sS'6_True_False_373_60_frequent_False_47_relu_0.428_False_512_relu_0.2_adagrad_0.012_128_40'
p261
g29
sS'6_False_True_275_85_frequent_True_62_relu_0.236_False_512_relu_0.2_adagrad_0.048_128_40'
p262
I00
sS'6_True_True_415_79_compact_True_17_relu_0.371_False_512_relu_0.2_adagrad_0.057_128_40'
p263
I00
sS'15_False_True_209_32_frequent_True_37_relu_0.524_False_512_relu_0.2_adagrad_0.069_128_40'
p264
g29
sS'9_False_True_238_92_frequent_False_9_relu_0.281_False_512_relu_0.2_adagrad_0.019_128_40'
p265
I00
sS'10_True_True_292_125_compact_False_47_relu_0.389_False_512_relu_0.2_adagrad_0.05_128_40'
p266
I00
sS'5_True_False_323_144_frequent_False_8_relu_0.532_False_512_relu_0.2_adagrad_0.03_128_40'
p267
g29
sS'24_False_True_299_56_frequent_False_25_relu_0.403_False_512_relu_0.2_adagrad_0.061_128_40'
p268
I00
sS'27_True_True_464_53_frequent_True_5_relu_0.227_False_512_relu_0.2_adagrad_0.074_128_40'
p269
I00
sS'7_False_True_475_51_frequent_True_49_relu_0.328_False_512_relu_0.2_adagrad_0.053_128_40'
p270
I00
sS'6_False_True_272_59_compact_True_11_relu_0.554_False_512_relu_0.2_adagrad_0.042_128_40'
p271
I00
sS'8_False_False_325_33_compact_False_45_relu_0.388_False_512_relu_0.2_adagrad_0.042_128_40'
p272
I00
sS'14_False_False_260_37_frequent_False_38_relu_0.328_False_512_relu_0.2_adagrad_0.029_128_40'
p273
I00
sS'26_False_True_422_47_compact_False_11_relu_0.348_False_512_relu_0.2_adagrad_0.015_128_40'
p274
I00
sS'15_False_False_475_84_compact_True_38_relu_0.325_False_512_relu_0.2_adagrad_0.089_128_40'
p275
I00
sS'22_False_True_491_33_compact_True_7_relu_0.598_False_512_relu_0.2_adagrad_0.037_128_40'
p276
I00
sS'24_False_True_252_48_frequent_False_6_relu_0.21_False_512_relu_0.2_adagrad_0.01_128_40'
p277
I00
sS'20_False_True_470_38_compact_False_43_relu_0.294_False_512_relu_0.2_adagrad_0.012_128_40'
p278
I00
sS'17_False_False_249_34_frequent_True_22_relu_0.404_False_512_relu_0.2_adagrad_0.019_128_40'
p279
I00
sS'33_False_True_300_113_frequent_True_7_relu_0.347_False_512_relu_0.2_adagrad_0.022_128_40'
p280
I00
sS'5_False_True_218_25_compact_False_25_relu_0.229_False_512_relu_0.2_adagrad_0.039_128_40'
p281
I00
sS'26_False_False_300_68_frequent_False_12_relu_0.413_False_512_relu_0.2_adagrad_0.014_128_40'
p282
I00
sS'11_False_False_202_58_compact_False_10_relu_0.407_False_512_relu_0.2_adagrad_0.073_128_40'
p283
I00
sS'17_False_True_340_142_frequent_False_21_relu_0.366_False_512_relu_0.2_adagrad_0.015_128_40'
p284
I00
sS'7_False_False_489_132_compact_True_18_relu_0.251_False_512_relu_0.2_adagrad_0.015_128_40'
p285
I00
sS'9_False_False_247_72_frequent_False_29_relu_0.242_False_512_relu_0.2_adagrad_0.017_128_40'
p286
I00
sS'8_True_False_351_110_compact_True_25_relu_0.438_False_512_relu_0.2_adagrad_0.069_128_40'
p287
I00
sS'6_False_True_215_141_compact_False_32_relu_0.254_False_512_relu_0.2_adagrad_0.016_128_40'
p288
I00
sS'16_False_False_217_72_compact_False_47_relu_0.27_False_512_relu_0.2_adagrad_0.012_128_40'
p289
I00
sS'13_True_False_410_54_frequent_True_9_relu_0.55_False_512_relu_0.2_adagrad_0.022_128_40'
p290
I00
sS'21_False_False_267_37_compact_True_19_relu_0.269_False_512_relu_0.2_adagrad_0.021_128_40'
p291
I00
sS'5_True_True_243_35_compact_True_7_relu_0.265_False_512_relu_0.2_adagrad_0.014_128_40'
p292
I00
sS'34_True_False_321_117_compact_True_7_relu_0.456_False_512_relu_0.2_adagrad_0.01_128_40'
p293
I00
sS'5_False_False_287_77_compact_True_54_relu_0.579_False_512_relu_0.2_adagrad_0.072_128_40'
p294
I00
sS'6_False_True_292_37_compact_True_8_relu_0.514_False_512_relu_0.2_adagrad_0.019_128_40'
p295
I00
sS'6_True_True_419_33_compact_False_11_relu_0.427_False_512_relu_0.2_adagrad_0.058_128_40'
p296
I00
sS'11_True_False_277_47_compact_True_15_relu_0.531_False_512_relu_0.2_adagrad_0.03_128_40'
p297
I00
sS'23_False_False_458_40_frequent_True_12_relu_0.423_False_512_relu_0.2_adagrad_0.029_128_40'
p298
I00
sS'34_True_False_428_53_compact_True_6_relu_0.22_False_512_relu_0.2_adagrad_0.052_128_40'
p299
I00
sS'10_False_False_394_67_frequent_False_15_relu_0.26_False_512_relu_0.2_adagrad_0.017_128_40'
p300
I00
sS'15_True_True_204_109_compact_True_59_relu_0.29_False_512_relu_0.2_adagrad_0.043_128_40'
p301
I00
sS'9_False_True_266_110_frequent_True_29_relu_0.36_False_512_relu_0.2_adagrad_0.076_128_40'
p302
I00
sS'8_True_False_303_62_compact_True_35_relu_0.315_False_512_relu_0.2_adagrad_0.01_128_40'
p303
I00
sS'6_True_False_283_69_compact_True_61_relu_0.519_False_512_relu_0.2_adagrad_0.033_128_40'
p304
I00
sS'30_True_False_282_94_compact_False_7_relu_0.571_False_512_relu_0.2_adagrad_0.073_128_40'
p305
I00
sS'23_True_False_369_47_frequent_True_7_relu_0.202_False_512_relu_0.2_adagrad_0.086_128_40'
p306
I00
sS'12_False_True_317_86_compact_False_37_relu_0.373_False_512_relu_0.2_adagrad_0.013_128_40'
p307
I00
sS'6_True_False_359_123_frequent_False_42_relu_0.281_False_512_relu_0.2_adagrad_0.07_128_40'
p308
I00
sS'9_False_False_324_41_compact_True_8_relu_0.517_False_512_relu_0.2_adagrad_0.066_128_40'
p309
I00
sS'6_True_True_270_37_frequent_False_16_relu_0.309_False_512_relu_0.2_adagrad_0.014_128_40'
p310
I00
sS'18_False_False_332_55_compact_False_12_relu_0.222_False_512_relu_0.2_adagrad_0.045_128_40'
p311
I00
sS'5_False_True_436_63_frequent_False_24_relu_0.495_False_512_relu_0.2_adagrad_0.014_128_40'
p312
I00
sS'10_False_True_383_28_compact_True_11_relu_0.529_False_512_relu_0.2_adagrad_0.038_128_40'
p313
I00
sS'27_True_True_318_61_frequent_False_11_relu_0.483_False_512_relu_0.2_adagrad_0.013_128_40'
p314
I00
sS'25_False_True_272_97_frequent_True_43_relu_0.346_False_512_relu_0.2_adagrad_0.014_128_40'
p315
I00
sS'18_False_True_421_29_frequent_False_31_relu_0.249_False_512_relu_0.2_adagrad_0.057_128_40'
p316
I00
sS'24_False_False_362_55_frequent_False_6_relu_0.275_False_512_relu_0.2_adagrad_0.053_128_40'
p317
g29
sS'8_False_False_314_74_frequent_False_20_relu_0.244_False_512_relu_0.2_adagrad_0.042_128_40'
p318
I00
sS'8_True_True_221_99_compact_False_28_relu_0.446_False_512_relu_0.2_adagrad_0.048_128_40'
p319
I00
sS'5_False_False_313_83_frequent_True_21_relu_0.531_False_512_relu_0.2_adagrad_0.012_128_40'
p320
I00
sS'13_True_True_316_44_compact_False_48_relu_0.442_False_512_relu_0.2_adagrad_0.011_128_40'
p321
I00
sS'5_False_False_474_25_compact_False_10_relu_0.212_False_512_relu_0.2_adagrad_0.017_128_40'
p322
I00
sS'21_True_True_289_48_frequent_True_55_relu_0.247_False_512_relu_0.2_adagrad_0.044_128_40'
p323
I00
sS'27_True_True_482_34_frequent_False_17_relu_0.314_False_512_relu_0.2_adagrad_0.084_128_40'
p324
I00
sS'25_False_False_404_81_compact_False_5_relu_0.266_False_512_relu_0.2_adagrad_0.016_128_40'
p325
I00
sS'8_True_False_263_122_frequent_True_30_relu_0.202_False_512_relu_0.2_adagrad_0.04_128_40'
p326
g29
sS'17_True_False_262_113_compact_False_59_relu_0.524_False_512_relu_0.2_adagrad_0.011_128_40'
p327
I00
sS'15_False_False_235_42_frequent_False_39_relu_0.426_False_512_relu_0.2_adagrad_0.059_128_40'
p328
I00
sS'28_False_False_276_49_frequent_True_19_relu_0.386_False_512_relu_0.2_adagrad_0.011_128_40'
p329
I00
sS'33_True_False_406_52_frequent_True_9_relu_0.213_False_512_relu_0.2_adagrad_0.023_128_40'
p330
I00
sS'8_True_True_455_25_compact_False_5_relu_0.597_False_512_relu_0.2_adagrad_0.023_128_40'
p331
g29
sS'8_True_True_447_89_frequent_True_15_relu_0.448_False_512_relu_0.2_adagrad_0.037_128_40'
p332
I00
sS'11_False_False_424_124_compact_False_11_relu_0.569_False_512_relu_0.2_adagrad_0.078_128_40'
p333
I00
sS'8_False_False_292_134_compact_True_61_relu_0.38_False_512_relu_0.2_adagrad_0.045_128_40'
p334
I00
sS'23_True_True_406_106_frequent_True_37_relu_0.237_False_512_relu_0.2_adagrad_0.039_128_40'
p335
I00
sS'19_False_True_290_48_compact_True_63_relu_0.228_False_512_relu_0.2_adagrad_0.086_128_40'
p336
I00
sS'16_False_False_395_66_frequent_True_23_relu_0.221_False_512_relu_0.2_adagrad_0.014_128_40'
p337
I00
sS'31_False_False_212_117_frequent_True_35_relu_0.447_False_512_relu_0.2_adagrad_0.058_128_40'
p338
I00
sS'8_False_False_287_47_frequent_False_55_relu_0.356_False_512_relu_0.2_adagrad_0.019_128_40'
p339
I00
sS'14_True_True_302_37_compact_False_18_relu_0.243_False_512_relu_0.2_adagrad_0.015_128_40'
p340
I00
sS'8_True_False_220_48_frequent_True_7_relu_0.464_False_512_relu_0.2_adagrad_0.03_128_40'
p341
I00
sS'7_True_True_227_100_compact_False_5_relu_0.432_False_512_relu_0.2_adagrad_0.024_128_40'
p342
I00
sS'9_True_True_299_53_frequent_True_12_relu_0.314_False_512_relu_0.2_adagrad_0.038_128_40'
p343
I00
sS'15_True_True_495_66_compact_False_5_relu_0.301_False_512_relu_0.2_adagrad_0.036_128_40'
p344
I00
sS'27_True_False_347_98_compact_False_8_relu_0.246_False_512_relu_0.2_adagrad_0.076_128_40'
p345
I00
sS'10_True_True_378_125_compact_True_25_relu_0.334_False_512_relu_0.2_adagrad_0.014_128_40'
p346
I00
sS'17_False_True_295_32_frequent_True_32_relu_0.51_False_512_relu_0.2_adagrad_0.015_128_40'
p347
I00
sS'5_True_False_466_54_frequent_False_49_relu_0.549_False_512_relu_0.2_adagrad_0.015_128_40'
p348
I00
sS'32_True_False_329_33_compact_False_8_relu_0.442_False_512_relu_0.2_adagrad_0.021_128_40'
p349
I00
sS'16_False_True_402_38_frequent_False_24_relu_0.27_False_512_relu_0.2_adagrad_0.041_128_40'
p350
I00
sS'5_False_False_449_52_compact_False_9_relu_0.31_False_512_relu_0.2_adagrad_0.018_128_40'
p351
I00
sS'5_True_True_350_43_frequent_True_21_relu_0.329_False_512_relu_0.2_adagrad_0.015_128_40'
p352
I00
sS'7_True_True_234_128_frequent_False_13_relu_0.229_False_512_relu_0.2_adagrad_0.043_128_40'
p353
I00
sS'16_False_True_276_147_compact_False_8_relu_0.449_False_512_relu_0.2_adagrad_0.022_128_40'
p354
I00
sS'27_True_True_281_84_compact_True_6_relu_0.522_False_512_relu_0.2_adagrad_0.017_128_40'
p355
I00
sS'6_True_False_213_41_compact_False_5_relu_0.588_False_512_relu_0.2_adagrad_0.014_128_40'
p356
I00
sS'5_True_False_373_91_frequent_False_42_relu_0.291_False_512_relu_0.2_adagrad_0.044_128_40'
p357
I00
sS'13_False_False_335_107_compact_True_36_relu_0.501_False_512_relu_0.2_adagrad_0.045_128_40'
p358
I00
sS'19_True_True_275_57_compact_False_22_relu_0.426_False_512_relu_0.2_adagrad_0.011_128_40'
p359
g29
sS'29_False_True_261_98_compact_False_16_relu_0.489_False_512_relu_0.2_adagrad_0.016_128_40'
p360
I00
sS'30_False_False_385_64_compact_True_18_relu_0.491_False_512_relu_0.2_adagrad_0.052_128_40'
p361
I00
sS'19_True_True_389_71_frequent_True_21_relu_0.488_False_512_relu_0.2_adagrad_0.056_128_40'
p362
I00
sS'5_False_False_413_78_frequent_True_22_relu_0.277_False_512_relu_0.2_adagrad_0.038_128_40'
p363
I00
sS'25_False_True_331_59_compact_False_50_relu_0.372_False_512_relu_0.2_adagrad_0.084_128_40'
p364
I00
sS'8_False_True_350_49_frequent_True_38_relu_0.366_False_512_relu_0.2_adagrad_0.036_128_40'
p365
I00
sS'5_True_True_343_51_frequent_False_61_relu_0.493_False_512_relu_0.2_adagrad_0.08_128_40'
p366
I00
sS'12_True_False_349_38_compact_False_23_relu_0.532_False_512_relu_0.2_adagrad_0.02_128_40'
p367
I00
sS'9_True_False_238_115_frequent_False_16_relu_0.221_False_512_relu_0.2_adagrad_0.057_128_40'
p368
I00
sS'6_True_False_375_37_compact_True_44_relu_0.599_False_512_relu_0.2_adagrad_0.025_128_40'
p369
I00
sS'7_True_True_201_73_frequent_False_38_relu_0.332_False_512_relu_0.2_adagrad_0.02_128_40'
p370
I00
sS'30_True_True_285_75_frequent_True_9_relu_0.245_False_512_relu_0.2_adagrad_0.014_128_40'
p371
I00
sS'22_False_True_353_30_frequent_False_38_relu_0.202_False_512_relu_0.2_adagrad_0.03_128_40'
p372
I00
sS'6_False_False_370_26_frequent_False_12_relu_0.219_False_512_relu_0.2_adagrad_0.056_128_40'
p373
I00
sS'31_False_True_453_130_compact_True_43_relu_0.438_False_512_relu_0.2_adagrad_0.012_128_40'
p374
I00
sS'11_False_True_287_139_compact_True_60_relu_0.238_False_512_relu_0.2_adagrad_0.043_128_40'
p375
I00
sS'11_False_False_334_149_frequent_False_16_relu_0.581_False_512_relu_0.2_adagrad_0.032_128_40'
p376
I00
sS'24_True_False_454_105_frequent_True_31_relu_0.568_False_512_relu_0.2_adagrad_0.034_128_40'
p377
I00
sS'26_True_True_474_77_frequent_False_45_relu_0.43_False_512_relu_0.2_adagrad_0.041_128_40'
p378
I00
sS'8_False_True_290_85_compact_False_51_relu_0.519_False_512_relu_0.2_adagrad_0.053_128_40'
p379
I00
sS'27_False_True_404_116_compact_True_17_relu_0.499_False_512_relu_0.2_adagrad_0.058_128_40'
p380
I00
sS'8_False_False_262_124_compact_True_25_relu_0.443_False_512_relu_0.2_adagrad_0.021_128_40'
p381
I00
sS'10_True_True_216_78_compact_False_42_relu_0.213_False_512_relu_0.2_adagrad_0.063_128_40'
p382
I00
sS'5_True_True_455_112_frequent_False_6_relu_0.221_False_512_relu_0.2_adagrad_0.041_128_40'
p383
I00
sS'7_True_True_228_131_compact_False_53_relu_0.575_False_512_relu_0.2_adagrad_0.012_128_40'
p384
I00
sS'7_True_False_424_32_compact_True_55_relu_0.484_False_512_relu_0.2_adagrad_0.016_128_40'
p385
I00
sS'11_False_False_219_83_compact_False_6_relu_0.335_False_512_relu_0.2_adagrad_0.014_128_40'
p386
I00
sS'7_False_False_306_38_frequent_False_5_relu_0.465_False_512_relu_0.2_adagrad_0.052_128_40'
p387
I00
sS'21_True_True_217_52_frequent_True_34_relu_0.44_False_512_relu_0.2_adagrad_0.012_128_40'
p388
I00
sS'12_False_True_204_29_compact_False_5_relu_0.346_False_512_relu_0.2_adagrad_0.012_128_40'
p389
I00
sS'14_True_True_289_82_frequent_True_7_relu_0.475_False_512_relu_0.2_adagrad_0.018_128_40'
p390
I00
sS'33_True_False_290_121_frequent_False_8_relu_0.288_False_512_relu_0.2_adagrad_0.034_128_40'
p391
I00
sS'7_True_True_206_27_compact_True_11_relu_0.518_False_512_relu_0.2_adagrad_0.01_128_40'
p392
I00
sS'9_False_True_497_59_frequent_False_8_relu_0.557_False_512_relu_0.2_adagrad_0.042_128_40'
p393
I00
sS'17_True_True_492_65_compact_False_45_relu_0.595_False_512_relu_0.2_adagrad_0.051_128_40'
p394
g29
sS'11_False_True_291_53_frequent_True_39_relu_0.556_False_512_relu_0.2_adagrad_0.054_128_40'
p395
I00
sS'12_False_True_419_65_compact_True_5_relu_0.33_False_512_relu_0.2_adagrad_0.029_128_40'
p396
I00
sS'24_False_True_260_50_frequent_False_6_relu_0.375_False_512_relu_0.2_adagrad_0.019_128_40'
p397
I00
sS'6_False_False_430_94_frequent_False_50_relu_0.245_False_512_relu_0.2_adagrad_0.01_128_40'
p398
I00
sS'6_True_True_409_39_frequent_True_8_relu_0.261_False_512_relu_0.2_adagrad_0.026_128_40'
p399
I00
sS'25_False_False_315_106_frequent_True_12_relu_0.48_False_512_relu_0.2_adagrad_0.017_128_40'
p400
I00
sS'31_True_True_349_45_frequent_True_24_relu_0.561_False_512_relu_0.2_adagrad_0.061_128_40'
p401
I00
sS'5_True_True_493_94_frequent_False_25_relu_0.214_False_512_relu_0.2_adagrad_0.075_128_40'
p402
I00
sS'11_True_False_286_111_compact_False_39_relu_0.297_False_512_relu_0.2_adagrad_0.03_128_40'
p403
I00
sS'15_True_True_451_31_compact_False_35_relu_0.252_False_512_relu_0.2_adagrad_0.019_128_40'
p404
g29
sS'20_False_True_234_42_compact_True_52_relu_0.338_False_512_relu_0.2_adagrad_0.011_128_40'
p405
I00
sS'13_False_True_459_43_compact_True_37_relu_0.223_False_512_relu_0.2_adagrad_0.084_128_40'
p406
g29
sS'13_True_True_293_123_frequent_False_8_relu_0.396_False_512_relu_0.2_adagrad_0.016_128_40'
p407
I00
sS'16_False_False_218_26_compact_True_6_relu_0.28_False_512_relu_0.2_adagrad_0.011_128_40'
p408
I00
sS'6_True_False_239_106_frequent_False_23_relu_0.369_False_512_relu_0.2_adagrad_0.052_128_40'
p409
I00
sS'9_False_True_296_58_frequent_False_31_relu_0.571_False_512_relu_0.2_adagrad_0.05_128_40'
p410
I00
sS'28_True_False_480_37_frequent_True_13_relu_0.275_False_512_relu_0.2_adagrad_0.024_128_40'
p411
I00
sS'9_True_False_447_142_frequent_False_11_relu_0.269_False_512_relu_0.2_adagrad_0.018_128_40'
p412
I00
sS'5_False_False_409_137_compact_True_7_relu_0.222_False_512_relu_0.2_adagrad_0.08_128_40'
p413
I00
sS'6_True_False_462_48_frequent_True_39_relu_0.289_False_512_relu_0.2_adagrad_0.081_128_40'
p414
I00
sS'14_False_True_336_48_compact_True_40_relu_0.322_False_512_relu_0.2_adagrad_0.036_128_40'
p415
I00
sS'8_False_True_206_28_frequent_False_62_relu_0.233_False_512_relu_0.2_adagrad_0.04_128_40'
p416
I00
sS'26_False_True_397_88_compact_True_11_relu_0.246_False_512_relu_0.2_adagrad_0.024_128_40'
p417
I00
sS'8_False_False_471_71_compact_False_25_relu_0.21_False_512_relu_0.2_adagrad_0.065_128_40'
p418
I00
sS'27_True_False_215_80_compact_True_17_relu_0.221_False_512_relu_0.2_adagrad_0.015_128_40'
p419
I00
sS'13_False_True_346_46_compact_False_17_relu_0.361_False_512_relu_0.2_adagrad_0.084_128_40'
p420
I00
sS'27_False_False_337_129_compact_True_21_relu_0.431_False_512_relu_0.2_adagrad_0.056_128_40'
p421
I00
sS'9_True_False_215_93_frequent_True_7_relu_0.228_False_512_relu_0.2_adagrad_0.011_128_40'
p422
I00
sS'11_False_True_334_141_compact_True_5_relu_0.467_False_512_relu_0.2_adagrad_0.029_128_40'
p423
I00
sS'15_False_False_476_69_compact_False_5_relu_0.591_False_512_relu_0.2_adagrad_0.025_128_40'
p424
I00
sS'16_True_False_414_38_compact_True_44_relu_0.21_False_512_relu_0.2_adagrad_0.053_128_40'
p425
I00
sS'33_True_False_448_124_compact_True_34_relu_0.539_False_512_relu_0.2_adagrad_0.042_128_40'
p426
I00
sS'22_True_False_249_33_compact_True_42_relu_0.414_False_512_relu_0.2_adagrad_0.016_128_40'
p427
I00
sS'20_True_True_285_62_frequent_True_9_relu_0.226_False_512_relu_0.2_adagrad_0.023_128_40'
p428
I00
sS'18_False_True_398_92_frequent_True_12_relu_0.324_False_512_relu_0.2_adagrad_0.036_128_40'
p429
I00
sS'11_False_False_358_65_frequent_True_11_relu_0.472_False_512_relu_0.2_adagrad_0.022_128_40'
p430
I00
sS'5_True_False_388_120_compact_False_53_relu_0.232_False_512_relu_0.2_adagrad_0.02_128_40'
p431
I01
sS'8_False_True_211_99_frequent_False_23_relu_0.268_False_512_relu_0.2_adagrad_0.011_128_40'
p432
I00
sS'6_False_True_266_27_frequent_True_12_relu_0.415_False_512_relu_0.2_adagrad_0.03_128_40'
p433
I00
sS'17_True_False_271_41_compact_True_13_relu_0.32_False_512_relu_0.2_adagrad_0.025_128_40'
p434
I00
sS'12_False_False_204_34_frequent_False_11_relu_0.496_False_512_relu_0.2_adagrad_0.028_128_40'
p435
g29
sS'5_True_True_356_67_frequent_False_7_relu_0.272_False_512_relu_0.2_adagrad_0.026_128_40'
p436
g29
sS'6_False_False_287_94_frequent_False_12_relu_0.341_False_512_relu_0.2_adagrad_0.059_128_40'
p437
I00
sS'5_False_True_486_34_compact_True_8_relu_0.429_False_512_relu_0.2_adagrad_0.051_128_40'
p438
I00
sS'27_False_False_256_70_frequent_True_17_relu_0.403_False_512_relu_0.2_adagrad_0.018_128_40'
p439
I00
sS'33_True_False_231_83_frequent_True_7_relu_0.229_False_512_relu_0.2_adagrad_0.055_128_40'
p440
g29
sS'12_False_True_286_48_compact_True_43_relu_0.498_False_512_relu_0.2_adagrad_0.033_128_40'
p441
I00
sS'5_False_True_390_58_frequent_False_27_relu_0.21_False_512_relu_0.2_adagrad_0.051_128_40'
p442
I00
sS'10_True_True_438_45_compact_False_8_relu_0.202_False_512_relu_0.2_adagrad_0.069_128_40'
p443
I00
sS'8_False_False_302_33_frequent_False_21_relu_0.258_False_512_relu_0.2_adagrad_0.013_128_40'
p444
I00
sS'6_True_True_431_50_frequent_False_6_relu_0.576_False_512_relu_0.2_adagrad_0.051_128_40'
p445
I00
sS'22_False_True_491_86_compact_False_19_relu_0.253_False_512_relu_0.2_adagrad_0.023_128_40'
p446
I00
sS'15_True_True_497_63_frequent_True_7_relu_0.359_False_512_relu_0.2_adagrad_0.021_128_40'
p447
I00
sS'9_True_False_401_44_frequent_True_59_relu_0.428_False_512_relu_0.2_adagrad_0.061_128_40'
p448
I00
sS'11_False_False_452_74_frequent_True_11_relu_0.221_False_512_relu_0.2_adagrad_0.015_128_40'
p449
I00
sS'15_True_False_223_45_frequent_False_49_relu_0.289_False_512_relu_0.2_adagrad_0.019_128_40'
p450
I00
sS'21_True_True_254_102_compact_True_31_relu_0.412_False_512_relu_0.2_adagrad_0.012_128_40'
p451
I00
sS'9_False_False_213_88_frequent_False_6_relu_0.519_False_512_relu_0.2_adagrad_0.027_128_40'
p452
I00
sS'8_False_True_358_81_compact_False_8_relu_0.44_False_512_relu_0.2_adagrad_0.071_128_40'
p453
I00
sS'14_False_False_219_64_frequent_False_59_relu_0.378_False_512_relu_0.2_adagrad_0.01_128_40'
p454
I00
sS'12_False_True_269_61_frequent_False_59_relu_0.37_False_512_relu_0.2_adagrad_0.028_128_40'
p455
I00
sS'7_True_False_440_34_frequent_True_7_relu_0.265_False_512_relu_0.2_adagrad_0.015_128_40'
p456
I00
sS'27_True_False_220_71_frequent_False_32_relu_0.333_False_512_relu_0.2_adagrad_0.062_128_40'
p457
I00
sS'10_True_False_277_27_compact_True_10_relu_0.447_False_512_relu_0.2_adagrad_0.058_128_40'
p458
I00
sS'31_False_False_342_116_frequent_False_6_relu_0.452_False_512_relu_0.2_adagrad_0.028_128_40'
p459
I00
sS'20_False_False_298_69_compact_True_14_relu_0.514_False_512_relu_0.2_adagrad_0.077_128_40'
p460
I00
sS'6_True_True_243_30_frequent_False_5_relu_0.244_False_512_relu_0.2_adagrad_0.022_128_40'
p461
I00
sS'6_False_False_402_66_compact_False_12_relu_0.225_False_512_relu_0.2_adagrad_0.089_128_40'
p462
I00
sS'25_False_False_207_50_frequent_False_5_relu_0.207_False_512_relu_0.2_adagrad_0.018_128_40'
p463
I00
sS'10_True_False_437_28_frequent_False_10_relu_0.407_False_512_relu_0.2_adagrad_0.037_128_40'
p464
I00
sS'9_False_False_241_118_compact_False_9_relu_0.554_False_512_relu_0.2_adagrad_0.089_128_40'
p465
I00
sS'15_False_False_209_144_compact_True_15_relu_0.386_False_512_relu_0.2_adagrad_0.031_128_40'
p466
I00
sS'6_False_True_267_59_compact_False_39_relu_0.365_False_512_relu_0.2_adagrad_0.016_128_40'
p467
I00
sS'7_True_False_450_44_frequent_False_23_relu_0.281_False_512_relu_0.2_adagrad_0.057_128_40'
p468
I00
sS'8_False_False_234_133_compact_True_7_relu_0.557_False_512_relu_0.2_adagrad_0.059_128_40'
p469
I00
sS'19_False_True_278_27_compact_False_9_relu_0.524_False_512_relu_0.2_adagrad_0.025_128_40'
p470
g29
sS'7_False_True_205_41_frequent_False_51_relu_0.366_False_512_relu_0.2_adagrad_0.031_128_40'
p471
I00
sS'5_False_False_383_29_frequent_True_47_relu_0.305_False_512_relu_0.2_adagrad_0.083_128_40'
p472
I00
sS'8_True_True_438_132_compact_False_6_relu_0.58_False_512_relu_0.2_adagrad_0.058_128_40'
p473
I00
sS'11_True_True_423_135_frequent_True_7_relu_0.537_False_512_relu_0.2_adagrad_0.01_128_40'
p474
I00
sS'6_False_False_262_101_frequent_True_6_relu_0.326_False_512_relu_0.2_adagrad_0.016_128_40'
p475
I00
sS'9_True_False_321_79_compact_False_32_relu_0.278_False_512_relu_0.2_adagrad_0.02_128_40'
p476
g29
sS'9_False_False_316_92_compact_True_30_relu_0.495_False_512_relu_0.2_adagrad_0.055_128_40'
p477
I00
sS'23_True_False_459_31_compact_False_12_relu_0.585_False_512_relu_0.2_adagrad_0.022_128_40'
p478
I00
sS'20_True_True_372_127_compact_True_42_relu_0.274_False_512_relu_0.2_adagrad_0.017_128_40'
p479
I00
sS'28_False_True_393_29_frequent_True_26_relu_0.448_False_512_relu_0.2_adagrad_0.057_128_40'
p480
I00
sS'27_False_False_468_28_compact_True_5_relu_0.381_False_512_relu_0.2_adagrad_0.023_128_40'
p481
I00
sS'16_True_False_465_33_frequent_False_45_relu_0.487_False_512_relu_0.2_adagrad_0.049_128_40'
p482
I00
sS'15_True_False_309_129_frequent_True_6_relu_0.539_False_512_relu_0.2_adagrad_0.014_128_40'
p483
I00
sS'19_True_False_241_85_compact_False_25_relu_0.332_False_512_relu_0.2_adagrad_0.01_128_40'
p484
I00
sS'18_True_True_278_46_compact_True_5_relu_0.555_False_512_relu_0.2_adagrad_0.018_128_40'
p485
I00
sS'7_True_False_218_29_frequent_False_46_relu_0.288_False_512_relu_0.2_adagrad_0.048_128_40'
p486
I00
sS'5_False_True_234_47_frequent_False_16_relu_0.258_False_512_relu_0.2_adagrad_0.052_128_40'
p487
I00
sS'19_True_True_407_37_frequent_True_48_relu_0.202_False_512_relu_0.2_adagrad_0.014_128_40'
p488
I00
sS'6_False_False_261_35_frequent_False_17_relu_0.319_False_512_relu_0.2_adagrad_0.037_128_40'
p489
g29
sS'10_False_True_463_111_frequent_True_5_relu_0.336_False_512_relu_0.2_adagrad_0.037_128_40'
p490
I00
sS'10_False_True_305_89_compact_False_19_relu_0.303_False_512_relu_0.2_adagrad_0.031_128_40'
p491
I00
sS'29_True_False_223_33_frequent_False_25_relu_0.527_False_512_relu_0.2_adagrad_0.038_128_40'
p492
I00
sS'13_False_False_210_137_frequent_True_14_relu_0.28_False_512_relu_0.2_adagrad_0.037_128_40'
p493
I00
sS'10_True_True_217_70_frequent_True_53_relu_0.307_False_512_relu_0.2_adagrad_0.025_128_40'
p494
I00
sS'31_True_False_466_92_frequent_False_11_relu_0.553_False_512_relu_0.2_adagrad_0.024_128_40'
p495
I00
sS'10_True_False_377_104_frequent_False_10_relu_0.512_False_512_relu_0.2_adagrad_0.044_128_40'
p496
I00
sS'31_False_True_236_126_compact_False_7_relu_0.223_False_512_relu_0.2_adagrad_0.013_128_40'
p497
I00
sS'5_False_False_490_78_compact_False_6_relu_0.449_False_512_relu_0.2_adagrad_0.011_128_40'
p498
I00
sS'17_False_False_237_53_compact_True_7_relu_0.387_False_512_relu_0.2_adagrad_0.014_128_40'
p499
I00
sS'24_False_True_381_81_frequent_True_22_relu_0.263_False_512_relu_0.2_adagrad_0.019_128_40'
p500
g29
sS'12_False_False_244_35_frequent_False_11_relu_0.483_False_512_relu_0.2_adagrad_0.036_128_40'
p501
I00
sS'5_True_True_410_74_compact_False_10_relu_0.257_False_512_relu_0.2_adagrad_0.016_128_40'
p502
I00
sS'7_True_False_320_36_frequent_False_12_relu_0.55_False_512_relu_0.2_adagrad_0.076_128_40'
p503
I00
sS'5_False_True_257_136_compact_True_28_relu_0.537_False_512_relu_0.2_adagrad_0.086_128_40'
p504
I00
sS'14_False_True_381_25_compact_True_36_relu_0.487_False_512_relu_0.2_adagrad_0.068_128_40'
p505
I00
sS'8_True_False_365_39_frequent_True_53_relu_0.423_False_512_relu_0.2_adagrad_0.057_128_40'
p506
I00
sS'30_True_True_252_118_frequent_False_6_relu_0.323_False_512_relu_0.2_adagrad_0.011_128_40'
p507
g29
sS'7_True_False_248_45_frequent_True_23_relu_0.554_False_512_relu_0.2_adagrad_0.039_128_40'
p508
I00
sS'14_False_True_397_65_compact_True_51_relu_0.315_False_512_relu_0.2_adagrad_0.012_128_40'
p509
I00
sS'6_False_True_204_41_compact_False_21_relu_0.456_False_512_relu_0.2_adagrad_0.066_128_40'
p510
I00
sS'19_False_False_306_44_frequent_False_5_relu_0.256_False_512_relu_0.2_adagrad_0.025_128_40'
p511
I00
sS'17_True_False_442_62_compact_True_33_relu_0.368_False_512_relu_0.2_adagrad_0.019_128_40'
p512
I00
sS'6_False_False_229_43_compact_False_11_relu_0.202_False_512_relu_0.2_adagrad_0.081_128_40'
p513
I00
sS'15_False_False_486_88_frequent_True_13_relu_0.351_False_512_relu_0.2_adagrad_0.053_128_40'
p514
I00
sS'7_True_False_228_84_frequent_True_6_relu_0.24_False_512_relu_0.2_adagrad_0.032_128_40'
p515
g29
sS'12_True_True_273_50_compact_True_31_relu_0.232_False_512_relu_0.2_adagrad_0.015_128_40'
p516
I00
sS'8_True_True_206_31_frequent_True_7_relu_0.241_False_512_relu_0.2_adagrad_0.023_128_40'
p517
I00
sS'5_True_False_206_133_frequent_True_45_relu_0.376_False_512_relu_0.2_adagrad_0.027_128_40'
p518
I00
sS'22_True_False_200_46_compact_False_12_relu_0.23_False_512_relu_0.2_adagrad_0.028_128_40'
p519
I00
sS'20_False_True_301_69_frequent_False_12_relu_0.312_False_512_relu_0.2_adagrad_0.077_128_40'
p520
I00
sS'8_False_False_489_38_frequent_False_9_relu_0.405_False_512_relu_0.2_adagrad_0.039_128_40'
p521
I00
sS'23_False_True_344_147_compact_False_14_relu_0.482_False_512_relu_0.2_adagrad_0.021_128_40'
p522
I00
sS'5_True_True_290_113_compact_False_10_relu_0.261_False_512_relu_0.2_adagrad_0.08_128_40'
p523
I00
sS'29_True_True_337_29_frequent_False_12_relu_0.298_False_512_relu_0.2_adagrad_0.015_128_40'
p524
I00
sS'12_True_False_397_98_frequent_False_8_relu_0.536_False_512_relu_0.2_adagrad_0.064_128_40'
p525
I00
sS'9_False_False_378_46_frequent_False_5_relu_0.552_False_512_relu_0.2_adagrad_0.016_128_40'
p526
I00
sS'11_True_True_457_31_frequent_False_17_relu_0.316_False_512_relu_0.2_adagrad_0.088_128_40'
p527
I00
sS'22_False_True_266_51_frequent_False_16_relu_0.535_False_512_relu_0.2_adagrad_0.022_128_40'
p528
I00
sS'24_False_True_348_34_compact_True_28_relu_0.273_False_512_relu_0.2_adagrad_0.027_128_40'
p529
I00
sS'17_True_True_388_99_frequent_False_54_relu_0.398_False_512_relu_0.2_adagrad_0.086_128_40'
p530
I00
sS'9_True_True_223_40_frequent_False_10_relu_0.349_False_512_relu_0.2_adagrad_0.052_128_40'
p531
I00
sS'8_True_True_370_34_compact_True_13_relu_0.217_False_512_relu_0.2_adagrad_0.028_128_40'
p532
I00
sS'5_False_False_309_48_compact_False_37_relu_0.594_False_512_relu_0.2_adagrad_0.042_128_40'
p533
I00
sS'8_False_True_355_78_frequent_True_17_relu_0.461_False_512_relu_0.2_adagrad_0.011_128_40'
p534
I00
sS'12_True_False_437_34_compact_True_54_relu_0.26_False_512_relu_0.2_adagrad_0.026_128_40'
p535
g29
sS'19_False_False_314_111_frequent_False_46_relu_0.271_False_512_relu_0.2_adagrad_0.016_128_40'
p536
I00
sS'21_False_True_443_37_frequent_False_15_relu_0.282_False_512_relu_0.2_adagrad_0.068_128_40'
p537
I00
sS'7_False_False_316_65_frequent_False_37_relu_0.428_False_512_relu_0.2_adagrad_0.043_128_40'
p538
I00
sS'14_True_True_301_50_compact_False_17_relu_0.235_False_512_relu_0.2_adagrad_0.018_128_40'
p539
I00
sS'7_False_False_466_109_compact_True_13_relu_0.241_False_512_relu_0.2_adagrad_0.053_128_40'
p540
I00
sS'28_False_True_295_49_compact_True_63_relu_0.214_False_512_relu_0.2_adagrad_0.019_128_40'
p541
I00
sS'7_True_False_265_29_compact_True_7_relu_0.21_False_512_relu_0.2_adagrad_0.024_128_40'
p542
g29
sS'14_True_False_246_31_compact_False_23_relu_0.48_False_512_relu_0.2_adagrad_0.017_128_40'
p543
I00
sS'24_True_False_292_79_compact_False_8_relu_0.375_False_512_relu_0.2_adagrad_0.029_128_40'
p544
g29
sS'20_True_True_465_72_frequent_False_13_relu_0.231_False_512_relu_0.2_adagrad_0.034_128_40'
p545
I00
sS'8_False_True_275_36_compact_False_7_relu_0.544_False_512_relu_0.2_adagrad_0.061_128_40'
p546
I00
sS'34_True_True_276_91_compact_True_37_relu_0.414_False_512_relu_0.2_adagrad_0.01_128_40'
p547
I00
sS'34_True_True_207_30_frequent_False_17_relu_0.28_False_512_relu_0.2_adagrad_0.037_128_40'
p548
I00
sS'29_False_False_276_40_frequent_True_23_relu_0.55_False_512_relu_0.2_adagrad_0.017_128_40'
p549
g29
sS'20_True_False_252_40_compact_False_29_relu_0.461_False_512_relu_0.2_adagrad_0.035_128_40'
p550
I00
sS'7_True_False_378_25_compact_False_41_relu_0.36_False_512_relu_0.2_adagrad_0.018_128_40'
p551
I00
sS'5_True_True_392_33_frequent_False_14_relu_0.317_False_512_relu_0.2_adagrad_0.039_128_40'
p552
I00
sS'15_False_False_454_111_frequent_True_11_relu_0.4_False_512_relu_0.2_adagrad_0.035_128_40'
p553
I00
sS'30_False_False_247_26_compact_False_9_relu_0.403_False_512_relu_0.2_adagrad_0.011_128_40'
p554
I00
sS'8_False_True_275_72_compact_True_12_relu_0.538_False_512_relu_0.2_adagrad_0.061_128_40'
p555
I00
sS'22_True_True_226_47_frequent_False_15_relu_0.242_False_512_relu_0.2_adagrad_0.044_128_40'
p556
I00
sS'7_True_True_230_35_compact_False_49_relu_0.336_False_512_relu_0.2_adagrad_0.048_128_40'
p557
I00
sS'26_False_True_211_34_frequent_True_34_relu_0.553_False_512_relu_0.2_adagrad_0.019_128_40'
p558
I00
sS'13_False_False_281_34_compact_False_12_relu_0.501_False_512_relu_0.2_adagrad_0.051_128_40'
p559
I00
sS'19_False_True_467_55_frequent_True_20_relu_0.409_False_512_relu_0.2_adagrad_0.013_128_40'
p560
I00
sS'6_True_False_409_52_compact_False_6_relu_0.454_False_512_relu_0.2_adagrad_0.086_128_40'
p561
I00
sS'25_True_True_287_118_frequent_False_28_relu_0.313_False_512_relu_0.2_adagrad_0.059_128_40'
p562
I00
sS'9_True_False_282_27_compact_False_21_relu_0.319_False_512_relu_0.2_adagrad_0.018_128_40'
p563
I00
sS'20_False_False_363_84_frequent_False_8_relu_0.474_False_512_relu_0.2_adagrad_0.033_128_40'
p564
I00
sS'9_False_False_269_50_compact_False_5_relu_0.387_False_512_relu_0.2_adagrad_0.054_128_40'
p565
I00
sS'12_True_True_246_57_compact_False_52_relu_0.357_False_512_relu_0.2_adagrad_0.043_128_40'
p566
I00
sS'29_False_True_276_82_frequent_False_27_relu_0.247_False_512_relu_0.2_adagrad_0.043_128_40'
p567
I00
sS'7_False_True_338_76_frequent_True_52_relu_0.289_False_512_relu_0.2_adagrad_0.017_128_40'
p568
I00
sS'9_True_False_355_109_frequent_True_8_relu_0.463_False_512_relu_0.2_adagrad_0.054_128_40'
p569
I00
sS'20_False_True_313_32_frequent_True_16_relu_0.424_False_512_relu_0.2_adagrad_0.06_128_40'
p570
I00
sS'18_False_True_292_43_compact_False_10_relu_0.253_False_512_relu_0.2_adagrad_0.033_128_40'
p571
I00
sS'17_True_True_448_35_compact_False_13_relu_0.212_False_512_relu_0.2_adagrad_0.046_128_40'
p572
I00
sS'13_True_False_282_83_frequent_True_61_relu_0.425_False_512_relu_0.2_adagrad_0.023_128_40'
p573
I00
sS'23_False_True_263_103_compact_True_20_relu_0.444_False_512_relu_0.2_adagrad_0.014_128_40'
p574
I00
sS'14_False_False_386_55_frequent_False_15_relu_0.368_False_512_relu_0.2_adagrad_0.023_128_40'
p575
I00
sS'5_True_True_262_58_compact_False_21_relu_0.227_False_512_relu_0.2_adagrad_0.031_128_40'
p576
I00
sS'7_False_True_456_112_compact_True_5_relu_0.401_False_512_relu_0.2_adagrad_0.015_128_40'
p577
I00
sS'7_True_False_323_143_compact_True_22_relu_0.373_False_512_relu_0.2_adagrad_0.016_128_40'
p578
I00
sS'7_True_False_299_51_compact_True_53_relu_0.245_False_512_relu_0.2_adagrad_0.014_128_40'
p579
I00
sS'9_True_False_311_79_frequent_True_28_relu_0.5_False_512_relu_0.2_adagrad_0.032_128_40'
p580
I00
sS'7_True_False_458_27_compact_False_13_relu_0.432_False_512_relu_0.2_adagrad_0.084_128_40'
p581
I00
sS'14_False_True_289_46_frequent_False_20_relu_0.407_False_512_relu_0.2_adagrad_0.025_128_40'
p582
I00
sS'6_True_True_354_76_compact_True_6_relu_0.597_False_512_relu_0.2_adagrad_0.02_128_40'
p583
I00
sS'7_True_False_407_50_frequent_False_8_relu_0.558_False_512_relu_0.2_adagrad_0.021_128_40'
p584
I00
sS'5_False_True_214_81_frequent_True_57_relu_0.578_False_512_relu_0.2_adagrad_0.011_128_40'
p585
I00
sS'8_True_True_290_75_compact_True_45_relu_0.288_False_512_relu_0.2_adagrad_0.011_128_40'
p586
I00
sS'12_True_False_345_112_compact_False_45_relu_0.241_False_512_relu_0.2_adagrad_0.015_128_40'
p587
I00
sS'6_True_False_483_95_frequent_False_5_relu_0.29_False_512_relu_0.2_adagrad_0.042_128_40'
p588
I00
sS'14_False_False_287_123_compact_False_5_relu_0.333_False_512_relu_0.2_adagrad_0.01_128_40'
p589
I00
sS'5_False_False_315_57_frequent_True_7_relu_0.312_False_512_relu_0.2_adagrad_0.05_128_40'
p590
I00
sS'11_True_False_341_128_compact_True_27_relu_0.221_False_512_relu_0.2_adagrad_0.039_128_40'
p591
I00
sS'19_True_False_409_69_frequent_False_36_relu_0.539_False_512_relu_0.2_adagrad_0.045_128_40'
p592
I00
sS'7_True_True_265_28_frequent_True_21_relu_0.29_False_512_relu_0.2_adagrad_0.062_128_40'
p593
I00
sS'22_True_False_398_107_compact_False_15_relu_0.316_False_512_relu_0.2_adagrad_0.022_128_40'
p594
I00
sS'6_True_False_332_77_compact_True_12_relu_0.521_False_512_relu_0.2_adagrad_0.03_128_40'
p595
I00
sS'9_False_False_359_76_frequent_False_12_relu_0.512_False_512_relu_0.2_adagrad_0.019_128_40'
p596
I00
sS'33_False_True_452_56_compact_False_5_relu_0.245_False_512_relu_0.2_adagrad_0.071_128_40'
p597
I00
sS'5_True_True_255_101_frequent_True_44_relu_0.475_False_512_relu_0.2_adagrad_0.036_128_40'
p598
I00
sS'6_True_True_355_86_frequent_False_12_relu_0.358_False_512_relu_0.2_adagrad_0.03_128_40'
p599
I00
sS'10_True_True_374_97_frequent_True_10_relu_0.518_False_512_relu_0.2_adagrad_0.023_128_40'
p600
I00
sS'15_False_True_231_71_compact_True_6_relu_0.505_False_512_relu_0.2_adagrad_0.027_128_40'
p601
I00
sS'6_True_False_230_60_frequent_False_53_relu_0.5_False_512_relu_0.2_adagrad_0.039_128_40'
p602
I00
sS'8_False_True_286_27_compact_False_22_relu_0.213_False_512_relu_0.2_adagrad_0.01_128_40'
p603
I00
sS'9_True_False_331_64_compact_True_31_relu_0.434_False_512_relu_0.2_adagrad_0.082_128_40'
p604
I00
sS'12_False_True_352_144_compact_True_7_relu_0.256_False_512_relu_0.2_adagrad_0.026_128_40'
p605
I00
sS'16_True_True_274_70_compact_False_26_relu_0.231_False_512_relu_0.2_adagrad_0.015_128_40'
p606
I00
sS'7_True_True_345_99_compact_False_55_relu_0.449_False_512_relu_0.2_adagrad_0.032_128_40'
p607
I00
sS'33_True_True_487_40_compact_True_29_relu_0.324_False_512_relu_0.2_adagrad_0.017_128_40'
p608
I00
sS'14_True_False_331_29_frequent_True_34_relu_0.306_False_512_relu_0.2_adagrad_0.063_128_40'
p609
I00
sS'21_False_False_297_55_compact_False_22_relu_0.293_False_512_relu_0.2_adagrad_0.012_128_40'
p610
I00
sS'12_False_True_208_98_frequent_False_11_relu_0.421_False_512_relu_0.2_adagrad_0.028_128_40'
p611
I00
sS'18_True_False_261_33_compact_False_30_relu_0.465_False_512_relu_0.2_adagrad_0.042_128_40'
p612
I00
sS'7_True_False_228_42_frequent_False_20_relu_0.289_False_512_relu_0.2_adagrad_0.026_128_40'
p613
I00
sS'21_True_True_418_51_frequent_True_42_relu_0.542_False_512_relu_0.2_adagrad_0.013_128_40'
p614
I00
sS'33_False_False_335_86_compact_True_5_relu_0.489_False_512_relu_0.2_adagrad_0.03_128_40'
p615
I00
sS'12_True_False_359_83_compact_False_29_relu_0.43_False_512_relu_0.2_adagrad_0.013_128_40'
p616
I00
sS'8_False_False_265_65_compact_False_7_relu_0.449_False_512_relu_0.2_adagrad_0.018_128_40'
p617
I00
sS'7_True_True_337_30_compact_False_39_relu_0.291_False_512_relu_0.2_adagrad_0.035_128_40'
p618
I00
sS'6_True_True_384_85_frequent_True_7_relu_0.327_False_512_relu_0.2_adagrad_0.022_128_40'
p619
I00
sS'24_False_True_457_61_compact_False_17_relu_0.533_False_512_relu_0.2_adagrad_0.032_128_40'
p620
I00
sS'6_False_True_343_145_frequent_False_31_relu_0.392_False_512_relu_0.2_adagrad_0.015_128_40'
p621
I00
sS'20_True_True_256_47_compact_True_34_relu_0.247_False_512_relu_0.2_adagrad_0.016_128_40'
p622
I00
sS'10_True_False_470_26_compact_True_31_relu_0.481_False_512_relu_0.2_adagrad_0.085_128_40'
p623
I00
sS'18_True_False_220_47_frequent_True_9_relu_0.4_False_512_relu_0.2_adagrad_0.085_128_40'
p624
I00
sS'7_False_True_247_68_compact_False_42_relu_0.297_False_512_relu_0.2_adagrad_0.043_128_40'
p625
I00
sS'6_True_False_209_64_compact_False_14_relu_0.226_False_512_relu_0.2_adagrad_0.077_128_40'
p626
I00
sS'12_True_False_422_26_frequent_False_44_relu_0.547_False_512_relu_0.2_adagrad_0.068_128_40'
p627
I00
sS'12_False_True_246_108_frequent_True_43_relu_0.499_False_512_relu_0.2_adagrad_0.05_128_40'
p628
I00
sS'33_True_True_385_53_frequent_True_21_relu_0.254_False_512_relu_0.2_adagrad_0.021_128_40'
p629
I00
sS'22_True_False_421_25_frequent_False_41_relu_0.341_False_512_relu_0.2_adagrad_0.022_128_40'
p630
I00
sS'15_True_True_455_64_compact_True_32_relu_0.577_False_512_relu_0.2_adagrad_0.031_128_40'
p631
I00
sS'11_True_True_370_102_compact_True_58_relu_0.353_False_512_relu_0.2_adagrad_0.013_128_40'
p632
I00
sS'9_False_True_360_93_frequent_True_11_relu_0.209_False_512_relu_0.2_adagrad_0.024_128_40'
p633
I00
sS'5_True_True_307_141_compact_False_57_relu_0.209_False_512_relu_0.2_adagrad_0.016_128_40'
p634
I00
sS'28_True_False_214_37_compact_False_21_relu_0.35_False_512_relu_0.2_adagrad_0.019_128_40'
p635
I00
sS'5_True_True_227_101_compact_False_36_relu_0.524_False_512_relu_0.2_adagrad_0.036_128_40'
p636
I00
sS'14_True_False_341_117_compact_True_28_relu_0.54_False_512_relu_0.2_adagrad_0.016_128_40'
p637
I00
sS'13_True_True_245_46_frequent_True_5_relu_0.5_False_512_relu_0.2_adagrad_0.069_128_40'
p638
I00
sS'18_False_False_241_50_compact_True_5_relu_0.593_False_512_relu_0.2_adagrad_0.043_128_40'
p639
I00
sS'12_False_False_318_149_compact_False_22_relu_0.471_False_512_relu_0.2_adagrad_0.043_128_40'
p640
I00
sS'8_False_True_210_90_compact_True_12_relu_0.405_False_512_relu_0.2_adagrad_0.072_128_40'
p641
I00
sS'33_True_False_398_146_frequent_True_12_relu_0.343_False_512_relu_0.2_adagrad_0.013_128_40'
p642
I00
sS'19_True_False_253_49_compact_False_19_relu_0.441_False_512_relu_0.2_adagrad_0.019_128_40'
p643
I00
sS'34_False_False_325_49_frequent_True_6_relu_0.224_False_512_relu_0.2_adagrad_0.045_128_40'
p644
I00
sS'10_False_False_213_134_frequent_False_9_relu_0.369_False_512_relu_0.2_adagrad_0.034_128_40'
p645
I00
sS'5_True_True_220_135_compact_False_6_relu_0.299_False_512_relu_0.2_adagrad_0.078_128_40'
p646
I00
sS'28_False_False_232_95_frequent_True_10_relu_0.461_False_512_relu_0.2_adagrad_0.079_128_40'
p647
I00
sS'20_True_False_212_93_compact_False_29_relu_0.216_False_512_relu_0.2_adagrad_0.018_128_40'
p648
I00
sS'22_False_True_496_52_compact_False_5_relu_0.315_False_512_relu_0.2_adagrad_0.055_128_40'
p649
I00
sS'7_True_True_215_149_compact_False_57_relu_0.523_False_512_relu_0.2_adagrad_0.024_128_40'
p650
I00
sS'12_True_False_487_59_compact_True_10_relu_0.536_False_512_relu_0.2_adagrad_0.014_128_40'
p651
I00
sS'8_True_True_222_27_frequent_True_6_relu_0.201_False_512_relu_0.2_adagrad_0.034_128_40'
p652
g29
sS'5_True_False_231_37_frequent_False_23_relu_0.261_False_512_relu_0.2_adagrad_0.042_128_40'
p653
I00
sS'9_True_True_217_106_compact_False_12_relu_0.225_False_512_relu_0.2_adagrad_0.016_128_40'
p654
I00
sS'28_False_False_287_37_compact_True_11_relu_0.291_False_512_relu_0.2_adagrad_0.089_128_40'
p655
I00
sS'5_True_True_242_74_frequent_False_12_relu_0.549_False_512_relu_0.2_adagrad_0.051_128_40'
p656
I00
sS'5_False_False_338_45_compact_True_21_relu_0.511_False_512_relu_0.2_adagrad_0.042_128_40'
p657
I00
sS'9_True_False_320_145_frequent_False_5_relu_0.422_False_512_relu_0.2_adagrad_0.042_128_40'
p658
I00
sS'11_True_True_229_50_frequent_True_14_relu_0.329_False_512_relu_0.2_adagrad_0.014_128_40'
p659
I00
sS'7_False_True_216_51_frequent_False_34_relu_0.416_False_512_relu_0.2_adagrad_0.012_128_40'
p660
I00
sS'17_False_False_286_52_frequent_True_36_relu_0.379_False_512_relu_0.2_adagrad_0.029_128_40'
p661
I00
sS'23_True_False_289_27_compact_False_5_relu_0.523_False_512_relu_0.2_adagrad_0.064_128_40'
p662
I00
sS'17_False_False_353_27_compact_True_29_relu_0.453_False_512_relu_0.2_adagrad_0.081_128_40'
p663
I00
sS'21_False_True_418_52_frequent_True_18_relu_0.309_False_512_relu_0.2_adagrad_0.017_128_40'
p664
I00
sS'25_False_False_278_83_frequent_True_9_relu_0.383_False_512_relu_0.2_adagrad_0.036_128_40'
p665
I00
sS'5_True_False_300_38_frequent_False_8_relu_0.554_False_512_relu_0.2_adagrad_0.038_128_40'
p666
I00
sS'19_False_True_367_103_frequent_True_26_relu_0.238_False_512_relu_0.2_adagrad_0.015_128_40'
p667
I00
sS'9_True_True_405_43_frequent_True_22_relu_0.508_False_512_relu_0.2_adagrad_0.028_128_40'
p668
I00
sS'13_False_False_463_35_frequent_True_17_relu_0.233_False_512_relu_0.2_adagrad_0.025_128_40'
p669
I00
sS'7_True_True_208_35_frequent_False_7_relu_0.319_False_512_relu_0.2_adagrad_0.056_128_40'
p670
I00
sS'11_True_True_401_54_frequent_True_14_relu_0.243_False_512_relu_0.2_adagrad_0.02_128_40'
p671
I00
sS'11_False_True_292_42_compact_False_33_relu_0.326_False_512_relu_0.2_adagrad_0.069_128_40'
p672
I00
sS'11_True_False_453_108_frequent_True_8_relu_0.218_False_512_relu_0.2_adagrad_0.066_128_40'
p673
I00
sS'14_False_False_219_87_frequent_True_30_relu_0.314_False_512_relu_0.2_adagrad_0.022_128_40'
p674
I00
sS'9_False_False_320_125_frequent_False_29_relu_0.223_False_512_relu_0.2_adagrad_0.053_128_40'
p675
g29
sS'7_True_False_223_42_compact_False_7_relu_0.273_False_512_relu_0.2_adagrad_0.028_128_40'
p676
g29
sS'6_False_True_432_75_compact_False_5_relu_0.348_False_512_relu_0.2_adagrad_0.054_128_40'
p677
I00
sS'17_True_True_277_87_frequent_False_28_relu_0.591_False_512_relu_0.2_adagrad_0.026_128_40'
p678
I00
sS'16_False_False_306_26_compact_False_44_relu_0.332_False_512_relu_0.2_adagrad_0.03_128_40'
p679
I00
sS'7_True_False_339_108_frequent_False_33_relu_0.215_False_512_relu_0.2_adagrad_0.029_128_40'
p680
I00
sS'19_True_True_383_25_compact_False_59_relu_0.384_False_512_relu_0.2_adagrad_0.011_128_40'
p681
I00
sS'26_True_True_256_61_compact_False_42_relu_0.203_False_512_relu_0.2_adagrad_0.059_128_40'
p682
I00
sS'22_False_True_294_40_compact_True_7_relu_0.233_False_512_relu_0.2_adagrad_0.015_128_40'
p683
I00
sS'9_False_True_278_100_frequent_False_29_relu_0.249_False_512_relu_0.2_adagrad_0.04_128_40'
p684
I00
sS'10_True_True_308_141_compact_True_50_relu_0.596_False_512_relu_0.2_adagrad_0.014_128_40'
p685
I00
sS'8_True_True_217_114_frequent_True_31_relu_0.325_False_512_relu_0.2_adagrad_0.05_128_40'
p686
I00
sS'5_False_False_394_71_frequent_True_62_relu_0.244_False_512_relu_0.2_adagrad_0.065_128_40'
p687
I00
sS'6_False_True_251_63_frequent_True_47_relu_0.379_False_512_relu_0.2_adagrad_0.014_128_40'
p688
I00
sS'20_False_False_237_55_compact_False_17_relu_0.28_False_512_relu_0.2_adagrad_0.014_128_40'
p689
I00
sS'20_False_True_489_40_frequent_True_58_relu_0.252_False_512_relu_0.2_adagrad_0.012_128_40'
p690
I00
sS'5_False_True_498_94_compact_False_8_relu_0.207_False_512_relu_0.2_adagrad_0.054_128_40'
p691
I00
sS'7_True_False_229_70_compact_True_31_relu_0.482_False_512_relu_0.2_adagrad_0.028_128_40'
p692
I00
sS'20_False_True_321_71_frequent_False_5_relu_0.476_False_512_relu_0.2_adagrad_0.027_128_40'
p693
I00
sS'19_False_False_472_45_compact_False_15_relu_0.458_False_512_relu_0.2_adagrad_0.01_128_40'
p694
g29
sS'11_True_False_285_57_compact_False_13_relu_0.278_False_512_relu_0.2_adagrad_0.031_128_40'
p695
I00
sS'9_True_True_221_30_compact_True_12_relu_0.21_False_512_relu_0.2_adagrad_0.01_128_40'
p696
I00
sS'5_False_True_345_92_frequent_True_10_relu_0.277_False_512_relu_0.2_adagrad_0.016_128_40'
p697
I00
sS'7_False_True_361_81_frequent_False_6_relu_0.208_False_512_relu_0.2_adagrad_0.013_128_40'
p698
I00
sS'13_True_False_223_49_compact_True_9_relu_0.524_False_512_relu_0.2_adagrad_0.028_128_40'
p699
I00
sS'5_True_False_330_114_compact_False_57_relu_0.373_False_512_relu_0.2_adagrad_0.045_128_40'
p700
I00
sS'8_True_False_427_45_compact_True_34_relu_0.206_False_512_relu_0.2_adagrad_0.016_128_40'
p701
I00
sS'24_True_False_352_41_compact_True_5_relu_0.319_False_512_relu_0.2_adagrad_0.016_128_40'
p702
I00
sS'11_True_True_330_42_frequent_False_5_relu_0.243_False_512_relu_0.2_adagrad_0.032_128_40'
p703
I00
sS'26_False_True_298_40_frequent_False_16_relu_0.352_False_512_relu_0.2_adagrad_0.081_128_40'
p704
I00
sS'6_False_False_440_102_compact_False_26_relu_0.265_False_512_relu_0.2_adagrad_0.014_128_40'
p705
g29
sS'28_True_True_214_102_frequent_False_28_relu_0.556_False_512_relu_0.2_adagrad_0.087_128_40'
p706
I00
sS'9_True_False_245_54_compact_False_9_relu_0.378_False_512_relu_0.2_adagrad_0.032_128_40'
p707
I00
sS'10_True_False_316_45_frequent_True_50_relu_0.286_False_512_relu_0.2_adagrad_0.01_128_40'
p708
I00
sS'20_True_False_479_81_frequent_False_43_relu_0.455_False_512_relu_0.2_adagrad_0.032_128_40'
p709
I00
sS'28_False_True_317_34_compact_True_9_relu_0.407_False_512_relu_0.2_adagrad_0.052_128_40'
p710
I00
sS'20_False_True_350_33_compact_True_39_relu_0.299_False_512_relu_0.2_adagrad_0.057_128_40'
p711
I00
sS'13_False_True_356_45_frequent_False_49_relu_0.545_False_512_relu_0.2_adagrad_0.014_128_40'
p712
I00
sS'7_True_True_352_93_compact_False_39_relu_0.221_False_512_relu_0.2_adagrad_0.089_128_40'
p713
I00
sS'21_True_True_275_45_compact_False_10_relu_0.227_False_512_relu_0.2_adagrad_0.021_128_40'
p714
I00
sS'9_False_False_242_34_compact_False_13_relu_0.537_False_512_relu_0.2_adagrad_0.024_128_40'
p715
I00
sS'17_True_True_319_117_frequent_False_10_relu_0.413_False_512_relu_0.2_adagrad_0.079_128_40'
p716
I00
sS'14_True_False_266_58_frequent_True_38_relu_0.293_False_512_relu_0.2_adagrad_0.067_128_40'
p717
I00
sS'26_True_False_298_120_frequent_False_17_relu_0.442_False_512_relu_0.2_adagrad_0.019_128_40'
p718
I00
sS'11_True_False_250_34_frequent_False_13_relu_0.488_False_512_relu_0.2_adagrad_0.015_128_40'
p719
I00
sS'28_False_False_205_134_compact_True_63_relu_0.457_False_512_relu_0.2_adagrad_0.013_128_40'
p720
I00
sS'24_False_True_320_118_compact_False_35_relu_0.26_False_512_relu_0.2_adagrad_0.015_128_40'
p721
I00
sS'6_False_True_211_35_frequent_False_7_relu_0.489_False_512_relu_0.2_adagrad_0.022_128_40'
p722
I00
sS'21_True_False_339_140_compact_True_20_relu_0.251_False_512_relu_0.2_adagrad_0.019_128_40'
p723
I00
sS'25_False_True_438_49_frequent_True_57_relu_0.478_False_512_relu_0.2_adagrad_0.01_128_40'
p724
I00
sS'11_False_True_220_36_compact_False_47_relu_0.415_False_512_relu_0.2_adagrad_0.052_128_40'
p725
g29
sS'24_False_False_300_55_compact_False_37_relu_0.274_False_512_relu_0.2_adagrad_0.019_128_40'
p726
I00
sS'15_True_False_347_101_frequent_False_7_relu_0.206_False_512_relu_0.2_adagrad_0.067_128_40'
p727
I00
sS'16_True_False_202_29_compact_True_10_relu_0.207_False_512_relu_0.2_adagrad_0.018_128_40'
p728
I00
sS'13_True_False_236_69_frequent_True_9_relu_0.49_False_512_relu_0.2_adagrad_0.028_128_40'
p729
I00
sS'12_True_True_355_84_compact_False_59_relu_0.257_False_512_relu_0.2_adagrad_0.057_128_40'
p730
I00
sS'28_True_True_275_83_frequent_True_48_relu_0.202_False_512_relu_0.2_adagrad_0.041_128_40'
p731
I00
sS'15_False_True_440_30_frequent_False_6_relu_0.441_False_512_relu_0.2_adagrad_0.017_128_40'
p732
I00
sS'5_True_False_389_45_frequent_True_19_relu_0.291_False_512_relu_0.2_adagrad_0.022_128_40'
p733
I00
sS'8_False_False_334_77_compact_True_27_relu_0.258_False_512_relu_0.2_adagrad_0.032_128_40'
p734
I00
sS'22_False_False_250_116_frequent_False_7_relu_0.33_False_512_relu_0.2_adagrad_0.028_128_40'
p735
I00
sS'12_False_False_240_140_compact_True_6_relu_0.262_False_512_relu_0.2_adagrad_0.029_128_40'
p736
I00
sS'9_True_False_365_79_compact_True_19_relu_0.283_False_512_relu_0.2_adagrad_0.017_128_40'
p737
I00
sS'21_True_True_269_36_frequent_True_36_relu_0.223_False_512_relu_0.2_adagrad_0.029_128_40'
p738
I00
sS'23_False_True_306_97_compact_False_7_relu_0.203_False_512_relu_0.2_adagrad_0.015_128_40'
p739
I00
sS'8_False_False_237_52_frequent_True_49_relu_0.392_False_512_relu_0.2_adagrad_0.014_128_40'
p740
I00
sS'21_True_True_221_113_compact_True_5_relu_0.298_False_512_relu_0.2_adagrad_0.012_128_40'
p741
I00
sS'14_False_True_220_44_frequent_False_50_relu_0.458_False_512_relu_0.2_adagrad_0.011_128_40'
p742
I00
sS'23_True_True_204_127_frequent_True_5_relu_0.252_False_512_relu_0.2_adagrad_0.072_128_40'
p743
I00
sS'23_True_True_295_106_frequent_True_30_relu_0.499_False_512_relu_0.2_adagrad_0.07_128_40'
p744
I00
sS'15_False_True_432_84_compact_True_17_relu_0.375_False_512_relu_0.2_adagrad_0.055_128_40'
p745
I00
sS'7_True_True_210_82_compact_False_45_relu_0.559_False_512_relu_0.2_adagrad_0.025_128_40'
p746
I00
sS'31_False_True_384_27_frequent_False_29_relu_0.561_False_512_relu_0.2_adagrad_0.014_128_40'
p747
I00
sS'29_True_False_293_37_compact_True_13_relu_0.491_False_512_relu_0.2_adagrad_0.019_128_40'
p748
I00
sS'22_False_False_476_61_compact_True_54_relu_0.224_False_512_relu_0.2_adagrad_0.069_128_40'
p749
I00
sS'13_True_False_349_26_compact_True_38_relu_0.274_False_512_relu_0.2_adagrad_0.061_128_40'
p750
I00
sS'9_True_True_434_148_compact_True_20_relu_0.262_False_512_relu_0.2_adagrad_0.045_128_40'
p751
I00
sS'6_False_True_296_48_frequent_True_59_relu_0.577_False_512_relu_0.2_adagrad_0.024_128_40'
p752
I00
sS'31_True_True_385_130_frequent_True_13_relu_0.482_False_512_relu_0.2_adagrad_0.049_128_40'
p753
I00
sS'29_True_True_282_34_frequent_True_5_relu_0.506_False_512_relu_0.2_adagrad_0.077_128_40'
p754
I00
sS'7_True_False_431_104_frequent_False_7_relu_0.349_False_512_relu_0.2_adagrad_0.018_128_40'
p755
I00
sS'6_True_True_226_34_frequent_False_6_relu_0.511_False_512_relu_0.2_adagrad_0.053_128_40'
p756
I00
sS'32_True_False_418_85_compact_False_46_relu_0.475_False_512_relu_0.2_adagrad_0.069_128_40'
p757
I00
sS'32_True_True_229_65_compact_False_15_relu_0.582_False_512_relu_0.2_adagrad_0.014_128_40'
p758
I00
sS'17_True_False_234_102_compact_False_61_relu_0.557_False_512_relu_0.2_adagrad_0.071_128_40'
p759
I00
sS'6_True_True_256_49_compact_True_25_relu_0.272_False_512_relu_0.2_adagrad_0.04_128_40'
p760
I00
sS'26_False_False_444_121_frequent_False_49_relu_0.216_False_512_relu_0.2_adagrad_0.013_128_40'
p761
I00
sS'10_True_False_247_75_frequent_True_14_relu_0.248_False_512_relu_0.2_adagrad_0.037_128_40'
p762
I00
sS'6_True_False_224_117_frequent_False_6_relu_0.565_False_512_relu_0.2_adagrad_0.011_128_40'
p763
I00
sS'7_True_False_315_47_frequent_False_35_relu_0.272_False_512_relu_0.2_adagrad_0.017_128_40'
p764
I00
sS'28_False_False_431_65_frequent_True_58_relu_0.344_False_512_relu_0.2_adagrad_0.028_128_40'
p765
I00
sS'9_True_True_250_94_compact_True_19_relu_0.217_False_512_relu_0.2_adagrad_0.023_128_40'
p766
I00
sS'18_False_False_441_25_frequent_True_6_relu_0.435_False_512_relu_0.2_adagrad_0.011_128_40'
p767
I00
sS'31_False_True_343_68_compact_True_21_relu_0.542_False_512_relu_0.2_adagrad_0.059_128_40'
p768
I00
sS'11_False_False_265_90_compact_False_10_relu_0.327_False_512_relu_0.2_adagrad_0.031_128_40'
p769
I00
sS'31_False_False_487_45_compact_True_38_relu_0.392_False_512_relu_0.2_adagrad_0.014_128_40'
p770
I00
sS'18_False_True_470_36_frequent_True_36_relu_0.244_False_512_relu_0.2_adagrad_0.042_128_40'
p771
I00
sS'13_False_False_209_130_compact_True_47_relu_0.362_False_512_relu_0.2_adagrad_0.078_128_40'
p772
g29
sS'16_True_True_237_110_frequent_True_54_relu_0.215_False_512_relu_0.2_adagrad_0.058_128_40'
p773
I00
sS'23_False_True_422_122_compact_False_25_relu_0.531_False_512_relu_0.2_adagrad_0.011_128_40'
p774
I00
sS'11_False_True_206_72_frequent_False_5_relu_0.298_False_512_relu_0.2_adagrad_0.012_128_40'
p775
I00
sS'6_False_True_218_110_frequent_False_14_relu_0.29_False_512_relu_0.2_adagrad_0.017_128_40'
p776
I00
sS'9_True_False_375_122_compact_True_19_relu_0.504_False_512_relu_0.2_adagrad_0.061_128_40'
p777
I00
sS'5_False_False_352_53_compact_False_6_relu_0.234_False_512_relu_0.2_adagrad_0.035_128_40'
p778
I00
sS'18_True_False_308_86_frequent_False_14_relu_0.325_False_512_relu_0.2_adagrad_0.083_128_40'
p779
I00
sS'6_True_False_242_123_frequent_False_20_relu_0.533_False_512_relu_0.2_adagrad_0.053_128_40'
p780
I00
sS'5_False_False_252_81_frequent_False_53_relu_0.272_False_512_relu_0.2_adagrad_0.032_128_40'
p781
I00
sS'11_True_True_291_95_compact_True_15_relu_0.303_False_512_relu_0.2_adagrad_0.013_128_40'
p782
I00
sS'22_True_True_242_34_compact_True_16_relu_0.455_False_512_relu_0.2_adagrad_0.083_128_40'
p783
I00
sS'11_False_False_224_45_frequent_False_16_relu_0.451_False_512_relu_0.2_adagrad_0.013_128_40'
p784
I00
sS'20_True_True_232_47_frequent_False_43_relu_0.247_False_512_relu_0.2_adagrad_0.02_128_40'
p785
I00
sS'11_False_False_466_132_compact_False_33_relu_0.387_False_512_relu_0.2_adagrad_0.012_128_40'
p786
I00
sS'14_False_True_339_129_frequent_True_11_relu_0.413_False_512_relu_0.2_adagrad_0.012_128_40'
p787
I00
sS'12_True_True_432_39_compact_False_32_relu_0.264_False_512_relu_0.2_adagrad_0.017_128_40'
p788
I00
sS'21_False_False_235_61_compact_False_11_relu_0.326_False_512_relu_0.2_adagrad_0.048_128_40'
p789
I00
sS'32_False_False_218_39_compact_False_63_relu_0.347_False_512_relu_0.2_adagrad_0.015_128_40'
p790
I00
sS'24_False_True_358_68_compact_False_45_relu_0.579_False_512_relu_0.2_adagrad_0.046_128_40'
p791
I00
sS'13_True_False_279_62_compact_False_14_relu_0.354_False_512_relu_0.2_adagrad_0.011_128_40'
p792
I00
sS'19_False_True_249_105_compact_False_30_relu_0.599_False_512_relu_0.2_adagrad_0.026_128_40'
p793
I00
sS'5_True_False_462_75_compact_True_24_relu_0.348_False_512_relu_0.2_adagrad_0.046_128_40'
p794
I00
sS'6_False_False_451_133_compact_False_20_relu_0.384_False_512_relu_0.2_adagrad_0.05_128_40'
p795
I00
sS'7_False_False_445_26_compact_True_55_relu_0.365_False_512_relu_0.2_adagrad_0.054_128_40'
p796
I00
sS'5_True_False_236_83_compact_False_17_relu_0.297_False_512_relu_0.2_adagrad_0.03_128_40'
p797
I00
sS'5_False_True_210_30_frequent_True_43_relu_0.557_False_512_relu_0.2_adagrad_0.067_128_40'
p798
I00
sS'18_False_True_275_84_frequent_False_19_relu_0.238_False_512_relu_0.2_adagrad_0.022_128_40'
p799
I00
sS'6_True_False_426_42_frequent_False_8_relu_0.344_False_512_relu_0.2_adagrad_0.079_128_40'
p800
I00
sS'22_True_False_460_32_compact_True_8_relu_0.305_False_512_relu_0.2_adagrad_0.011_128_40'
p801
I00
sS'34_True_False_397_59_compact_True_11_relu_0.374_False_512_relu_0.2_adagrad_0.012_128_40'
p802
I00
sS'7_True_False_249_100_frequent_True_21_relu_0.448_False_512_relu_0.2_adagrad_0.015_128_40'
p803
I00
sS'33_True_False_275_39_compact_True_17_relu_0.388_False_512_relu_0.2_adagrad_0.013_128_40'
p804
I00
sS'6_False_True_320_110_frequent_False_6_relu_0.458_False_512_relu_0.2_adagrad_0.082_128_40'
p805
I00
sS'11_False_False_245_136_frequent_True_11_relu_0.414_False_512_relu_0.2_adagrad_0.075_128_40'
p806
I00
sS'5_True_True_246_72_frequent_True_18_relu_0.399_False_512_relu_0.2_adagrad_0.051_128_40'
p807
I00
sS'23_True_True_224_100_frequent_True_24_relu_0.549_False_512_relu_0.2_adagrad_0.015_128_40'
p808
I00
sS'9_False_True_203_114_compact_True_7_relu_0.53_False_512_relu_0.2_adagrad_0.072_128_40'
p809
I00
sS'7_False_False_202_26_compact_True_30_relu_0.351_False_512_relu_0.2_adagrad_0.011_128_40'
p810
I00
sS'25_False_False_281_47_frequent_True_53_relu_0.262_False_512_relu_0.2_adagrad_0.013_128_40'
p811
I00
sS'16_True_True_447_110_frequent_True_52_relu_0.396_False_512_relu_0.2_adagrad_0.047_128_40'
p812
I00
sS'14_False_True_415_49_frequent_False_11_relu_0.36_False_512_relu_0.2_adagrad_0.018_128_40'
p813
I00
sS'26_False_True_423_25_compact_False_22_relu_0.435_False_512_relu_0.2_adagrad_0.057_128_40'
p814
I00
sS'15_False_True_312_133_frequent_False_21_relu_0.407_False_512_relu_0.2_adagrad_0.023_128_40'
p815
I00
sS'5_False_False_219_30_frequent_True_14_relu_0.276_False_512_relu_0.2_adagrad_0.013_128_40'
p816
I00
sS'30_False_False_249_142_frequent_False_27_relu_0.513_False_512_relu_0.2_adagrad_0.012_128_40'
p817
I00
sS'18_True_True_339_92_frequent_True_15_relu_0.244_False_512_relu_0.2_adagrad_0.026_128_40'
p818
I00
sS'20_True_True_286_36_compact_True_39_relu_0.504_False_512_relu_0.2_adagrad_0.08_128_40'
p819
I00
sS'7_True_True_203_60_frequent_False_7_relu_0.391_False_512_relu_0.2_adagrad_0.017_128_40'
p820
I00
sS'24_False_True_245_30_frequent_True_39_relu_0.261_False_512_relu_0.2_adagrad_0.061_128_40'
p821
I00
sS'31_True_False_267_76_frequent_True_60_relu_0.503_False_512_relu_0.2_adagrad_0.018_128_40'
p822
I00
sS'15_False_False_419_34_frequent_True_29_relu_0.408_False_512_relu_0.2_adagrad_0.011_128_40'
p823
I00
sS'26_False_True_499_125_frequent_True_6_relu_0.407_False_512_relu_0.2_adagrad_0.08_128_40'
p824
I00
sS'5_False_True_303_78_compact_False_13_relu_0.255_False_512_relu_0.2_adagrad_0.026_128_40'
p825
I00
sS'28_False_False_335_112_compact_True_31_relu_0.418_False_512_relu_0.2_adagrad_0.016_128_40'
p826
I00
sS'24_False_True_333_46_frequent_True_32_relu_0.342_False_512_relu_0.2_adagrad_0.085_128_40'
p827
I00
sS'29_True_True_464_67_frequent_False_58_relu_0.358_False_512_relu_0.2_adagrad_0.037_128_40'
p828
I00
sS'5_True_True_225_32_frequent_True_29_relu_0.471_False_512_relu_0.2_adagrad_0.03_128_40'
p829
I00
sS'12_True_False_401_104_compact_False_47_relu_0.443_False_512_relu_0.2_adagrad_0.014_128_40'
p830
I00
sS'19_True_False_366_116_frequent_True_39_relu_0.287_False_512_relu_0.2_adagrad_0.016_128_40'
p831
I00
sS'17_True_False_404_35_compact_False_11_relu_0.285_False_512_relu_0.2_adagrad_0.025_128_40'
p832
g29
sS'14_True_True_277_109_frequent_True_40_relu_0.562_False_512_relu_0.2_adagrad_0.06_128_40'
p833
I00
sS'26_False_True_316_47_frequent_False_41_relu_0.217_False_512_relu_0.2_adagrad_0.018_128_40'
p834
I00
sS'16_True_True_274_30_compact_False_51_relu_0.217_False_512_relu_0.2_adagrad_0.051_128_40'
p835
I00
sS'6_False_False_455_74_frequent_True_5_relu_0.484_False_512_relu_0.2_adagrad_0.012_128_40'
p836
I00
sS'5_True_False_466_35_compact_True_46_relu_0.502_False_512_relu_0.2_adagrad_0.056_128_40'
p837
I00
sS'19_False_True_281_109_compact_False_5_relu_0.573_False_512_relu_0.2_adagrad_0.011_128_40'
p838
I00
sS'25_False_True_202_52_frequent_True_62_relu_0.476_False_512_relu_0.2_adagrad_0.043_128_40'
p839
I00
sS'17_True_True_362_74_compact_True_15_relu_0.232_False_512_relu_0.2_adagrad_0.011_128_40'
p840
I00
sS'8_False_False_375_66_compact_False_14_relu_0.203_False_512_relu_0.2_adagrad_0.022_128_40'
p841
I00
sS'22_False_True_323_118_frequent_True_6_relu_0.205_False_512_relu_0.2_adagrad_0.01_128_40'
p842
I00
sS'12_True_True_233_38_frequent_False_9_relu_0.479_False_512_relu_0.2_adagrad_0.024_128_40'
p843
I00
sS'9_False_True_317_45_compact_False_10_relu_0.241_False_512_relu_0.2_adagrad_0.043_128_40'
p844
I00
sS'28_True_False_255_73_frequent_True_8_relu_0.257_False_512_relu_0.2_adagrad_0.013_128_40'
p845
I00
sS'12_True_True_353_67_frequent_True_10_relu_0.519_False_512_relu_0.2_adagrad_0.015_128_40'
p846
I00
sS'24_False_True_232_76_frequent_False_7_relu_0.396_False_512_relu_0.2_adagrad_0.044_128_40'
p847
I00
sS'10_False_False_401_60_compact_False_21_relu_0.324_False_512_relu_0.2_adagrad_0.012_128_40'
p848
I00
sS'22_False_True_243_122_compact_True_37_relu_0.274_False_512_relu_0.2_adagrad_0.027_128_40'
p849
I00
sS'17_True_False_437_95_compact_True_39_relu_0.463_False_512_relu_0.2_adagrad_0.06_128_40'
p850
I00
sS'33_True_True_229_76_compact_True_49_relu_0.324_False_512_relu_0.2_adagrad_0.055_128_40'
p851
I00
sS'15_True_False_450_72_compact_False_25_relu_0.273_False_512_relu_0.2_adagrad_0.017_128_40'
p852
I00
sS'30_False_True_370_52_compact_True_10_relu_0.315_False_512_relu_0.2_adagrad_0.022_128_40'
p853
I00
sS'26_False_False_201_43_compact_True_45_relu_0.425_False_512_relu_0.2_adagrad_0.026_128_40'
p854
I00
sS'32_False_True_382_29_compact_False_9_relu_0.253_False_512_relu_0.2_adagrad_0.072_128_40'
p855
I00
sS'7_True_True_428_75_frequent_True_36_relu_0.314_False_512_relu_0.2_adagrad_0.029_128_40'
p856
I00
sS'31_False_False_438_69_frequent_False_5_relu_0.202_False_512_relu_0.2_adagrad_0.021_128_40'
p857
I00
sS'21_False_False_364_68_compact_True_38_relu_0.398_False_512_relu_0.2_adagrad_0.086_128_40'
p858
I00
sS'9_False_False_390_33_compact_False_62_relu_0.338_False_512_relu_0.2_adagrad_0.033_128_40'
p859
I00
sS'12_False_True_454_133_frequent_True_48_relu_0.545_False_512_relu_0.2_adagrad_0.051_128_40'
p860
I00
sS'8_False_False_436_93_frequent_True_24_relu_0.398_False_512_relu_0.2_adagrad_0.058_128_40'
p861
I00
sS'23_True_True_262_38_frequent_True_25_relu_0.391_False_512_relu_0.2_adagrad_0.014_128_40'
p862
I00
sS'5_True_True_261_108_compact_False_6_relu_0.339_False_512_relu_0.2_adagrad_0.024_128_40'
p863
I00
sS'29_True_True_383_78_compact_False_19_relu_0.356_False_512_relu_0.2_adagrad_0.043_128_40'
p864
I00
sS'8_False_True_297_84_frequent_False_9_relu_0.223_False_512_relu_0.2_adagrad_0.06_128_40'
p865
I00
sS'22_False_False_224_60_compact_True_6_relu_0.222_False_512_relu_0.2_adagrad_0.021_128_40'
p866
I00
sS'28_False_True_339_32_frequent_False_11_relu_0.236_False_512_relu_0.2_adagrad_0.066_128_40'
p867
I00
sS'8_True_False_292_116_compact_False_10_relu_0.409_False_512_relu_0.2_adagrad_0.015_128_40'
p868
I00
sS'7_True_False_219_30_frequent_True_31_relu_0.537_False_512_relu_0.2_adagrad_0.042_128_40'
p869
I00
sS'9_True_False_300_108_frequent_False_16_relu_0.569_False_512_relu_0.2_adagrad_0.012_128_40'
p870
I00
sS'9_True_False_293_30_frequent_False_40_relu_0.299_False_512_relu_0.2_adagrad_0.011_128_40'
p871
I00
sS'26_True_False_426_57_frequent_True_16_relu_0.374_False_512_relu_0.2_adagrad_0.025_128_40'
p872
I00
sS'21_False_True_393_52_compact_True_27_relu_0.256_False_512_relu_0.2_adagrad_0.014_128_40'
p873
I00
sS'20_False_False_330_53_compact_True_26_relu_0.536_False_512_relu_0.2_adagrad_0.016_128_40'
p874
I00
sS'17_True_True_346_71_compact_True_7_relu_0.374_False_512_relu_0.2_adagrad_0.05_128_40'
p875
I00
sS'19_True_True_288_31_frequent_False_32_relu_0.232_False_512_relu_0.2_adagrad_0.023_128_40'
p876
I00
sS'9_True_True_336_137_compact_True_20_relu_0.391_False_512_relu_0.2_adagrad_0.035_128_40'
p877
I00
sS'23_True_True_423_67_frequent_True_15_relu_0.257_False_512_relu_0.2_adagrad_0.022_128_40'
p878
I00
sS'9_True_True_489_123_frequent_False_10_relu_0.227_False_512_relu_0.2_adagrad_0.025_128_40'
p879
I00
sS'18_False_False_286_59_compact_False_5_relu_0.411_False_512_relu_0.2_adagrad_0.044_128_40'
p880
I00
sS'18_True_False_253_25_compact_True_24_relu_0.274_False_512_relu_0.2_adagrad_0.02_128_40'
p881
I00
sS'7_True_True_301_30_frequent_True_38_relu_0.302_False_512_relu_0.2_adagrad_0.037_128_40'
p882
I00
sS'11_False_True_306_28_compact_False_55_relu_0.553_False_512_relu_0.2_adagrad_0.019_128_40'
p883
I00
sS'6_True_False_248_65_frequent_True_45_relu_0.258_False_512_relu_0.2_adagrad_0.06_128_40'
p884
I00
sS'21_False_False_387_59_frequent_False_24_relu_0.343_False_512_relu_0.2_adagrad_0.023_128_40'
p885
I00
sS'11_True_False_349_42_compact_True_18_relu_0.546_False_512_relu_0.2_adagrad_0.023_128_40'
p886
I00
sS'10_False_False_217_35_frequent_True_17_relu_0.302_False_512_relu_0.2_adagrad_0.016_128_40'
p887
I00
sS'8_False_True_215_54_frequent_False_47_relu_0.394_False_512_relu_0.2_adagrad_0.01_128_40'
p888
I00
sS'16_True_True_361_48_frequent_True_11_relu_0.221_False_512_relu_0.2_adagrad_0.022_128_40'
p889
I00
sS'25_False_False_211_99_compact_True_47_relu_0.501_False_512_relu_0.2_adagrad_0.011_128_40'
p890
I00
sS'23_False_True_221_42_frequent_True_11_relu_0.472_False_512_relu_0.2_adagrad_0.037_128_40'
p891
I00
sS'8_True_True_328_29_frequent_False_22_relu_0.241_False_512_relu_0.2_adagrad_0.014_128_40'
p892
I00
sS'34_True_False_276_120_compact_True_7_relu_0.256_False_512_relu_0.2_adagrad_0.058_128_40'
p893
I00
sS'8_False_False_238_86_frequent_True_6_relu_0.204_False_512_relu_0.2_adagrad_0.014_128_40'
p894
I00
sS'14_False_False_221_126_frequent_True_42_relu_0.281_False_512_relu_0.2_adagrad_0.049_128_40'
p895
I00
sS'18_True_False_326_25_frequent_True_6_relu_0.408_False_512_relu_0.2_adagrad_0.076_128_40'
p896
g29
sS'34_False_True_293_121_frequent_True_38_relu_0.481_False_512_relu_0.2_adagrad_0.014_128_40'
p897
I00
sS'10_True_True_295_45_frequent_False_11_relu_0.457_False_512_relu_0.2_adagrad_0.037_128_40'
p898
I00
sS'10_False_False_339_26_compact_False_5_relu_0.429_False_512_relu_0.2_adagrad_0.015_128_40'
p899
I00
sS'5_False_True_296_33_compact_False_25_relu_0.217_False_512_relu_0.2_adagrad_0.015_128_40'
p900
I00
sS'5_False_False_275_36_compact_False_9_relu_0.331_False_512_relu_0.2_adagrad_0.063_128_40'
p901
I00
sS'13_False_False_215_32_compact_True_8_relu_0.221_False_512_relu_0.2_adagrad_0.029_128_40'
p902
I00
sS'16_True_False_408_41_compact_False_61_relu_0.401_False_512_relu_0.2_adagrad_0.034_128_40'
p903
I00
sS'26_True_False_455_31_frequent_False_39_relu_0.41_False_512_relu_0.2_adagrad_0.023_128_40'
p904
I00
sS'18_True_False_375_58_compact_True_16_relu_0.305_False_512_relu_0.2_adagrad_0.044_128_40'
p905
I00
sS'6_True_False_200_37_compact_True_36_relu_0.226_False_512_relu_0.2_adagrad_0.02_128_40'
p906
I00
sS'29_False_False_414_41_frequent_True_7_relu_0.25_False_512_relu_0.2_adagrad_0.016_128_40'
p907
I00
sS'8_False_False_335_55_compact_True_44_relu_0.494_False_512_relu_0.2_adagrad_0.028_128_40'
p908
I00
sS'12_True_False_278_35_compact_False_20_relu_0.508_False_512_relu_0.2_adagrad_0.043_128_40'
p909
I00
sS'30_False_True_258_44_compact_True_23_relu_0.533_False_512_relu_0.2_adagrad_0.038_128_40'
p910
I00
sS'15_True_True_249_133_compact_True_56_relu_0.212_False_512_relu_0.2_adagrad_0.022_128_40'
p911
I00
sS'33_False_True_303_106_compact_False_5_relu_0.376_False_512_relu_0.2_adagrad_0.035_128_40'
p912
I00
sS'7_True_True_315_51_frequent_True_12_relu_0.246_False_512_relu_0.2_adagrad_0.012_128_40'
p913
g29
sS'7_True_True_356_62_compact_True_12_relu_0.384_False_512_relu_0.2_adagrad_0.024_128_40'
p914
I00
sS'34_False_True_206_72_frequent_True_5_relu_0.532_False_512_relu_0.2_adagrad_0.054_128_40'
p915
I00
sS'29_False_False_251_100_compact_False_12_relu_0.264_False_512_relu_0.2_adagrad_0.027_128_40'
p916
I00
sS'7_True_False_406_30_frequent_True_12_relu_0.479_False_512_relu_0.2_adagrad_0.084_128_40'
p917
I00
sS'5_True_False_416_105_compact_True_57_relu_0.513_False_512_relu_0.2_adagrad_0.022_128_40'
p918
I00
sS'11_False_True_320_123_compact_False_39_relu_0.223_False_512_relu_0.2_adagrad_0.02_128_40'
p919
I00
sS'9_True_True_202_100_compact_False_18_relu_0.361_False_512_relu_0.2_adagrad_0.041_128_40'
p920
I00
sS'15_False_False_408_70_compact_True_24_relu_0.302_False_512_relu_0.2_adagrad_0.07_128_40'
p921
I00
sS'7_True_True_206_101_compact_False_19_relu_0.342_False_512_relu_0.2_adagrad_0.024_128_40'
p922
I00
sS'20_True_False_295_74_compact_False_21_relu_0.256_False_512_relu_0.2_adagrad_0.013_128_40'
p923
I00
sS'19_True_True_237_96_frequent_True_39_relu_0.249_False_512_relu_0.2_adagrad_0.089_128_40'
p924
I00
sS'14_False_False_423_88_compact_False_12_relu_0.223_False_512_relu_0.2_adagrad_0.07_128_40'
p925
I00
sS'9_False_False_243_77_frequent_False_20_relu_0.313_False_512_relu_0.2_adagrad_0.016_128_40'
p926
I00
sS'15_True_False_271_68_frequent_False_10_relu_0.247_False_512_relu_0.2_adagrad_0.051_128_40'
p927
I00
sS'5_False_True_257_107_compact_False_12_relu_0.449_False_512_relu_0.2_adagrad_0.01_128_40'
p928
I00
sS'19_False_True_438_71_frequent_False_21_relu_0.474_False_512_relu_0.2_adagrad_0.068_128_40'
p929
I00
sS'7_False_False_421_89_frequent_False_39_relu_0.252_False_512_relu_0.2_adagrad_0.012_128_40'
p930
I00
sS'24_False_False_351_101_frequent_False_12_relu_0.252_False_512_relu_0.2_adagrad_0.054_128_40'
p931
g29
sS'28_False_False_214_66_frequent_True_9_relu_0.269_False_512_relu_0.2_adagrad_0.028_128_40'
p932
I00
sS'18_True_True_314_144_frequent_True_33_relu_0.555_False_512_relu_0.2_adagrad_0.071_128_40'
p933
I00
sS'19_True_False_375_36_frequent_True_19_relu_0.292_False_512_relu_0.2_adagrad_0.038_128_40'
p934
I00
sS'14_False_True_317_98_compact_True_41_relu_0.549_False_512_relu_0.2_adagrad_0.034_128_40'
p935
I00
sS'8_False_False_336_77_frequent_True_23_relu_0.555_False_512_relu_0.2_adagrad_0.079_128_40'
p936
I00
sS'5_True_False_280_51_frequent_False_19_relu_0.306_False_512_relu_0.2_adagrad_0.016_128_40'
p937
I00
sS'27_False_False_479_76_compact_True_61_relu_0.443_False_512_relu_0.2_adagrad_0.027_128_40'
p938
I00
sS'7_False_True_472_93_frequent_True_8_relu_0.228_False_512_relu_0.2_adagrad_0.079_128_40'
p939
I00
sS'6_False_True_484_74_frequent_True_9_relu_0.521_False_512_relu_0.2_adagrad_0.022_128_40'
p940
I00
sS'28_False_True_342_26_compact_False_9_relu_0.496_False_512_relu_0.2_adagrad_0.038_128_40'
p941
g29
sS'15_True_True_498_39_frequent_False_6_relu_0.506_False_512_relu_0.2_adagrad_0.025_128_40'
p942
I00
sS'9_True_True_348_112_compact_True_16_relu_0.592_False_512_relu_0.2_adagrad_0.063_128_40'
p943
I00
sS'6_True_False_260_55_compact_True_24_relu_0.53_False_512_relu_0.2_adagrad_0.06_128_40'
p944
I00
sS'20_False_True_400_36_compact_False_41_relu_0.551_False_512_relu_0.2_adagrad_0.027_128_40'
p945
I00
sS'19_False_True_297_149_frequent_True_5_relu_0.474_False_512_relu_0.2_adagrad_0.083_128_40'
p946
I00
sS'10_True_True_288_113_frequent_True_8_relu_0.555_False_512_relu_0.2_adagrad_0.08_128_40'
p947
I00
sS'10_False_True_373_140_frequent_False_24_relu_0.489_False_512_relu_0.2_adagrad_0.027_128_40'
p948
I00
sS'8_True_True_481_45_frequent_False_23_relu_0.246_False_512_relu_0.2_adagrad_0.044_128_40'
p949
I00
sS'9_True_True_420_68_frequent_True_15_relu_0.424_False_512_relu_0.2_adagrad_0.045_128_40'
p950
I00
sS'6_True_False_486_67_frequent_True_10_relu_0.407_False_512_relu_0.2_adagrad_0.012_128_40'
p951
I00
sS'33_False_True_406_70_frequent_True_16_relu_0.344_False_512_relu_0.2_adagrad_0.039_128_40'
p952
I00
sS'13_False_False_437_59_frequent_True_39_relu_0.407_False_512_relu_0.2_adagrad_0.076_128_40'
p953
I00
sS'16_True_False_343_48_compact_True_27_relu_0.592_False_512_relu_0.2_adagrad_0.013_128_40'
p954
I00
sS'6_True_False_203_123_frequent_True_16_relu_0.45_False_512_relu_0.2_adagrad_0.05_128_40'
p955
I00
sS'28_False_True_213_117_frequent_False_5_relu_0.206_False_512_relu_0.2_adagrad_0.026_128_40'
p956
I00
sS'23_True_True_262_52_frequent_False_35_relu_0.456_False_512_relu_0.2_adagrad_0.043_128_40'
p957
I00
sS'7_False_True_464_40_frequent_True_7_relu_0.589_False_512_relu_0.2_adagrad_0.06_128_40'
p958
I00
sS'30_False_False_239_128_compact_True_21_relu_0.345_False_512_relu_0.2_adagrad_0.026_128_40'
p959
I00
sS'20_True_True_259_105_compact_False_21_relu_0.462_False_512_relu_0.2_adagrad_0.014_128_40'
p960
I00
sS'7_False_True_485_72_compact_True_13_relu_0.347_False_512_relu_0.2_adagrad_0.041_128_40'
p961
I00
sS'7_True_True_282_34_frequent_True_9_relu_0.472_False_512_relu_0.2_adagrad_0.014_128_40'
p962
I00
sS'31_True_True_383_108_frequent_False_23_relu_0.329_False_512_relu_0.2_adagrad_0.029_128_40'
p963
I00
sS'5_True_True_205_36_frequent_True_25_relu_0.22_False_512_relu_0.2_adagrad_0.02_128_40'
p964
I00
sS'13_False_True_345_66_frequent_False_23_relu_0.502_False_512_relu_0.2_adagrad_0.015_128_40'
p965
I00
sS'9_True_True_390_70_compact_False_11_relu_0.22_False_512_relu_0.2_adagrad_0.021_128_40'
p966
I00
sS'5_True_False_307_25_compact_False_15_relu_0.268_False_512_relu_0.2_adagrad_0.047_128_40'
p967
I00
sS'12_False_False_495_145_compact_True_10_relu_0.237_False_512_relu_0.2_adagrad_0.013_128_40'
p968
g29
sS'16_True_True_392_40_frequent_True_10_relu_0.55_False_512_relu_0.2_adagrad_0.025_128_40'
p969
I00
sS'34_True_False_391_87_compact_True_34_relu_0.494_False_512_relu_0.2_adagrad_0.01_128_40'
p970
I00
sS'25_False_True_465_118_frequent_True_9_relu_0.348_False_512_relu_0.2_adagrad_0.028_128_40'
p971
I00
sS'5_False_False_290_36_compact_True_32_relu_0.452_False_512_relu_0.2_adagrad_0.06_128_40'
p972
I00
sS'20_False_True_218_40_compact_False_30_relu_0.4_False_512_relu_0.2_adagrad_0.019_128_40'
p973
I00
sS'20_True_True_413_74_frequent_True_6_relu_0.521_False_512_relu_0.2_adagrad_0.068_128_40'
p974
I00
sS'29_True_False_306_27_compact_False_34_relu_0.254_False_512_relu_0.2_adagrad_0.036_128_40'
p975
I00
sS'16_True_False_424_84_compact_True_5_relu_0.298_False_512_relu_0.2_adagrad_0.079_128_40'
p976
I00
sS'9_True_False_240_32_frequent_True_21_relu_0.316_False_512_relu_0.2_adagrad_0.013_128_40'
p977
I00
sS'16_True_True_475_99_compact_True_8_relu_0.58_False_512_relu_0.2_adagrad_0.065_128_40'
p978
I00
sS'24_True_False_205_40_frequent_False_6_relu_0.31_False_512_relu_0.2_adagrad_0.01_128_40'
p979
I00
sS'18_False_True_369_40_frequent_True_44_relu_0.259_False_512_relu_0.2_adagrad_0.051_128_40'
p980
I00
sS'18_True_False_280_133_frequent_True_53_relu_0.217_False_512_relu_0.2_adagrad_0.056_128_40'
p981
I00
sS'21_True_True_232_54_compact_False_10_relu_0.479_False_512_relu_0.2_adagrad_0.013_128_40'
p982
I00
sS'16_True_False_452_70_compact_False_36_relu_0.591_False_512_relu_0.2_adagrad_0.01_128_40'
p983
I00
sS'27_False_True_204_120_frequent_False_28_relu_0.258_False_512_relu_0.2_adagrad_0.046_128_40'
p984
I00
sS'26_True_True_342_42_frequent_True_13_relu_0.359_False_512_relu_0.2_adagrad_0.059_128_40'
p985
I00
sS'33_True_False_225_57_frequent_True_17_relu_0.25_False_512_relu_0.2_adagrad_0.039_128_40'
p986
I00
sS'29_False_True_407_47_compact_False_11_relu_0.256_False_512_relu_0.2_adagrad_0.015_128_40'
p987
I00
sS'23_False_False_226_37_frequent_True_21_relu_0.242_False_512_relu_0.2_adagrad_0.022_128_40'
p988
I00
sS'6_False_True_442_27_frequent_False_8_relu_0.451_False_512_relu_0.2_adagrad_0.074_128_40'
p989
I00
sS'19_False_True_441_105_frequent_True_7_relu_0.326_False_512_relu_0.2_adagrad_0.05_128_40'
p990
I00
sS'25_True_True_493_52_frequent_True_6_relu_0.241_False_512_relu_0.2_adagrad_0.019_128_40'
p991
I00
sS'26_False_False_423_63_compact_True_14_relu_0.232_False_512_relu_0.2_adagrad_0.05_128_40'
p992
I00
sS'16_True_False_316_59_frequent_True_50_relu_0.245_False_512_relu_0.2_adagrad_0.011_128_40'
p993
g29
sS'16_True_True_450_87_frequent_False_48_relu_0.217_False_512_relu_0.2_adagrad_0.035_128_40'
p994
I00
sS'15_True_False_211_33_compact_False_13_relu_0.305_False_512_relu_0.2_adagrad_0.069_128_40'
p995
I00
sS'13_False_False_386_100_compact_True_32_relu_0.453_False_512_relu_0.2_adagrad_0.031_128_40'
p996
I00
sS'29_True_False_292_33_frequent_True_13_relu_0.513_False_512_relu_0.2_adagrad_0.022_128_40'
p997
I00
sS'17_True_False_346_138_frequent_False_17_relu_0.319_False_512_relu_0.2_adagrad_0.04_128_40'
p998
I00
sS'5_True_False_378_97_compact_False_13_relu_0.224_False_512_relu_0.2_adagrad_0.087_128_40'
p999
I00
sS'13_False_False_427_28_compact_True_40_relu_0.342_False_512_relu_0.2_adagrad_0.024_128_40'
p1000
I00
sS'26_False_True_367_86_frequent_True_10_relu_0.406_False_512_relu_0.2_adagrad_0.045_128_40'
p1001
I00
s.