(dp0
I0
(lp1
I00
a(dp2
S'posDim'
p3
I96
sS's1TokenNum'
p4
I2
sS'shuffle'
p5
I00
sS'wordDim'
p6
I217
sS'denseDropout'
p7
F0.3
sS'focusedElements'
p8
I7
sS'batchSize'
p9
I16
sS's0TokenNum'
p10
I4
sS'epochs'
p11
I20
sS'denseUnitNum'
p12
I5
sS'wordRnnUnitNum'
p13
I73
sS'gru'
p14
I01
sS'lr'
p15
F0.05
sS'rnnSequence'
p16
I00
sS'useDense'
p17
I01
sS'compactVocab'
p18
I01
sS'rnnDropout'
p19
F0.3
sS'bTokenNum'
p20
I1
sS'posRnnUnitNum'
p21
I44
sS'optimizer'
p22
S'adagrad'
p23
sS'earlyStop'
p24
I01
sasI1
(lp25
I00
a(dp26
g3
I72
sg4
I2
sg5
I00
sg6
I229
sg7
F0.2
sg8
I7
sg9
I64
sg10
I4
sg11
I20
sg12
I52
sg13
I20
sg14
I01
sg15
F0.05
sg16
I00
sg17
I01
sg18
I01
sg19
F0.3
sg20
I1
sg21
I47
sg22
g23
sg24
I01
sasI2
(lp27
I00
a(dp28
g3
I92
sg4
I2
sg5
I00
sg6
I470
sg7
F0.3
sg8
I7
sg9
I16
sg10
I4
sg11
I20
sg12
I72
sg13
I53
sg14
I01
sg15
F0.05
sg16
I00
sg17
I01
sg18
I01
sg19
F0.1
sg20
I1
sg21
I36
sg22
g23
sg24
I01
sasI3
(lp29
I00
a(dp30
g3
I71
sg4
I2
sg5
I00
sg6
I488
sg7
F0.1
sg8
I7
sg9
I32
sg10
I4
sg11
I20
sg12
I45
sg13
I83
sg14
I01
sg15
F0.05
sg16
I00
sg17
I01
sg18
I01
sg19
F0.3
sg20
I1
sg21
I20
sg22
g23
sg24
I01
sasI4
(lp31
I00
a(dp32
g3
I62
sg4
I2
sg5
I00
sg6
I331
sg7
F0.1
sg8
I7
sg9
I16
sg10
I4
sg11
I20
sg12
I78
sg13
I37
sg14
I01
sg15
F0.05
sg16
I00
sg17
I01
sg18
I01
sg19
F0.2
sg20
I1
sg21
I43
sg22
g23
sg24
I01
sasI5
(lp33
I00
a(dp34
g3
I22
sg4
I2
sg5
I00
sg6
I305
sg7
F0.3
sg8
I7
sg9
I16
sg10
I4
sg11
I20
sg12
I94
sg13
I61
sg14
I01
sg15
F0.05
sg16
I00
sg17
I01
sg18
I01
sg19
F0.1
sg20
I1
sg21
I11
sg22
g23
sg24
I01
sasI6
(lp35
I00
a(dp36
g3
I95
sg4
I2
sg5
I00
sg6
I254
sg7
F0.4
sg8
I7
sg9
I32
sg10
I4
sg11
I20
sg12
I37
sg13
I91
sg14
I01
sg15
F0.05
sg16
I00
sg17
I01
sg18
I01
sg19
F0.3
sg20
I1
sg21
I43
sg22
g23
sg24
I01
sasI7
(lp37
I00
a(dp38
g3
I56
sg4
I2
sg5
I00
sg6
I330
sg7
F0.4
sg8
I7
sg9
I32
sg10
I4
sg11
I20
sg12
I82
sg13
I79
sg14
I01
sg15
F0.05
sg16
I00
sg17
I01
sg18
I01
sg19
F0.1
sg20
I1
sg21
I15
sg22
g23
sg24
I01
sasI8
(lp39
I00
a(dp40
g3
I48
sg4
I2
sg5
I00
sg6
I236
sg7
F0.1
sg8
I7
sg9
I128
sg10
I4
sg11
I20
sg12
I91
sg13
I76
sg14
I01
sg15
F0.05
sg16
I00
sg17
I01
sg18
I01
sg19
F0.3
sg20
I1
sg21
I22
sg22
g23
sg24
I01
sasI9
(lp41
I00
a(dp42
g3
I73
sg4
I2
sg5
I00
sg6
I309
sg7
F0.2
sg8
I7
sg9
I128
sg10
I4
sg11
I20
sg12
I45
sg13
I68
sg14
I01
sg15
F0.05
sg16
I00
sg17
I01
sg18
I01
sg19
F0.3
sg20
I1
sg21
I49
sg22
g23
sg24
I01
sasI10
(lp43
I00
a(dp44
g3
I46
sg4
I2
sg5
I00
sg6
I300
sg7
F0.2
sg8
I7
sg9
I32
sg10
I4
sg11
I20
sg12
I47
sg13
I8
sg14
I01
sg15
F0.05
sg16
I00
sg17
I01
sg18
I01
sg19
F0.2
sg20
I1
sg21
I44
sg22
g23
sg24
I01
sasI11
(lp45
I00
a(dp46
g3
I23
sg4
I2
sg5
I00
sg6
I304
sg7
F0.1
sg8
I7
sg9
I64
sg10
I4
sg11
I20
sg12
I80
sg13
I12
sg14
I01
sg15
F0.05
sg16
I00
sg17
I01
sg18
I01
sg19
F0.2
sg20
I1
sg21
I25
sg22
g23
sg24
I01
sasI12
(lp47
I00
a(dp48
g3
I34
sg4
I2
sg5
I00
sg6
I278
sg7
F0.2
sg8
I7
sg9
I64
sg10
I4
sg11
I20
sg12
I67
sg13
I10
sg14
I01
sg15
F0.05
sg16
I00
sg17
I01
sg18
I01
sg19
F0.2
sg20
I1
sg21
I33
sg22
g23
sg24
I01
sasI13
(lp49
I00
a(dp50
g3
I94
sg4
I2
sg5
I00
sg6
I249
sg7
F0.1
sg8
I7
sg9
I128
sg10
I4
sg11
I20
sg12
I84
sg13
I93
sg14
I01
sg15
F0.05
sg16
I00
sg17
I01
sg18
I01
sg19
F0.4
sg20
I1
sg21
I37
sg22
g23
sg24
I01
sasI14
(lp51
I00
a(dp52
g3
I62
sg4
I2
sg5
I00
sg6
I264
sg7
F0.3
sg8
I7
sg9
I64
sg10
I4
sg11
I20
sg12
I36
sg13
I98
sg14
I01
sg15
F0.05
sg16
I00
sg17
I01
sg18
I01
sg19
F0.1
sg20
I1
sg21
I36
sg22
g23
sg24
I01
sasI15
(lp53
I00
a(dp54
g3
I55
sg4
I2
sg5
I00
sg6
I343
sg7
F0.1
sg8
I7
sg9
I32
sg10
I4
sg11
I20
sg12
I76
sg13
I56
sg14
I01
sg15
F0.05
sg16
I00
sg17
I01
sg18
I01
sg19
F0.2
sg20
I1
sg21
I44
sg22
g23
sg24
I01
sasI16
(lp55
I00
a(dp56
g3
I51
sg4
I2
sg5
I00
sg6
I366
sg7
F0.1
sg8
I7
sg9
I32
sg10
I4
sg11
I20
sg12
I46
sg13
I50
sg14
I01
sg15
F0.05
sg16
I00
sg17
I01
sg18
I01
sg19
F0.0
sg20
I1
sg21
I48
sg22
g23
sg24
I01
sasI17
(lp57
I00
a(dp58
g3
I94
sg4
I2
sg5
I00
sg6
I263
sg7
F0.2
sg8
I7
sg9
I16
sg10
I4
sg11
I20
sg12
I72
sg13
I23
sg14
I01
sg15
F0.05
sg16
I00
sg17
I01
sg18
I01
sg19
F0.0
sg20
I1
sg21
I33
sg22
g23
sg24
I01
sasI18
(lp59
I00
a(dp60
g3
I45
sg4
I2
sg5
I00
sg6
I385
sg7
F0.2
sg8
I7
sg9
I16
sg10
I4
sg11
I20
sg12
I92
sg13
I64
sg14
I01
sg15
F0.05
sg16
I00
sg17
I01
sg18
I01
sg19
F0.2
sg20
I1
sg21
I5
sg22
g23
sg24
I01
sasI19
(lp61
I00
a(dp62
g3
I14
sg4
I2
sg5
I00
sg6
I326
sg7
F0.0
sg8
I7
sg9
I128
sg10
I4
sg11
I20
sg12
I21
sg13
I40
sg14
I01
sg15
F0.05
sg16
I00
sg17
I01
sg18
I01
sg19
F0.4
sg20
I1
sg21
I24
sg22
g23
sg24
I01
sasI20
(lp63
I01
a(dp64
g3
I26
sg4
I2
sg5
I00
sg6
I390
sg7
F0.2
sg8
I7
sg9
I32
sg10
I4
sg11
I20
sg12
I72
sg13
I63
sg14
I01
sg15
F0.05
sg16
I00
sg17
I01
sg18
I01
sg19
F0.0
sg20
I1
sg21
I30
sg22
g23
sg24
I01
sasI21
(lp65
I00
a(dp66
g3
I25
sg4
I2
sg5
I00
sg6
I336
sg7
F0.2
sg8
I7
sg9
I128
sg10
I4
sg11
I20
sg12
I60
sg13
I39
sg14
I01
sg15
F0.05
sg16
I00
sg17
I01
sg18
I01
sg19
F0.3
sg20
I1
sg21
I46
sg22
g23
sg24
I01
sasI22
(lp67
I00
a(dp68
g3
I84
sg4
I2
sg5
I00
sg6
I431
sg7
F0.0
sg8
I7
sg9
I16
sg10
I4
sg11
I20
sg12
I9
sg13
I7
sg14
I01
sg15
F0.05
sg16
I00
sg17
I01
sg18
I01
sg19
F0.0
sg20
I1
sg21
I44
sg22
g23
sg24
I01
sasI23
(lp69
I00
a(dp70
g3
I33
sg4
I2
sg5
I00
sg6
I373
sg7
F0.2
sg8
I7
sg9
I64
sg10
I4
sg11
I20
sg12
I17
sg13
I39
sg14
I01
sg15
F0.05
sg16
I00
sg17
I01
sg18
I01
sg19
F0.2
sg20
I1
sg21
I15
sg22
g23
sg24
I01
sasI24
(lp71
I00
a(dp72
g3
I45
sg4
I2
sg5
I00
sg6
I291
sg7
F0.3
sg8
I7
sg9
I16
sg10
I4
sg11
I20
sg12
I64
sg13
I5
sg14
I01
sg15
F0.05
sg16
I00
sg17
I01
sg18
I01
sg19
F0.1
sg20
I1
sg21
I10
sg22
g23
sg24
I01
sasI25
(lp73
I00
a(dp74
g3
I63
sg4
I2
sg5
I00
sg6
I219
sg7
F0.3
sg8
I7
sg9
I16
sg10
I4
sg11
I20
sg12
I23
sg13
I93
sg14
I01
sg15
F0.05
sg16
I00
sg17
I01
sg18
I01
sg19
F0.0
sg20
I1
sg21
I36
sg22
g23
sg24
I01
sasI26
(lp75
I00
a(dp76
g3
I84
sg4
I2
sg5
I00
sg6
I460
sg7
F0.1
sg8
I7
sg9
I64
sg10
I4
sg11
I20
sg12
I29
sg13
I20
sg14
I01
sg15
F0.05
sg16
I00
sg17
I01
sg18
I01
sg19
F0.2
sg20
I1
sg21
I9
sg22
g23
sg24
I01
sasI27
(lp77
I00
a(dp78
g3
I62
sg4
I2
sg5
I00
sg6
I329
sg7
F0.0
sg8
I7
sg9
I32
sg10
I4
sg11
I20
sg12
I79
sg13
I11
sg14
I01
sg15
F0.05
sg16
I00
sg17
I01
sg18
I01
sg19
F0.2
sg20
I1
sg21
I22
sg22
g23
sg24
I01
sasI28
(lp79
I00
a(dp80
g3
I70
sg4
I2
sg5
I00
sg6
I263
sg7
F0.3
sg8
I7
sg9
I32
sg10
I4
sg11
I20
sg12
I9
sg13
I22
sg14
I01
sg15
F0.05
sg16
I00
sg17
I01
sg18
I01
sg19
F0.3
sg20
I1
sg21
I44
sg22
g23
sg24
I01
sasI29
(lp81
I00
a(dp82
g3
I50
sg4
I2
sg5
I00
sg6
I212
sg7
F0.2
sg8
I7
sg9
I64
sg10
I4
sg11
I20
sg12
I13
sg13
I44
sg14
I01
sg15
F0.05
sg16
I00
sg17
I01
sg18
I01
sg19
F0.2
sg20
I1
sg21
I31
sg22
g23
sg24
I01
sasI30
(lp83
I00
a(dp84
g3
I66
sg4
I2
sg5
I00
sg6
I407
sg7
F0.3
sg8
I7
sg9
I64
sg10
I4
sg11
I20
sg12
I78
sg13
I29
sg14
I01
sg15
F0.05
sg16
I00
sg17
I01
sg18
I01
sg19
F0.3
sg20
I1
sg21
I26
sg22
g23
sg24
I01
sasI31
(lp85
I00
a(dp86
g3
I70
sg4
I2
sg5
I00
sg6
I350
sg7
F0.2
sg8
I7
sg9
I64
sg10
I4
sg11
I20
sg12
I75
sg13
I32
sg14
I01
sg15
F0.05
sg16
I00
sg17
I01
sg18
I01
sg19
F0.2
sg20
I1
sg21
I18
sg22
g23
sg24
I01
sasI32
(lp87
I00
a(dp88
g3
I10
sg4
I2
sg5
I00
sg6
I428
sg7
F0.3
sg8
I7
sg9
I16
sg10
I4
sg11
I20
sg12
I55
sg13
I89
sg14
I01
sg15
F0.05
sg16
I00
sg17
I01
sg18
I01
sg19
F0.4
sg20
I1
sg21
I27
sg22
g23
sg24
I01
sasI33
(lp89
I00
a(dp90
g3
I35
sg4
I2
sg5
I00
sg6
I371
sg7
F0.4
sg8
I7
sg9
I32
sg10
I4
sg11
I20
sg12
I14
sg13
I43
sg14
I01
sg15
F0.05
sg16
I00
sg17
I01
sg18
I01
sg19
F0.3
sg20
I1
sg21
I29
sg22
g23
sg24
I01
sasI34
(lp91
I00
a(dp92
g3
I53
sg4
I2
sg5
I00
sg6
I411
sg7
F0.3
sg8
I7
sg9
I64
sg10
I4
sg11
I20
sg12
I15
sg13
I27
sg14
I01
sg15
F0.05
sg16
I00
sg17
I01
sg18
I01
sg19
F0.1
sg20
I1
sg21
I36
sg22
g23
sg24
I01
sasI35
(lp93
I00
a(dp94
g3
I74
sg4
I2
sg5
I00
sg6
I387
sg7
F0.4
sg8
I7
sg9
I16
sg10
I4
sg11
I20
sg12
I12
sg13
I84
sg14
I01
sg15
F0.05
sg16
I00
sg17
I01
sg18
I01
sg19
F0.4
sg20
I1
sg21
I7
sg22
g23
sg24
I01
sasI36
(lp95
I00
a(dp96
g3
I13
sg4
I2
sg5
I00
sg6
I266
sg7
F0.4
sg8
I7
sg9
I32
sg10
I4
sg11
I20
sg12
I10
sg13
I86
sg14
I01
sg15
F0.05
sg16
I00
sg17
I01
sg18
I01
sg19
F0.1
sg20
I1
sg21
I22
sg22
g23
sg24
I01
sasI37
(lp97
I00
a(dp98
g3
I95
sg4
I2
sg5
I00
sg6
I490
sg7
F0.4
sg8
I7
sg9
I128
sg10
I4
sg11
I20
sg12
I62
sg13
I98
sg14
I01
sg15
F0.05
sg16
I00
sg17
I01
sg18
I01
sg19
F0.0
sg20
I1
sg21
I25
sg22
g23
sg24
I01
sasI38
(lp99
I00
a(dp100
g3
I22
sg4
I2
sg5
I00
sg6
I309
sg7
F0.3
sg8
I7
sg9
I16
sg10
I4
sg11
I20
sg12
I66
sg13
I37
sg14
I01
sg15
F0.05
sg16
I00
sg17
I01
sg18
I01
sg19
F0.3
sg20
I1
sg21
I11
sg22
g23
sg24
I01
sasI39
(lp101
I00
a(dp102
g3
I39
sg4
I2
sg5
I00
sg6
I252
sg7
F0.2
sg8
I7
sg9
I32
sg10
I4
sg11
I20
sg12
I52
sg13
I37
sg14
I01
sg15
F0.05
sg16
I00
sg17
I01
sg18
I01
sg19
F0.3
sg20
I1
sg21
I10
sg22
g23
sg24
I01
sasI40
(lp103
I00
a(dp104
g3
I28
sg4
I2
sg5
I00
sg6
I359
sg7
F0.3
sg8
I7
sg9
I32
sg10
I4
sg11
I20
sg12
I39
sg13
I63
sg14
I01
sg15
F0.05
sg16
I00
sg17
I01
sg18
I01
sg19
F0.1
sg20
I1
sg21
I21
sg22
g23
sg24
I01
sasI41
(lp105
I00
a(dp106
g3
I86
sg4
I2
sg5
I00
sg6
I495
sg7
F0.3
sg8
I7
sg9
I16
sg10
I4
sg11
I20
sg12
I76
sg13
I54
sg14
I01
sg15
F0.05
sg16
I00
sg17
I01
sg18
I01
sg19
F0.1
sg20
I1
sg21
I24
sg22
g23
sg24
I01
sasI42
(lp107
I00
a(dp108
g3
I72
sg4
I2
sg5
I00
sg6
I326
sg7
F0.1
sg8
I7
sg9
I128
sg10
I4
sg11
I20
sg12
I9
sg13
I75
sg14
I01
sg15
F0.05
sg16
I00
sg17
I01
sg18
I01
sg19
F0.1
sg20
I1
sg21
I32
sg22
g23
sg24
I01
sasI43
(lp109
I00
a(dp110
g3
I45
sg4
I2
sg5
I00
sg6
I251
sg7
F0.2
sg8
I7
sg9
I16
sg10
I4
sg11
I20
sg12
I67
sg13
I30
sg14
I01
sg15
F0.05
sg16
I00
sg17
I01
sg18
I01
sg19
F0.0
sg20
I1
sg21
I15
sg22
g23
sg24
I01
sasI44
(lp111
I00
a(dp112
g3
I81
sg4
I2
sg5
I00
sg6
I459
sg7
F0.1
sg8
I7
sg9
I16
sg10
I4
sg11
I20
sg12
I5
sg13
I74
sg14
I01
sg15
F0.05
sg16
I00
sg17
I01
sg18
I01
sg19
F0.0
sg20
I1
sg21
I18
sg22
g23
sg24
I01
sasI45
(lp113
I00
a(dp114
g3
I36
sg4
I2
sg5
I00
sg6
I289
sg7
F0.1
sg8
I7
sg9
I64
sg10
I4
sg11
I20
sg12
I8
sg13
I81
sg14
I01
sg15
F0.05
sg16
I00
sg17
I01
sg18
I01
sg19
F0.3
sg20
I1
sg21
I43
sg22
g23
sg24
I01
sasI46
(lp115
I00
a(dp116
g3
I70
sg4
I2
sg5
I00
sg6
I202
sg7
F0.4
sg8
I7
sg9
I64
sg10
I4
sg11
I20
sg12
I88
sg13
I75
sg14
I01
sg15
F0.05
sg16
I00
sg17
I01
sg18
I01
sg19
F0.2
sg20
I1
sg21
I11
sg22
g23
sg24
I01
sasI47
(lp117
I00
a(dp118
g3
I27
sg4
I2
sg5
I00
sg6
I469
sg7
F0.4
sg8
I7
sg9
I64
sg10
I4
sg11
I20
sg12
I83
sg13
I90
sg14
I01
sg15
F0.05
sg16
I00
sg17
I01
sg18
I01
sg19
F0.1
sg20
I1
sg21
I28
sg22
g23
sg24
I01
sasI48
(lp119
I00
a(dp120
g3
I49
sg4
I2
sg5
I00
sg6
I316
sg7
F0.3
sg8
I7
sg9
I32
sg10
I4
sg11
I20
sg12
I97
sg13
I59
sg14
I01
sg15
F0.05
sg16
I00
sg17
I01
sg18
I01
sg19
F0.2
sg20
I1
sg21
I16
sg22
g23
sg24
I01
sasI49
(lp121
I00
a(dp122
g3
I84
sg4
I2
sg5
I00
sg6
I285
sg7
F0.1
sg8
I7
sg9
I64
sg10
I4
sg11
I20
sg12
I36
sg13
I12
sg14
I01
sg15
F0.05
sg16
I00
sg17
I01
sg18
I01
sg19
F0.3
sg20
I1
sg21
I33
sg22
g23
sg24
I01
sasI50
(lp123
I00
a(dp124
g3
I51
sg4
I2
sg5
I00
sg6
I427
sg7
F0.2
sg8
I7
sg9
I32
sg10
I4
sg11
I20
sg12
I37
sg13
I14
sg14
I01
sg15
F0.05
sg16
I00
sg17
I01
sg18
I01
sg19
F0.3
sg20
I1
sg21
I28
sg22
g23
sg24
I01
sasI51
(lp125
I00
a(dp126
g3
I62
sg4
I2
sg5
I00
sg6
I404
sg7
F0.3
sg8
I7
sg9
I64
sg10
I4
sg11
I20
sg12
I68
sg13
I92
sg14
I01
sg15
F0.05
sg16
I00
sg17
I01
sg18
I01
sg19
F0.4
sg20
I1
sg21
I22
sg22
g23
sg24
I01
sasI52
(lp127
I00
a(dp128
g3
I18
sg4
I2
sg5
I00
sg6
I446
sg7
F0.2
sg8
I7
sg9
I64
sg10
I4
sg11
I20
sg12
I82
sg13
I6
sg14
I01
sg15
F0.05
sg16
I00
sg17
I01
sg18
I01
sg19
F0.4
sg20
I1
sg21
I12
sg22
g23
sg24
I01
sasI53
(lp129
I00
a(dp130
g3
I73
sg4
I2
sg5
I00
sg6
I367
sg7
F0.2
sg8
I7
sg9
I128
sg10
I4
sg11
I20
sg12
I61
sg13
I21
sg14
I01
sg15
F0.05
sg16
I00
sg17
I01
sg18
I01
sg19
F0.2
sg20
I1
sg21
I19
sg22
g23
sg24
I01
sasI54
(lp131
I00
a(dp132
g3
I33
sg4
I2
sg5
I00
sg6
I280
sg7
F0.1
sg8
I7
sg9
I32
sg10
I4
sg11
I20
sg12
I87
sg13
I85
sg14
I01
sg15
F0.05
sg16
I00
sg17
I01
sg18
I01
sg19
F0.4
sg20
I1
sg21
I31
sg22
g23
sg24
I01
sasI55
(lp133
I00
a(dp134
g3
I99
sg4
I2
sg5
I00
sg6
I290
sg7
F0.4
sg8
I7
sg9
I32
sg10
I4
sg11
I20
sg12
I88
sg13
I76
sg14
I01
sg15
F0.05
sg16
I00
sg17
I01
sg18
I01
sg19
F0.3
sg20
I1
sg21
I25
sg22
g23
sg24
I01
sasI56
(lp135
I00
a(dp136
g3
I15
sg4
I2
sg5
I00
sg6
I444
sg7
F0.2
sg8
I7
sg9
I128
sg10
I4
sg11
I20
sg12
I54
sg13
I53
sg14
I01
sg15
F0.05
sg16
I00
sg17
I01
sg18
I01
sg19
F0.2
sg20
I1
sg21
I26
sg22
g23
sg24
I01
sasI57
(lp137
I00
a(dp138
g3
I89
sg4
I2
sg5
I00
sg6
I343
sg7
F0.1
sg8
I7
sg9
I64
sg10
I4
sg11
I20
sg12
I49
sg13
I15
sg14
I01
sg15
F0.05
sg16
I00
sg17
I01
sg18
I01
sg19
F0.2
sg20
I1
sg21
I15
sg22
g23
sg24
I01
sasI58
(lp139
I00
a(dp140
g3
I71
sg4
I2
sg5
I00
sg6
I261
sg7
F0.3
sg8
I7
sg9
I32
sg10
I4
sg11
I20
sg12
I12
sg13
I26
sg14
I01
sg15
F0.05
sg16
I00
sg17
I01
sg18
I01
sg19
F0.3
sg20
I1
sg21
I39
sg22
g23
sg24
I01
sasI59
(lp141
I00
a(dp142
g3
I60
sg4
I2
sg5
I00
sg6
I349
sg7
F0.4
sg8
I7
sg9
I64
sg10
I4
sg11
I20
sg12
I73
sg13
I68
sg14
I01
sg15
F0.05
sg16
I00
sg17
I01
sg18
I01
sg19
F0.4
sg20
I1
sg21
I19
sg22
g23
sg24
I01
sasI60
(lp143
I00
a(dp144
g3
I40
sg4
I2
sg5
I00
sg6
I433
sg7
F0.3
sg8
I7
sg9
I128
sg10
I4
sg11
I20
sg12
I92
sg13
I83
sg14
I01
sg15
F0.05
sg16
I00
sg17
I01
sg18
I01
sg19
F0.3
sg20
I1
sg21
I12
sg22
g23
sg24
I01
sasI61
(lp145
I00
a(dp146
g3
I29
sg4
I2
sg5
I00
sg6
I309
sg7
F0.4
sg8
I7
sg9
I64
sg10
I4
sg11
I20
sg12
I92
sg13
I9
sg14
I01
sg15
F0.05
sg16
I00
sg17
I01
sg18
I01
sg19
F0.2
sg20
I1
sg21
I23
sg22
g23
sg24
I01
sasI62
(lp147
I00
a(dp148
g3
I92
sg4
I2
sg5
I00
sg6
I409
sg7
F0.1
sg8
I7
sg9
I64
sg10
I4
sg11
I20
sg12
I53
sg13
I45
sg14
I01
sg15
F0.05
sg16
I00
sg17
I01
sg18
I01
sg19
F0.2
sg20
I1
sg21
I17
sg22
g23
sg24
I01
sasI63
(lp149
I00
a(dp150
g3
I18
sg4
I2
sg5
I00
sg6
I374
sg7
F0.0
sg8
I7
sg9
I16
sg10
I4
sg11
I20
sg12
I22
sg13
I44
sg14
I01
sg15
F0.05
sg16
I00
sg17
I01
sg18
I01
sg19
F0.3
sg20
I1
sg21
I37
sg22
g23
sg24
I01
sasI64
(lp151
I00
a(dp152
g3
I11
sg4
I2
sg5
I00
sg6
I416
sg7
F0.2
sg8
I7
sg9
I128
sg10
I4
sg11
I20
sg12
I11
sg13
I33
sg14
I01
sg15
F0.05
sg16
I00
sg17
I01
sg18
I01
sg19
F0.0
sg20
I1
sg21
I24
sg22
g23
sg24
I01
sasI65
(lp153
I00
a(dp154
g3
I35
sg4
I2
sg5
I00
sg6
I293
sg7
F0.4
sg8
I7
sg9
I32
sg10
I4
sg11
I20
sg12
I93
sg13
I37
sg14
I01
sg15
F0.05
sg16
I00
sg17
I01
sg18
I01
sg19
F0.4
sg20
I1
sg21
I6
sg22
g23
sg24
I01
sasI66
(lp155
I00
a(dp156
g3
I88
sg4
I2
sg5
I00
sg6
I471
sg7
F0.2
sg8
I7
sg9
I64
sg10
I4
sg11
I20
sg12
I31
sg13
I59
sg14
I01
sg15
F0.05
sg16
I00
sg17
I01
sg18
I01
sg19
F0.1
sg20
I1
sg21
I29
sg22
g23
sg24
I01
sasI67
(lp157
I00
a(dp158
g3
I85
sg4
I2
sg5
I00
sg6
I416
sg7
F0.2
sg8
I7
sg9
I64
sg10
I4
sg11
I20
sg12
I62
sg13
I62
sg14
I01
sg15
F0.05
sg16
I00
sg17
I01
sg18
I01
sg19
F0.1
sg20
I1
sg21
I25
sg22
g23
sg24
I01
sasI68
(lp159
I00
a(dp160
g3
I89
sg4
I2
sg5
I00
sg6
I238
sg7
F0.3
sg8
I7
sg9
I16
sg10
I4
sg11
I20
sg12
I15
sg13
I12
sg14
I01
sg15
F0.05
sg16
I00
sg17
I01
sg18
I01
sg19
F0.2
sg20
I1
sg21
I14
sg22
g23
sg24
I01
sasI69
(lp161
I00
a(dp162
g3
I10
sg4
I2
sg5
I00
sg6
I203
sg7
F0.4
sg8
I7
sg9
I64
sg10
I4
sg11
I20
sg12
I52
sg13
I42
sg14
I01
sg15
F0.05
sg16
I00
sg17
I01
sg18
I01
sg19
F0.1
sg20
I1
sg21
I13
sg22
g23
sg24
I01
sasI70
(lp163
I00
a(dp164
g3
I79
sg4
I2
sg5
I00
sg6
I381
sg7
F0.1
sg8
I7
sg9
I32
sg10
I4
sg11
I20
sg12
I7
sg13
I82
sg14
I01
sg15
F0.05
sg16
I00
sg17
I01
sg18
I01
sg19
F0.1
sg20
I1
sg21
I40
sg22
g23
sg24
I01
sasI71
(lp165
I00
a(dp166
g3
I57
sg4
I2
sg5
I00
sg6
I295
sg7
F0.2
sg8
I7
sg9
I128
sg10
I4
sg11
I20
sg12
I30
sg13
I88
sg14
I01
sg15
F0.05
sg16
I00
sg17
I01
sg18
I01
sg19
F0.3
sg20
I1
sg21
I49
sg22
g23
sg24
I01
sasI72
(lp167
I00
a(dp168
g3
I80
sg4
I2
sg5
I00
sg6
I234
sg7
F0.3
sg8
I7
sg9
I128
sg10
I4
sg11
I20
sg12
I11
sg13
I36
sg14
I01
sg15
F0.05
sg16
I00
sg17
I01
sg18
I01
sg19
F0.1
sg20
I1
sg21
I6
sg22
g23
sg24
I01
sasI73
(lp169
I00
a(dp170
g3
I19
sg4
I2
sg5
I00
sg6
I211
sg7
F0.1
sg8
I7
sg9
I16
sg10
I4
sg11
I20
sg12
I24
sg13
I76
sg14
I01
sg15
F0.05
sg16
I00
sg17
I01
sg18
I01
sg19
F0.4
sg20
I1
sg21
I32
sg22
g23
sg24
I01
sasI74
(lp171
I00
a(dp172
g3
I86
sg4
I2
sg5
I00
sg6
I272
sg7
F0.2
sg8
I7
sg9
I128
sg10
I4
sg11
I20
sg12
I75
sg13
I56
sg14
I01
sg15
F0.05
sg16
I00
sg17
I01
sg18
I01
sg19
F0.2
sg20
I1
sg21
I22
sg22
g23
sg24
I01
sasI75
(lp173
I00
a(dp174
g3
I56
sg4
I2
sg5
I00
sg6
I265
sg7
F0.3
sg8
I7
sg9
I64
sg10
I4
sg11
I20
sg12
I66
sg13
I15
sg14
I01
sg15
F0.05
sg16
I00
sg17
I01
sg18
I01
sg19
F0.2
sg20
I1
sg21
I8
sg22
g23
sg24
I01
sasI76
(lp175
I00
a(dp176
g3
I72
sg4
I2
sg5
I00
sg6
I436
sg7
F0.2
sg8
I7
sg9
I128
sg10
I4
sg11
I20
sg12
I69
sg13
I56
sg14
I01
sg15
F0.05
sg16
I00
sg17
I01
sg18
I01
sg19
F0.4
sg20
I1
sg21
I13
sg22
g23
sg24
I01
sasI77
(lp177
I00
a(dp178
g3
I99
sg4
I2
sg5
I00
sg6
I411
sg7
F0.2
sg8
I7
sg9
I16
sg10
I4
sg11
I20
sg12
I72
sg13
I8
sg14
I01
sg15
F0.05
sg16
I00
sg17
I01
sg18
I01
sg19
F0.2
sg20
I1
sg21
I44
sg22
g23
sg24
I01
sasI78
(lp179
I00
a(dp180
g3
I31
sg4
I2
sg5
I00
sg6
I364
sg7
F0.0
sg8
I7
sg9
I32
sg10
I4
sg11
I20
sg12
I72
sg13
I5
sg14
I01
sg15
F0.05
sg16
I00
sg17
I01
sg18
I01
sg19
F0.4
sg20
I1
sg21
I24
sg22
g23
sg24
I01
sasI79
(lp181
I00
a(dp182
g3
I91
sg4
I2
sg5
I00
sg6
I290
sg7
F0.0
sg8
I7
sg9
I128
sg10
I4
sg11
I20
sg12
I84
sg13
I57
sg14
I01
sg15
F0.05
sg16
I00
sg17
I01
sg18
I01
sg19
F0.4
sg20
I1
sg21
I11
sg22
g23
sg24
I01
sasI80
(lp183
I00
a(dp184
g3
I26
sg4
I2
sg5
I00
sg6
I324
sg7
F0.2
sg8
I7
sg9
I32
sg10
I4
sg11
I20
sg12
I33
sg13
I9
sg14
I01
sg15
F0.05
sg16
I00
sg17
I01
sg18
I01
sg19
F0.2
sg20
I1
sg21
I7
sg22
g23
sg24
I01
sasI81
(lp185
I00
a(dp186
g3
I95
sg4
I2
sg5
I00
sg6
I340
sg7
F0.2
sg8
I7
sg9
I16
sg10
I4
sg11
I20
sg12
I34
sg13
I17
sg14
I01
sg15
F0.05
sg16
I00
sg17
I01
sg18
I01
sg19
F0.1
sg20
I1
sg21
I8
sg22
g23
sg24
I01
sasI82
(lp187
I00
a(dp188
g3
I82
sg4
I2
sg5
I00
sg6
I201
sg7
F0.3
sg8
I7
sg9
I64
sg10
I4
sg11
I20
sg12
I67
sg13
I6
sg14
I01
sg15
F0.05
sg16
I00
sg17
I01
sg18
I01
sg19
F0.2
sg20
I1
sg21
I26
sg22
g23
sg24
I01
sasI83
(lp189
I00
a(dp190
g3
I47
sg4
I2
sg5
I00
sg6
I244
sg7
F0.4
sg8
I7
sg9
I16
sg10
I4
sg11
I20
sg12
I18
sg13
I29
sg14
I01
sg15
F0.05
sg16
I00
sg17
I01
sg18
I01
sg19
F0.3
sg20
I1
sg21
I43
sg22
g23
sg24
I01
sasI84
(lp191
I00
a(dp192
g3
I26
sg4
I2
sg5
I00
sg6
I331
sg7
F0.2
sg8
I7
sg9
I128
sg10
I4
sg11
I20
sg12
I73
sg13
I27
sg14
I01
sg15
F0.05
sg16
I00
sg17
I01
sg18
I01
sg19
F0.3
sg20
I1
sg21
I47
sg22
g23
sg24
I01
sasI85
(lp193
I00
a(dp194
g3
I18
sg4
I2
sg5
I00
sg6
I427
sg7
F0.3
sg8
I7
sg9
I128
sg10
I4
sg11
I20
sg12
I65
sg13
I83
sg14
I01
sg15
F0.05
sg16
I00
sg17
I01
sg18
I01
sg19
F0.1
sg20
I1
sg21
I33
sg22
g23
sg24
I01
sasI86
(lp195
I00
a(dp196
g3
I93
sg4
I2
sg5
I00
sg6
I452
sg7
F0.3
sg8
I7
sg9
I64
sg10
I4
sg11
I20
sg12
I28
sg13
I12
sg14
I01
sg15
F0.05
sg16
I00
sg17
I01
sg18
I01
sg19
F0.2
sg20
I1
sg21
I39
sg22
g23
sg24
I01
sasI87
(lp197
I00
a(dp198
g3
I15
sg4
I2
sg5
I00
sg6
I264
sg7
F0.2
sg8
I7
sg9
I16
sg10
I4
sg11
I20
sg12
I41
sg13
I12
sg14
I01
sg15
F0.05
sg16
I00
sg17
I01
sg18
I01
sg19
F0.4
sg20
I1
sg21
I16
sg22
g23
sg24
I01
sasI88
(lp199
I00
a(dp200
g3
I10
sg4
I2
sg5
I00
sg6
I290
sg7
F0.2
sg8
I7
sg9
I32
sg10
I4
sg11
I20
sg12
I45
sg13
I55
sg14
I01
sg15
F0.05
sg16
I00
sg17
I01
sg18
I01
sg19
F0.0
sg20
I1
sg21
I15
sg22
g23
sg24
I01
sasI89
(lp201
I00
a(dp202
g3
I75
sg4
I2
sg5
I00
sg6
I492
sg7
F0.3
sg8
I7
sg9
I64
sg10
I4
sg11
I20
sg12
I31
sg13
I22
sg14
I01
sg15
F0.05
sg16
I00
sg17
I01
sg18
I01
sg19
F0.3
sg20
I1
sg21
I48
sg22
g23
sg24
I01
sasI90
(lp203
I00
a(dp204
g3
I34
sg4
I2
sg5
I00
sg6
I201
sg7
F0.1
sg8
I7
sg9
I128
sg10
I4
sg11
I20
sg12
I93
sg13
I49
sg14
I01
sg15
F0.05
sg16
I00
sg17
I01
sg18
I01
sg19
F0.3
sg20
I1
sg21
I20
sg22
g23
sg24
I01
sasI91
(lp205
I00
a(dp206
g3
I16
sg4
I2
sg5
I00
sg6
I286
sg7
F0.2
sg8
I7
sg9
I64
sg10
I4
sg11
I20
sg12
I96
sg13
I43
sg14
I01
sg15
F0.05
sg16
I00
sg17
I01
sg18
I01
sg19
F0.4
sg20
I1
sg21
I18
sg22
g23
sg24
I01
sasI92
(lp207
I00
a(dp208
g3
I38
sg4
I2
sg5
I00
sg6
I307
sg7
F0.2
sg8
I7
sg9
I32
sg10
I4
sg11
I20
sg12
I40
sg13
I6
sg14
I01
sg15
F0.05
sg16
I00
sg17
I01
sg18
I01
sg19
F0.2
sg20
I1
sg21
I39
sg22
g23
sg24
I01
sasI93
(lp209
I00
a(dp210
g3
I39
sg4
I2
sg5
I00
sg6
I352
sg7
F0.2
sg8
I7
sg9
I64
sg10
I4
sg11
I20
sg12
I72
sg13
I82
sg14
I01
sg15
F0.05
sg16
I00
sg17
I01
sg18
I01
sg19
F0.2
sg20
I1
sg21
I44
sg22
g23
sg24
I01
sasI94
(lp211
I00
a(dp212
g3
I35
sg4
I2
sg5
I00
sg6
I401
sg7
F0.1
sg8
I7
sg9
I16
sg10
I4
sg11
I20
sg12
I79
sg13
I51
sg14
I01
sg15
F0.05
sg16
I00
sg17
I01
sg18
I01
sg19
F0.1
sg20
I1
sg21
I21
sg22
g23
sg24
I01
sasI95
(lp213
I00
a(dp214
g3
I77
sg4
I2
sg5
I00
sg6
I457
sg7
F0.3
sg8
I7
sg9
I64
sg10
I4
sg11
I20
sg12
I97
sg13
I58
sg14
I01
sg15
F0.05
sg16
I00
sg17
I01
sg18
I01
sg19
F0.3
sg20
I1
sg21
I21
sg22
g23
sg24
I01
sasI96
(lp215
I00
a(dp216
g3
I29
sg4
I2
sg5
I00
sg6
I368
sg7
F0.1
sg8
I7
sg9
I32
sg10
I4
sg11
I20
sg12
I93
sg13
I40
sg14
I01
sg15
F0.05
sg16
I00
sg17
I01
sg18
I01
sg19
F0.3
sg20
I1
sg21
I26
sg22
g23
sg24
I01
sasI97
(lp217
I00
a(dp218
g3
I24
sg4
I2
sg5
I00
sg6
I499
sg7
F0.3
sg8
I7
sg9
I16
sg10
I4
sg11
I20
sg12
I79
sg13
I34
sg14
I01
sg15
F0.05
sg16
I00
sg17
I01
sg18
I01
sg19
F0.2
sg20
I1
sg21
I42
sg22
g23
sg24
I01
sasI98
(lp219
I00
a(dp220
g3
I28
sg4
I2
sg5
I00
sg6
I344
sg7
F0.3
sg8
I7
sg9
I16
sg10
I4
sg11
I20
sg12
I15
sg13
I65
sg14
I01
sg15
F0.05
sg16
I00
sg17
I01
sg18
I01
sg19
F0.2
sg20
I1
sg21
I29
sg22
g23
sg24
I01
sasI99
(lp221
I00
a(dp222
g3
I76
sg4
I2
sg5
I00
sg6
I408
sg7
F0.2
sg8
I7
sg9
I64
sg10
I4
sg11
I20
sg12
I49
sg13
I97
sg14
I01
sg15
F0.05
sg16
I00
sg17
I01
sg18
I01
sg19
F0.1
sg20
I1
sg21
I5
sg22
g23
sg24
I01
sasI100
(lp223
I00
a(dp224
g3
I23
sg4
I2
sg5
I00
sg6
I298
sg7
F0.1
sg8
I7
sg9
I16
sg10
I4
sg11
I20
sg12
I24
sg13
I33
sg14
I01
sg15
F0.05
sg16
I00
sg17
I01
sg18
I01
sg19
F0.0
sg20
I1
sg21
I45
sg22
g23
sg24
I01
sasI101
(lp225
I00
a(dp226
g3
I38
sg4
I2
sg5
I00
sg6
I290
sg7
F0.3
sg8
I7
sg9
I128
sg10
I4
sg11
I20
sg12
I44
sg13
I93
sg14
I01
sg15
F0.05
sg16
I00
sg17
I01
sg18
I01
sg19
F0.0
sg20
I1
sg21
I36
sg22
g23
sg24
I01
sasI102
(lp227
I00
a(dp228
g3
I69
sg4
I2
sg5
I00
sg6
I372
sg7
F0.1
sg8
I7
sg9
I16
sg10
I4
sg11
I20
sg12
I33
sg13
I72
sg14
I01
sg15
F0.05
sg16
I00
sg17
I01
sg18
I01
sg19
F0.3
sg20
I1
sg21
I35
sg22
g23
sg24
I01
sasI103
(lp229
I00
a(dp230
g3
I79
sg4
I2
sg5
I00
sg6
I327
sg7
F0.2
sg8
I7
sg9
I64
sg10
I4
sg11
I20
sg12
I98
sg13
I81
sg14
I01
sg15
F0.05
sg16
I00
sg17
I01
sg18
I01
sg19
F0.4
sg20
I1
sg21
I32
sg22
g23
sg24
I01
sasI104
(lp231
I00
a(dp232
g3
I43
sg4
I2
sg5
I00
sg6
I281
sg7
F0.3
sg8
I7
sg9
I16
sg10
I4
sg11
I20
sg12
I50
sg13
I6
sg14
I01
sg15
F0.05
sg16
I00
sg17
I01
sg18
I01
sg19
F0.2
sg20
I1
sg21
I25
sg22
g23
sg24
I01
sasI105
(lp233
I00
a(dp234
g3
I74
sg4
I2
sg5
I00
sg6
I486
sg7
F0.3
sg8
I7
sg9
I16
sg10
I4
sg11
I20
sg12
I58
sg13
I10
sg14
I01
sg15
F0.05
sg16
I00
sg17
I01
sg18
I01
sg19
F0.1
sg20
I1
sg21
I19
sg22
g23
sg24
I01
sasI106
(lp235
I00
a(dp236
g3
I68
sg4
I2
sg5
I00
sg6
I342
sg7
F0.2
sg8
I7
sg9
I128
sg10
I4
sg11
I20
sg12
I78
sg13
I47
sg14
I01
sg15
F0.05
sg16
I00
sg17
I01
sg18
I01
sg19
F0.1
sg20
I1
sg21
I9
sg22
g23
sg24
I01
sasI107
(lp237
I00
a(dp238
g3
I93
sg4
I2
sg5
I00
sg6
I279
sg7
F0.2
sg8
I7
sg9
I16
sg10
I4
sg11
I20
sg12
I89
sg13
I24
sg14
I01
sg15
F0.05
sg16
I00
sg17
I01
sg18
I01
sg19
F0.0
sg20
I1
sg21
I30
sg22
g23
sg24
I01
sasI108
(lp239
I00
a(dp240
g3
I75
sg4
I2
sg5
I00
sg6
I346
sg7
F0.3
sg8
I7
sg9
I16
sg10
I4
sg11
I20
sg12
I23
sg13
I9
sg14
I01
sg15
F0.05
sg16
I00
sg17
I01
sg18
I01
sg19
F0.0
sg20
I1
sg21
I28
sg22
g23
sg24
I01
sasI109
(lp241
I00
a(dp242
g3
I67
sg4
I2
sg5
I00
sg6
I311
sg7
F0.3
sg8
I7
sg9
I128
sg10
I4
sg11
I20
sg12
I58
sg13
I45
sg14
I01
sg15
F0.05
sg16
I00
sg17
I01
sg18
I01
sg19
F0.2
sg20
I1
sg21
I12
sg22
g23
sg24
I01
sasI110
(lp243
I00
a(dp244
g3
I80
sg4
I2
sg5
I00
sg6
I476
sg7
F0.4
sg8
I7
sg9
I128
sg10
I4
sg11
I20
sg12
I17
sg13
I72
sg14
I01
sg15
F0.05
sg16
I00
sg17
I01
sg18
I01
sg19
F0.3
sg20
I1
sg21
I30
sg22
g23
sg24
I01
sasI111
(lp245
I00
a(dp246
g3
I26
sg4
I2
sg5
I00
sg6
I329
sg7
F0.4
sg8
I7
sg9
I64
sg10
I4
sg11
I20
sg12
I43
sg13
I28
sg14
I01
sg15
F0.05
sg16
I00
sg17
I01
sg18
I01
sg19
F0.1
sg20
I1
sg21
I21
sg22
g23
sg24
I01
sasI112
(lp247
I00
a(dp248
g3
I10
sg4
I2
sg5
I00
sg6
I416
sg7
F0.2
sg8
I7
sg9
I16
sg10
I4
sg11
I20
sg12
I24
sg13
I94
sg14
I01
sg15
F0.05
sg16
I00
sg17
I01
sg18
I01
sg19
F0.3
sg20
I1
sg21
I5
sg22
g23
sg24
I01
sasI113
(lp249
I00
a(dp250
g3
I58
sg4
I2
sg5
I00
sg6
I432
sg7
F0.2
sg8
I7
sg9
I16
sg10
I4
sg11
I20
sg12
I17
sg13
I9
sg14
I01
sg15
F0.05
sg16
I00
sg17
I01
sg18
I01
sg19
F0.0
sg20
I1
sg21
I9
sg22
g23
sg24
I01
sasI114
(lp251
I00
a(dp252
g3
I25
sg4
I2
sg5
I00
sg6
I444
sg7
F0.3
sg8
I7
sg9
I32
sg10
I4
sg11
I20
sg12
I30
sg13
I90
sg14
I01
sg15
F0.05
sg16
I00
sg17
I01
sg18
I01
sg19
F0.4
sg20
I1
sg21
I34
sg22
g23
sg24
I01
sasI115
(lp253
I00
a(dp254
g3
I49
sg4
I2
sg5
I00
sg6
I396
sg7
F0.3
sg8
I7
sg9
I64
sg10
I4
sg11
I20
sg12
I5
sg13
I15
sg14
I01
sg15
F0.05
sg16
I00
sg17
I01
sg18
I01
sg19
F0.3
sg20
I1
sg21
I10
sg22
g23
sg24
I01
sasI116
(lp255
I00
a(dp256
g3
I30
sg4
I2
sg5
I00
sg6
I236
sg7
F0.3
sg8
I7
sg9
I16
sg10
I4
sg11
I20
sg12
I20
sg13
I43
sg14
I01
sg15
F0.05
sg16
I00
sg17
I01
sg18
I01
sg19
F0.3
sg20
I1
sg21
I13
sg22
g23
sg24
I01
sasI117
(lp257
I00
a(dp258
g3
I18
sg4
I2
sg5
I00
sg6
I400
sg7
F0.4
sg8
I7
sg9
I16
sg10
I4
sg11
I20
sg12
I10
sg13
I7
sg14
I01
sg15
F0.05
sg16
I00
sg17
I01
sg18
I01
sg19
F0.3
sg20
I1
sg21
I26
sg22
g23
sg24
I01
sasI118
(lp259
I00
a(dp260
g3
I25
sg4
I2
sg5
I00
sg6
I324
sg7
F0.3
sg8
I7
sg9
I64
sg10
I4
sg11
I20
sg12
I64
sg13
I18
sg14
I01
sg15
F0.05
sg16
I00
sg17
I01
sg18
I01
sg19
F0.1
sg20
I1
sg21
I10
sg22
g23
sg24
I01
sasI119
(lp261
I00
a(dp262
g3
I60
sg4
I2
sg5
I00
sg6
I368
sg7
F0.1
sg8
I7
sg9
I128
sg10
I4
sg11
I20
sg12
I6
sg13
I24
sg14
I01
sg15
F0.05
sg16
I00
sg17
I01
sg18
I01
sg19
F0.0
sg20
I1
sg21
I20
sg22
g23
sg24
I01
sasI120
(lp263
I00
a(dp264
g3
I25
sg4
I2
sg5
I00
sg6
I251
sg7
F0.0
sg8
I7
sg9
I16
sg10
I4
sg11
I20
sg12
I95
sg13
I7
sg14
I01
sg15
F0.05
sg16
I00
sg17
I01
sg18
I01
sg19
F0.2
sg20
I1
sg21
I27
sg22
g23
sg24
I01
sasI121
(lp265
I00
a(dp266
g3
I92
sg4
I2
sg5
I00
sg6
I273
sg7
F0.3
sg8
I7
sg9
I64
sg10
I4
sg11
I20
sg12
I24
sg13
I15
sg14
I01
sg15
F0.05
sg16
I00
sg17
I01
sg18
I01
sg19
F0.1
sg20
I1
sg21
I41
sg22
g23
sg24
I01
sasI122
(lp267
I00
a(dp268
g3
I78
sg4
I2
sg5
I00
sg6
I302
sg7
F0.3
sg8
I7
sg9
I64
sg10
I4
sg11
I20
sg12
I84
sg13
I29
sg14
I01
sg15
F0.05
sg16
I00
sg17
I01
sg18
I01
sg19
F0.3
sg20
I1
sg21
I41
sg22
g23
sg24
I01
sasI123
(lp269
I00
a(dp270
g3
I49
sg4
I2
sg5
I00
sg6
I258
sg7
F0.2
sg8
I7
sg9
I128
sg10
I4
sg11
I20
sg12
I50
sg13
I26
sg14
I01
sg15
F0.05
sg16
I00
sg17
I01
sg18
I01
sg19
F0.4
sg20
I1
sg21
I7
sg22
g23
sg24
I01
sasI124
(lp271
I00
a(dp272
g3
I22
sg4
I2
sg5
I00
sg6
I445
sg7
F0.3
sg8
I7
sg9
I128
sg10
I4
sg11
I20
sg12
I87
sg13
I11
sg14
I01
sg15
F0.05
sg16
I00
sg17
I01
sg18
I01
sg19
F0.1
sg20
I1
sg21
I38
sg22
g23
sg24
I01
sasI125
(lp273
I00
a(dp274
g3
I79
sg4
I2
sg5
I00
sg6
I416
sg7
F0.1
sg8
I7
sg9
I64
sg10
I4
sg11
I20
sg12
I55
sg13
I9
sg14
I01
sg15
F0.05
sg16
I00
sg17
I01
sg18
I01
sg19
F0.3
sg20
I1
sg21
I29
sg22
g23
sg24
I01
sasI126
(lp275
I00
a(dp276
g3
I46
sg4
I2
sg5
I00
sg6
I389
sg7
F0.1
sg8
I7
sg9
I32
sg10
I4
sg11
I20
sg12
I42
sg13
I96
sg14
I01
sg15
F0.05
sg16
I00
sg17
I01
sg18
I01
sg19
F0.2
sg20
I1
sg21
I20
sg22
g23
sg24
I01
sasI127
(lp277
I00
a(dp278
g3
I73
sg4
I2
sg5
I00
sg6
I286
sg7
F0.1
sg8
I7
sg9
I128
sg10
I4
sg11
I20
sg12
I49
sg13
I31
sg14
I01
sg15
F0.05
sg16
I00
sg17
I01
sg18
I01
sg19
F0.1
sg20
I1
sg21
I13
sg22
g23
sg24
I01
sasI128
(lp279
I00
a(dp280
g3
I32
sg4
I2
sg5
I00
sg6
I293
sg7
F0.1
sg8
I7
sg9
I32
sg10
I4
sg11
I20
sg12
I26
sg13
I83
sg14
I01
sg15
F0.05
sg16
I00
sg17
I01
sg18
I01
sg19
F0.4
sg20
I1
sg21
I25
sg22
g23
sg24
I01
sasI129
(lp281
I00
a(dp282
g3
I90
sg4
I2
sg5
I00
sg6
I446
sg7
F0.0
sg8
I7
sg9
I64
sg10
I4
sg11
I20
sg12
I64
sg13
I66
sg14
I01
sg15
F0.05
sg16
I00
sg17
I01
sg18
I01
sg19
F0.1
sg20
I1
sg21
I36
sg22
g23
sg24
I01
sasI130
(lp283
I00
a(dp284
g3
I12
sg4
I2
sg5
I00
sg6
I464
sg7
F0.3
sg8
I7
sg9
I32
sg10
I4
sg11
I20
sg12
I67
sg13
I29
sg14
I01
sg15
F0.05
sg16
I00
sg17
I01
sg18
I01
sg19
F0.3
sg20
I1
sg21
I23
sg22
g23
sg24
I01
sasI131
(lp285
I01
a(dp286
g3
I61
sg4
I2
sg5
I00
sg6
I491
sg7
F0.2
sg8
I7
sg9
I16
sg10
I4
sg11
I20
sg12
I43
sg13
I45
sg14
I01
sg15
F0.05
sg16
I00
sg17
I01
sg18
I01
sg19
F0.1
sg20
I1
sg21
I42
sg22
g23
sg24
I01
sasI132
(lp287
I00
a(dp288
g3
I32
sg4
I2
sg5
I00
sg6
I203
sg7
F0.1
sg8
I7
sg9
I64
sg10
I4
sg11
I20
sg12
I87
sg13
I80
sg14
I01
sg15
F0.05
sg16
I00
sg17
I01
sg18
I01
sg19
F0.1
sg20
I1
sg21
I8
sg22
g23
sg24
I01
sasI133
(lp289
I00
a(dp290
g3
I76
sg4
I2
sg5
I00
sg6
I254
sg7
F0.4
sg8
I7
sg9
I32
sg10
I4
sg11
I20
sg12
I38
sg13
I8
sg14
I01
sg15
F0.05
sg16
I00
sg17
I01
sg18
I01
sg19
F0.3
sg20
I1
sg21
I21
sg22
g23
sg24
I01
sasI134
(lp291
I00
a(dp292
g3
I49
sg4
I2
sg5
I00
sg6
I455
sg7
F0.2
sg8
I7
sg9
I16
sg10
I4
sg11
I20
sg12
I73
sg13
I85
sg14
I01
sg15
F0.05
sg16
I00
sg17
I01
sg18
I01
sg19
F0.3
sg20
I1
sg21
I6
sg22
g23
sg24
I01
sasI135
(lp293
I00
a(dp294
g3
I14
sg4
I2
sg5
I00
sg6
I271
sg7
F0.2
sg8
I7
sg9
I16
sg10
I4
sg11
I20
sg12
I23
sg13
I88
sg14
I01
sg15
F0.05
sg16
I00
sg17
I01
sg18
I01
sg19
F0.3
sg20
I1
sg21
I17
sg22
g23
sg24
I01
sasI136
(lp295
I00
a(dp296
g3
I47
sg4
I2
sg5
I00
sg6
I208
sg7
F0.0
sg8
I7
sg9
I32
sg10
I4
sg11
I20
sg12
I20
sg13
I21
sg14
I01
sg15
F0.05
sg16
I00
sg17
I01
sg18
I01
sg19
F0.3
sg20
I1
sg21
I40
sg22
g23
sg24
I01
sasI137
(lp297
I00
a(dp298
g3
I78
sg4
I2
sg5
I00
sg6
I202
sg7
F0.2
sg8
I7
sg9
I16
sg10
I4
sg11
I20
sg12
I29
sg13
I73
sg14
I01
sg15
F0.05
sg16
I00
sg17
I01
sg18
I01
sg19
F0.2
sg20
I1
sg21
I6
sg22
g23
sg24
I01
sasI138
(lp299
I00
a(dp300
g3
I76
sg4
I2
sg5
I00
sg6
I362
sg7
F0.3
sg8
I7
sg9
I64
sg10
I4
sg11
I20
sg12
I89
sg13
I68
sg14
I01
sg15
F0.05
sg16
I00
sg17
I01
sg18
I01
sg19
F0.2
sg20
I1
sg21
I25
sg22
g23
sg24
I01
sasI139
(lp301
I00
a(dp302
g3
I56
sg4
I2
sg5
I00
sg6
I202
sg7
F0.3
sg8
I7
sg9
I128
sg10
I4
sg11
I20
sg12
I7
sg13
I75
sg14
I01
sg15
F0.05
sg16
I00
sg17
I01
sg18
I01
sg19
F0.2
sg20
I1
sg21
I45
sg22
g23
sg24
I01
sasI140
(lp303
I00
a(dp304
g3
I89
sg4
I2
sg5
I00
sg6
I388
sg7
F0.3
sg8
I7
sg9
I128
sg10
I4
sg11
I20
sg12
I75
sg13
I60
sg14
I01
sg15
F0.05
sg16
I00
sg17
I01
sg18
I01
sg19
F0.1
sg20
I1
sg21
I42
sg22
g23
sg24
I01
sasI141
(lp305
I00
a(dp306
g3
I22
sg4
I2
sg5
I00
sg6
I413
sg7
F0.2
sg8
I7
sg9
I128
sg10
I4
sg11
I20
sg12
I35
sg13
I68
sg14
I01
sg15
F0.05
sg16
I00
sg17
I01
sg18
I01
sg19
F0.2
sg20
I1
sg21
I45
sg22
g23
sg24
I01
sasI142
(lp307
I00
a(dp308
g3
I18
sg4
I2
sg5
I00
sg6
I486
sg7
F0.3
sg8
I7
sg9
I32
sg10
I4
sg11
I20
sg12
I41
sg13
I5
sg14
I01
sg15
F0.05
sg16
I00
sg17
I01
sg18
I01
sg19
F0.2
sg20
I1
sg21
I39
sg22
g23
sg24
I01
sasI143
(lp309
I00
a(dp310
g3
I11
sg4
I2
sg5
I00
sg6
I341
sg7
F0.4
sg8
I7
sg9
I64
sg10
I4
sg11
I20
sg12
I58
sg13
I28
sg14
I01
sg15
F0.05
sg16
I00
sg17
I01
sg18
I01
sg19
F0.2
sg20
I1
sg21
I38
sg22
g23
sg24
I01
sasI144
(lp311
I00
a(dp312
g3
I40
sg4
I2
sg5
I00
sg6
I295
sg7
F0.1
sg8
I7
sg9
I128
sg10
I4
sg11
I20
sg12
I23
sg13
I43
sg14
I01
sg15
F0.05
sg16
I00
sg17
I01
sg18
I01
sg19
F0.0
sg20
I1
sg21
I13
sg22
g23
sg24
I01
sasI145
(lp313
I00
a(dp314
g3
I85
sg4
I2
sg5
I00
sg6
I247
sg7
F0.3
sg8
I7
sg9
I128
sg10
I4
sg11
I20
sg12
I18
sg13
I80
sg14
I01
sg15
F0.05
sg16
I00
sg17
I01
sg18
I01
sg19
F0.0
sg20
I1
sg21
I48
sg22
g23
sg24
I01
sasI146
(lp315
I00
a(dp316
g3
I37
sg4
I2
sg5
I00
sg6
I448
sg7
F0.1
sg8
I7
sg9
I32
sg10
I4
sg11
I20
sg12
I92
sg13
I38
sg14
I01
sg15
F0.05
sg16
I00
sg17
I01
sg18
I01
sg19
F0.3
sg20
I1
sg21
I41
sg22
g23
sg24
I01
sasI147
(lp317
I00
a(dp318
g3
I88
sg4
I2
sg5
I00
sg6
I389
sg7
F0.1
sg8
I7
sg9
I32
sg10
I4
sg11
I20
sg12
I93
sg13
I71
sg14
I01
sg15
F0.05
sg16
I00
sg17
I01
sg18
I01
sg19
F0.4
sg20
I1
sg21
I31
sg22
g23
sg24
I01
sasI148
(lp319
I00
a(dp320
g3
I77
sg4
I2
sg5
I00
sg6
I358
sg7
F0.1
sg8
I7
sg9
I64
sg10
I4
sg11
I20
sg12
I45
sg13
I48
sg14
I01
sg15
F0.05
sg16
I00
sg17
I01
sg18
I01
sg19
F0.3
sg20
I1
sg21
I40
sg22
g23
sg24
I01
sasI149
(lp321
I00
a(dp322
g3
I14
sg4
I2
sg5
I00
sg6
I388
sg7
F0.4
sg8
I7
sg9
I128
sg10
I4
sg11
I20
sg12
I89
sg13
I10
sg14
I01
sg15
F0.05
sg16
I00
sg17
I01
sg18
I01
sg19
F0.4
sg20
I1
sg21
I13
sg22
g23
sg24
I01
sasI150
(lp323
I00
a(dp324
g3
I46
sg4
I2
sg5
I00
sg6
I428
sg7
F0.3
sg8
I7
sg9
I64
sg10
I4
sg11
I20
sg12
I67
sg13
I40
sg14
I01
sg15
F0.05
sg16
I00
sg17
I01
sg18
I01
sg19
F0.0
sg20
I1
sg21
I42
sg22
g23
sg24
I01
sasI151
(lp325
I00
a(dp326
g3
I59
sg4
I2
sg5
I00
sg6
I360
sg7
F0.2
sg8
I7
sg9
I128
sg10
I4
sg11
I20
sg12
I49
sg13
I53
sg14
I01
sg15
F0.05
sg16
I00
sg17
I01
sg18
I01
sg19
F0.1
sg20
I1
sg21
I25
sg22
g23
sg24
I01
sasI152
(lp327
I00
a(dp328
g3
I78
sg4
I2
sg5
I00
sg6
I268
sg7
F0.3
sg8
I7
sg9
I32
sg10
I4
sg11
I20
sg12
I5
sg13
I56
sg14
I01
sg15
F0.05
sg16
I00
sg17
I01
sg18
I01
sg19
F0.4
sg20
I1
sg21
I13
sg22
g23
sg24
I01
sasI153
(lp329
I00
a(dp330
g3
I72
sg4
I2
sg5
I00
sg6
I391
sg7
F0.1
sg8
I7
sg9
I128
sg10
I4
sg11
I20
sg12
I20
sg13
I24
sg14
I01
sg15
F0.05
sg16
I00
sg17
I01
sg18
I01
sg19
F0.2
sg20
I1
sg21
I22
sg22
g23
sg24
I01
sasI154
(lp331
I00
a(dp332
g3
I76
sg4
I2
sg5
I00
sg6
I380
sg7
F0.3
sg8
I7
sg9
I16
sg10
I4
sg11
I20
sg12
I79
sg13
I48
sg14
I01
sg15
F0.05
sg16
I00
sg17
I01
sg18
I01
sg19
F0.3
sg20
I1
sg21
I10
sg22
g23
sg24
I01
sasI155
(lp333
I00
a(dp334
g3
I85
sg4
I2
sg5
I00
sg6
I308
sg7
F0.3
sg8
I7
sg9
I128
sg10
I4
sg11
I20
sg12
I5
sg13
I43
sg14
I01
sg15
F0.05
sg16
I00
sg17
I01
sg18
I01
sg19
F0.1
sg20
I1
sg21
I46
sg22
g23
sg24
I01
sasI156
(lp335
I00
a(dp336
g3
I92
sg4
I2
sg5
I00
sg6
I390
sg7
F0.4
sg8
I7
sg9
I64
sg10
I4
sg11
I20
sg12
I91
sg13
I93
sg14
I01
sg15
F0.05
sg16
I00
sg17
I01
sg18
I01
sg19
F0.4
sg20
I1
sg21
I37
sg22
g23
sg24
I01
sasI157
(lp337
I00
a(dp338
g3
I33
sg4
I2
sg5
I00
sg6
I424
sg7
F0.0
sg8
I7
sg9
I32
sg10
I4
sg11
I20
sg12
I7
sg13
I34
sg14
I01
sg15
F0.05
sg16
I00
sg17
I01
sg18
I01
sg19
F0.0
sg20
I1
sg21
I39
sg22
g23
sg24
I01
sasI158
(lp339
I00
a(dp340
g3
I25
sg4
I2
sg5
I00
sg6
I354
sg7
F0.0
sg8
I7
sg9
I128
sg10
I4
sg11
I20
sg12
I16
sg13
I80
sg14
I01
sg15
F0.05
sg16
I00
sg17
I01
sg18
I01
sg19
F0.3
sg20
I1
sg21
I42
sg22
g23
sg24
I01
sasI159
(lp341
I00
a(dp342
g3
I70
sg4
I2
sg5
I00
sg6
I339
sg7
F0.2
sg8
I7
sg9
I128
sg10
I4
sg11
I20
sg12
I64
sg13
I39
sg14
I01
sg15
F0.05
sg16
I00
sg17
I01
sg18
I01
sg19
F0.1
sg20
I1
sg21
I5
sg22
g23
sg24
I01
sasI160
(lp343
I00
a(dp344
g3
I92
sg4
I2
sg5
I00
sg6
I215
sg7
F0.4
sg8
I7
sg9
I128
sg10
I4
sg11
I20
sg12
I44
sg13
I17
sg14
I01
sg15
F0.05
sg16
I00
sg17
I01
sg18
I01
sg19
F0.0
sg20
I1
sg21
I7
sg22
g23
sg24
I01
sasI161
(lp345
I00
a(dp346
g3
I22
sg4
I2
sg5
I00
sg6
I272
sg7
F0.4
sg8
I7
sg9
I64
sg10
I4
sg11
I20
sg12
I60
sg13
I21
sg14
I01
sg15
F0.05
sg16
I00
sg17
I01
sg18
I01
sg19
F0.3
sg20
I1
sg21
I8
sg22
g23
sg24
I01
sasI162
(lp347
I00
a(dp348
g3
I92
sg4
I2
sg5
I00
sg6
I309
sg7
F0.1
sg8
I7
sg9
I32
sg10
I4
sg11
I20
sg12
I55
sg13
I89
sg14
I01
sg15
F0.05
sg16
I00
sg17
I01
sg18
I01
sg19
F0.0
sg20
I1
sg21
I30
sg22
g23
sg24
I01
sasI163
(lp349
I00
a(dp350
g3
I98
sg4
I2
sg5
I00
sg6
I287
sg7
F0.3
sg8
I7
sg9
I16
sg10
I4
sg11
I20
sg12
I50
sg13
I39
sg14
I01
sg15
F0.05
sg16
I00
sg17
I01
sg18
I01
sg19
F0.2
sg20
I1
sg21
I18
sg22
g23
sg24
I01
sasI164
(lp351
I00
a(dp352
g3
I62
sg4
I2
sg5
I00
sg6
I263
sg7
F0.1
sg8
I7
sg9
I128
sg10
I4
sg11
I20
sg12
I50
sg13
I9
sg14
I01
sg15
F0.05
sg16
I00
sg17
I01
sg18
I01
sg19
F0.1
sg20
I1
sg21
I45
sg22
g23
sg24
I01
sasI165
(lp353
I00
a(dp354
g3
I36
sg4
I2
sg5
I00
sg6
I273
sg7
F0.3
sg8
I7
sg9
I32
sg10
I4
sg11
I20
sg12
I89
sg13
I86
sg14
I01
sg15
F0.05
sg16
I00
sg17
I01
sg18
I01
sg19
F0.2
sg20
I1
sg21
I34
sg22
g23
sg24
I01
sasI166
(lp355
I00
a(dp356
g3
I96
sg4
I2
sg5
I00
sg6
I373
sg7
F0.1
sg8
I7
sg9
I64
sg10
I4
sg11
I20
sg12
I5
sg13
I88
sg14
I01
sg15
F0.05
sg16
I00
sg17
I01
sg18
I01
sg19
F0.1
sg20
I1
sg21
I29
sg22
g23
sg24
I01
sasI167
(lp357
I00
a(dp358
g3
I29
sg4
I2
sg5
I00
sg6
I225
sg7
F0.2
sg8
I7
sg9
I128
sg10
I4
sg11
I20
sg12
I55
sg13
I82
sg14
I01
sg15
F0.05
sg16
I00
sg17
I01
sg18
I01
sg19
F0.2
sg20
I1
sg21
I26
sg22
g23
sg24
I01
sasI168
(lp359
I00
a(dp360
g3
I81
sg4
I2
sg5
I00
sg6
I399
sg7
F0.4
sg8
I7
sg9
I64
sg10
I4
sg11
I20
sg12
I32
sg13
I86
sg14
I01
sg15
F0.05
sg16
I00
sg17
I01
sg18
I01
sg19
F0.1
sg20
I1
sg21
I40
sg22
g23
sg24
I01
sasI169
(lp361
I00
a(dp362
g3
I19
sg4
I2
sg5
I00
sg6
I200
sg7
F0.0
sg8
I7
sg9
I32
sg10
I4
sg11
I20
sg12
I41
sg13
I8
sg14
I01
sg15
F0.05
sg16
I00
sg17
I01
sg18
I01
sg19
F0.0
sg20
I1
sg21
I22
sg22
g23
sg24
I01
sasI170
(lp363
I00
a(dp364
g3
I14
sg4
I2
sg5
I00
sg6
I236
sg7
F0.2
sg8
I7
sg9
I128
sg10
I4
sg11
I20
sg12
I30
sg13
I54
sg14
I01
sg15
F0.05
sg16
I00
sg17
I01
sg18
I01
sg19
F0.0
sg20
I1
sg21
I10
sg22
g23
sg24
I01
sasI171
(lp365
I00
a(dp366
g3
I78
sg4
I2
sg5
I00
sg6
I370
sg7
F0.4
sg8
I7
sg9
I64
sg10
I4
sg11
I20
sg12
I98
sg13
I90
sg14
I01
sg15
F0.05
sg16
I00
sg17
I01
sg18
I01
sg19
F0.0
sg20
I1
sg21
I18
sg22
g23
sg24
I01
sasI172
(lp367
I00
a(dp368
g3
I46
sg4
I2
sg5
I00
sg6
I426
sg7
F0.2
sg8
I7
sg9
I16
sg10
I4
sg11
I20
sg12
I56
sg13
I16
sg14
I01
sg15
F0.05
sg16
I00
sg17
I01
sg18
I01
sg19
F0.3
sg20
I1
sg21
I32
sg22
g23
sg24
I01
sasI173
(lp369
I00
a(dp370
g3
I72
sg4
I2
sg5
I00
sg6
I286
sg7
F0.1
sg8
I7
sg9
I128
sg10
I4
sg11
I20
sg12
I49
sg13
I45
sg14
I01
sg15
F0.05
sg16
I00
sg17
I01
sg18
I01
sg19
F0.1
sg20
I1
sg21
I16
sg22
g23
sg24
I01
sasI174
(lp371
I00
a(dp372
g3
I19
sg4
I2
sg5
I00
sg6
I364
sg7
F0.3
sg8
I7
sg9
I16
sg10
I4
sg11
I20
sg12
I30
sg13
I8
sg14
I01
sg15
F0.05
sg16
I00
sg17
I01
sg18
I01
sg19
F0.2
sg20
I1
sg21
I45
sg22
g23
sg24
I01
sasI175
(lp373
I00
a(dp374
g3
I31
sg4
I2
sg5
I00
sg6
I371
sg7
F0.3
sg8
I7
sg9
I64
sg10
I4
sg11
I20
sg12
I69
sg13
I59
sg14
I01
sg15
F0.05
sg16
I00
sg17
I01
sg18
I01
sg19
F0.3
sg20
I1
sg21
I19
sg22
g23
sg24
I01
sasI176
(lp375
I00
a(dp376
g3
I66
sg4
I2
sg5
I00
sg6
I486
sg7
F0.1
sg8
I7
sg9
I128
sg10
I4
sg11
I20
sg12
I71
sg13
I21
sg14
I01
sg15
F0.05
sg16
I00
sg17
I01
sg18
I01
sg19
F0.3
sg20
I1
sg21
I16
sg22
g23
sg24
I01
sasI177
(lp377
I00
a(dp378
g3
I95
sg4
I2
sg5
I00
sg6
I236
sg7
F0.3
sg8
I7
sg9
I128
sg10
I4
sg11
I20
sg12
I50
sg13
I94
sg14
I01
sg15
F0.05
sg16
I00
sg17
I01
sg18
I01
sg19
F0.2
sg20
I1
sg21
I18
sg22
g23
sg24
I01
sasI178
(lp379
I00
a(dp380
g3
I92
sg4
I2
sg5
I00
sg6
I277
sg7
F0.4
sg8
I7
sg9
I16
sg10
I4
sg11
I20
sg12
I97
sg13
I76
sg14
I01
sg15
F0.05
sg16
I00
sg17
I01
sg18
I01
sg19
F0.3
sg20
I1
sg21
I25
sg22
g23
sg24
I01
sasI179
(lp381
I00
a(dp382
g3
I12
sg4
I2
sg5
I00
sg6
I442
sg7
F0.4
sg8
I7
sg9
I128
sg10
I4
sg11
I20
sg12
I50
sg13
I24
sg14
I01
sg15
F0.05
sg16
I00
sg17
I01
sg18
I01
sg19
F0.3
sg20
I1
sg21
I19
sg22
g23
sg24
I01
sasI180
(lp383
I00
a(dp384
g3
I49
sg4
I2
sg5
I00
sg6
I403
sg7
F0.4
sg8
I7
sg9
I32
sg10
I4
sg11
I20
sg12
I70
sg13
I19
sg14
I01
sg15
F0.05
sg16
I00
sg17
I01
sg18
I01
sg19
F0.1
sg20
I1
sg21
I21
sg22
g23
sg24
I01
sasI181
(lp385
I00
a(dp386
g3
I30
sg4
I2
sg5
I00
sg6
I490
sg7
F0.1
sg8
I7
sg9
I16
sg10
I4
sg11
I20
sg12
I49
sg13
I20
sg14
I01
sg15
F0.05
sg16
I00
sg17
I01
sg18
I01
sg19
F0.2
sg20
I1
sg21
I49
sg22
g23
sg24
I01
sasI182
(lp387
I00
a(dp388
g3
I65
sg4
I2
sg5
I00
sg6
I455
sg7
F0.0
sg8
I7
sg9
I64
sg10
I4
sg11
I20
sg12
I75
sg13
I39
sg14
I01
sg15
F0.05
sg16
I00
sg17
I01
sg18
I01
sg19
F0.2
sg20
I1
sg21
I30
sg22
g23
sg24
I01
sasI183
(lp389
I00
a(dp390
g3
I46
sg4
I2
sg5
I00
sg6
I313
sg7
F0.3
sg8
I7
sg9
I16
sg10
I4
sg11
I20
sg12
I63
sg13
I17
sg14
I01
sg15
F0.05
sg16
I00
sg17
I01
sg18
I01
sg19
F0.2
sg20
I1
sg21
I12
sg22
g23
sg24
I01
sasI184
(lp391
I00
a(dp392
g3
I70
sg4
I2
sg5
I00
sg6
I493
sg7
F0.1
sg8
I7
sg9
I16
sg10
I4
sg11
I20
sg12
I12
sg13
I89
sg14
I01
sg15
F0.05
sg16
I00
sg17
I01
sg18
I01
sg19
F0.2
sg20
I1
sg21
I21
sg22
g23
sg24
I01
sasI185
(lp393
I00
a(dp394
g3
I40
sg4
I2
sg5
I00
sg6
I215
sg7
F0.2
sg8
I7
sg9
I64
sg10
I4
sg11
I20
sg12
I32
sg13
I82
sg14
I01
sg15
F0.05
sg16
I00
sg17
I01
sg18
I01
sg19
F0.2
sg20
I1
sg21
I21
sg22
g23
sg24
I01
sasI186
(lp395
I00
a(dp396
g3
I54
sg4
I2
sg5
I00
sg6
I438
sg7
F0.1
sg8
I7
sg9
I32
sg10
I4
sg11
I20
sg12
I53
sg13
I46
sg14
I01
sg15
F0.05
sg16
I00
sg17
I01
sg18
I01
sg19
F0.0
sg20
I1
sg21
I23
sg22
g23
sg24
I01
sasI187
(lp397
I00
a(dp398
g3
I75
sg4
I2
sg5
I00
sg6
I332
sg7
F0.2
sg8
I7
sg9
I64
sg10
I4
sg11
I20
sg12
I60
sg13
I57
sg14
I01
sg15
F0.05
sg16
I00
sg17
I01
sg18
I01
sg19
F0.3
sg20
I1
sg21
I9
sg22
g23
sg24
I01
sasI188
(lp399
I00
a(dp400
g3
I90
sg4
I2
sg5
I00
sg6
I324
sg7
F0.1
sg8
I7
sg9
I64
sg10
I4
sg11
I20
sg12
I87
sg13
I19
sg14
I01
sg15
F0.05
sg16
I00
sg17
I01
sg18
I01
sg19
F0.2
sg20
I1
sg21
I16
sg22
g23
sg24
I01
sasI189
(lp401
I00
a(dp402
g3
I35
sg4
I2
sg5
I00
sg6
I482
sg7
F0.4
sg8
I7
sg9
I16
sg10
I4
sg11
I20
sg12
I41
sg13
I12
sg14
I01
sg15
F0.05
sg16
I00
sg17
I01
sg18
I01
sg19
F0.0
sg20
I1
sg21
I10
sg22
g23
sg24
I01
sasI190
(lp403
I00
a(dp404
g3
I47
sg4
I2
sg5
I00
sg6
I460
sg7
F0.2
sg8
I7
sg9
I16
sg10
I4
sg11
I20
sg12
I12
sg13
I16
sg14
I01
sg15
F0.05
sg16
I00
sg17
I01
sg18
I01
sg19
F0.2
sg20
I1
sg21
I48
sg22
g23
sg24
I01
sasI191
(lp405
I00
a(dp406
g3
I13
sg4
I2
sg5
I00
sg6
I243
sg7
F0.3
sg8
I7
sg9
I32
sg10
I4
sg11
I20
sg12
I94
sg13
I5
sg14
I01
sg15
F0.05
sg16
I00
sg17
I01
sg18
I01
sg19
F0.2
sg20
I1
sg21
I12
sg22
g23
sg24
I01
sasI192
(lp407
I00
a(dp408
g3
I79
sg4
I2
sg5
I00
sg6
I383
sg7
F0.3
sg8
I7
sg9
I32
sg10
I4
sg11
I20
sg12
I35
sg13
I18
sg14
I01
sg15
F0.05
sg16
I00
sg17
I01
sg18
I01
sg19
F0.2
sg20
I1
sg21
I28
sg22
g23
sg24
I01
sasI193
(lp409
I00
a(dp410
g3
I86
sg4
I2
sg5
I00
sg6
I452
sg7
F0.1
sg8
I7
sg9
I32
sg10
I4
sg11
I20
sg12
I66
sg13
I20
sg14
I01
sg15
F0.05
sg16
I00
sg17
I01
sg18
I01
sg19
F0.2
sg20
I1
sg21
I47
sg22
g23
sg24
I01
sasI194
(lp411
I00
a(dp412
g3
I83
sg4
I2
sg5
I00
sg6
I450
sg7
F0.1
sg8
I7
sg9
I128
sg10
I4
sg11
I20
sg12
I70
sg13
I34
sg14
I01
sg15
F0.05
sg16
I00
sg17
I01
sg18
I01
sg19
F0.2
sg20
I1
sg21
I26
sg22
g23
sg24
I01
sasI195
(lp413
I00
a(dp414
g3
I16
sg4
I2
sg5
I00
sg6
I311
sg7
F0.2
sg8
I7
sg9
I128
sg10
I4
sg11
I20
sg12
I12
sg13
I62
sg14
I01
sg15
F0.05
sg16
I00
sg17
I01
sg18
I01
sg19
F0.3
sg20
I1
sg21
I32
sg22
g23
sg24
I01
sasI196
(lp415
I00
a(dp416
g3
I53
sg4
I2
sg5
I00
sg6
I342
sg7
F0.1
sg8
I7
sg9
I16
sg10
I4
sg11
I20
sg12
I66
sg13
I45
sg14
I01
sg15
F0.05
sg16
I00
sg17
I01
sg18
I01
sg19
F0.4
sg20
I1
sg21
I20
sg22
g23
sg24
I01
sasI197
(lp417
I00
a(dp418
g3
I52
sg4
I2
sg5
I00
sg6
I203
sg7
F0.1
sg8
I7
sg9
I16
sg10
I4
sg11
I20
sg12
I46
sg13
I11
sg14
I01
sg15
F0.05
sg16
I00
sg17
I01
sg18
I01
sg19
F0.4
sg20
I1
sg21
I25
sg22
g23
sg24
I01
sasI198
(lp419
I00
a(dp420
g3
I90
sg4
I2
sg5
I00
sg6
I395
sg7
F0.3
sg8
I7
sg9
I16
sg10
I4
sg11
I20
sg12
I58
sg13
I49
sg14
I01
sg15
F0.05
sg16
I00
sg17
I01
sg18
I01
sg19
F0.3
sg20
I1
sg21
I9
sg22
g23
sg24
I01
sasI199
(lp421
I00
a(dp422
g3
I47
sg4
I2
sg5
I00
sg6
I384
sg7
F0.1
sg8
I7
sg9
I128
sg10
I4
sg11
I20
sg12
I87
sg13
I8
sg14
I01
sg15
F0.05
sg16
I00
sg17
I01
sg18
I01
sg19
F0.3
sg20
I1
sg21
I45
sg22
g23
sg24
I01
sasI200
(lp423
I00
a(dp424
g3
I34
sg4
I2
sg5
I00
sg6
I239
sg7
F0.4
sg8
I7
sg9
I128
sg10
I4
sg11
I20
sg12
I86
sg13
I81
sg14
I01
sg15
F0.05
sg16
I00
sg17
I01
sg18
I01
sg19
F0.4
sg20
I1
sg21
I34
sg22
g23
sg24
I01
sasI201
(lp425
I00
a(dp426
g3
I30
sg4
I2
sg5
I00
sg6
I362
sg7
F0.1
sg8
I7
sg9
I16
sg10
I4
sg11
I20
sg12
I73
sg13
I54
sg14
I01
sg15
F0.05
sg16
I00
sg17
I01
sg18
I01
sg19
F0.0
sg20
I1
sg21
I48
sg22
g23
sg24
I01
sasI202
(lp427
I00
a(dp428
g3
I94
sg4
I2
sg5
I00
sg6
I353
sg7
F0.3
sg8
I7
sg9
I32
sg10
I4
sg11
I20
sg12
I24
sg13
I21
sg14
I01
sg15
F0.05
sg16
I00
sg17
I01
sg18
I01
sg19
F0.1
sg20
I1
sg21
I18
sg22
g23
sg24
I01
sasI203
(lp429
I00
a(dp430
g3
I11
sg4
I2
sg5
I00
sg6
I346
sg7
F0.2
sg8
I7
sg9
I16
sg10
I4
sg11
I20
sg12
I98
sg13
I45
sg14
I01
sg15
F0.05
sg16
I00
sg17
I01
sg18
I01
sg19
F0.2
sg20
I1
sg21
I13
sg22
g23
sg24
I01
sasI204
(lp431
I00
a(dp432
g3
I41
sg4
I2
sg5
I00
sg6
I204
sg7
F0.4
sg8
I7
sg9
I32
sg10
I4
sg11
I20
sg12
I88
sg13
I33
sg14
I01
sg15
F0.05
sg16
I00
sg17
I01
sg18
I01
sg19
F0.4
sg20
I1
sg21
I8
sg22
g23
sg24
I01
sasI205
(lp433
I00
a(dp434
g3
I39
sg4
I2
sg5
I00
sg6
I495
sg7
F0.1
sg8
I7
sg9
I128
sg10
I4
sg11
I20
sg12
I23
sg13
I88
sg14
I01
sg15
F0.05
sg16
I00
sg17
I01
sg18
I01
sg19
F0.2
sg20
I1
sg21
I46
sg22
g23
sg24
I01
sasI206
(lp435
I00
a(dp436
g3
I66
sg4
I2
sg5
I00
sg6
I331
sg7
F0.3
sg8
I7
sg9
I64
sg10
I4
sg11
I20
sg12
I98
sg13
I23
sg14
I01
sg15
F0.05
sg16
I00
sg17
I01
sg18
I01
sg19
F0.4
sg20
I1
sg21
I37
sg22
g23
sg24
I01
sasI207
(lp437
I00
a(dp438
g3
I66
sg4
I2
sg5
I00
sg6
I409
sg7
F0.3
sg8
I7
sg9
I16
sg10
I4
sg11
I20
sg12
I12
sg13
I77
sg14
I01
sg15
F0.05
sg16
I00
sg17
I01
sg18
I01
sg19
F0.0
sg20
I1
sg21
I29
sg22
g23
sg24
I01
sasI208
(lp439
I00
a(dp440
g3
I81
sg4
I2
sg5
I00
sg6
I219
sg7
F0.3
sg8
I7
sg9
I128
sg10
I4
sg11
I20
sg12
I93
sg13
I91
sg14
I01
sg15
F0.05
sg16
I00
sg17
I01
sg18
I01
sg19
F0.4
sg20
I1
sg21
I10
sg22
g23
sg24
I01
sasI209
(lp441
I00
a(dp442
g3
I84
sg4
I2
sg5
I00
sg6
I438
sg7
F0.3
sg8
I7
sg9
I32
sg10
I4
sg11
I20
sg12
I37
sg13
I83
sg14
I01
sg15
F0.05
sg16
I00
sg17
I01
sg18
I01
sg19
F0.4
sg20
I1
sg21
I31
sg22
g23
sg24
I01
sasI210
(lp443
I00
a(dp444
g3
I86
sg4
I2
sg5
I00
sg6
I262
sg7
F0.4
sg8
I7
sg9
I128
sg10
I4
sg11
I20
sg12
I72
sg13
I47
sg14
I01
sg15
F0.05
sg16
I00
sg17
I01
sg18
I01
sg19
F0.2
sg20
I1
sg21
I37
sg22
g23
sg24
I01
sasI211
(lp445
I00
a(dp446
g3
I84
sg4
I2
sg5
I00
sg6
I490
sg7
F0.3
sg8
I7
sg9
I32
sg10
I4
sg11
I20
sg12
I28
sg13
I95
sg14
I01
sg15
F0.05
sg16
I00
sg17
I01
sg18
I01
sg19
F0.0
sg20
I1
sg21
I26
sg22
g23
sg24
I01
sasI212
(lp447
I00
a(dp448
g3
I82
sg4
I2
sg5
I00
sg6
I411
sg7
F0.4
sg8
I7
sg9
I64
sg10
I4
sg11
I20
sg12
I33
sg13
I41
sg14
I01
sg15
F0.05
sg16
I00
sg17
I01
sg18
I01
sg19
F0.3
sg20
I1
sg21
I33
sg22
g23
sg24
I01
sasI213
(lp449
I00
a(dp450
g3
I31
sg4
I2
sg5
I00
sg6
I378
sg7
F0.1
sg8
I7
sg9
I32
sg10
I4
sg11
I20
sg12
I8
sg13
I80
sg14
I01
sg15
F0.05
sg16
I00
sg17
I01
sg18
I01
sg19
F0.3
sg20
I1
sg21
I11
sg22
g23
sg24
I01
sasI214
(lp451
I00
a(dp452
g3
I44
sg4
I2
sg5
I00
sg6
I348
sg7
F0.2
sg8
I7
sg9
I64
sg10
I4
sg11
I20
sg12
I24
sg13
I65
sg14
I01
sg15
F0.05
sg16
I00
sg17
I01
sg18
I01
sg19
F0.3
sg20
I1
sg21
I42
sg22
g23
sg24
I01
sasI215
(lp453
I00
a(dp454
g3
I32
sg4
I2
sg5
I00
sg6
I365
sg7
F0.3
sg8
I7
sg9
I16
sg10
I4
sg11
I20
sg12
I16
sg13
I40
sg14
I01
sg15
F0.05
sg16
I00
sg17
I01
sg18
I01
sg19
F0.3
sg20
I1
sg21
I46
sg22
g23
sg24
I01
sasI216
(lp455
I00
a(dp456
g3
I69
sg4
I2
sg5
I00
sg6
I496
sg7
F0.1
sg8
I7
sg9
I128
sg10
I4
sg11
I20
sg12
I87
sg13
I88
sg14
I01
sg15
F0.05
sg16
I00
sg17
I01
sg18
I01
sg19
F0.3
sg20
I1
sg21
I36
sg22
g23
sg24
I01
sasI217
(lp457
I00
a(dp458
g3
I70
sg4
I2
sg5
I00
sg6
I351
sg7
F0.2
sg8
I7
sg9
I16
sg10
I4
sg11
I20
sg12
I63
sg13
I16
sg14
I01
sg15
F0.05
sg16
I00
sg17
I01
sg18
I01
sg19
F0.1
sg20
I1
sg21
I22
sg22
g23
sg24
I01
sasI218
(lp459
I00
a(dp460
g3
I42
sg4
I2
sg5
I00
sg6
I388
sg7
F0.3
sg8
I7
sg9
I128
sg10
I4
sg11
I20
sg12
I48
sg13
I24
sg14
I01
sg15
F0.05
sg16
I00
sg17
I01
sg18
I01
sg19
F0.1
sg20
I1
sg21
I23
sg22
g23
sg24
I01
sasI219
(lp461
I00
a(dp462
g3
I64
sg4
I2
sg5
I00
sg6
I424
sg7
F0.0
sg8
I7
sg9
I64
sg10
I4
sg11
I20
sg12
I45
sg13
I40
sg14
I01
sg15
F0.05
sg16
I00
sg17
I01
sg18
I01
sg19
F0.4
sg20
I1
sg21
I27
sg22
g23
sg24
I01
sasI220
(lp463
I00
a(dp464
g3
I43
sg4
I2
sg5
I00
sg6
I439
sg7
F0.4
sg8
I7
sg9
I32
sg10
I4
sg11
I20
sg12
I63
sg13
I30
sg14
I01
sg15
F0.05
sg16
I00
sg17
I01
sg18
I01
sg19
F0.2
sg20
I1
sg21
I13
sg22
g23
sg24
I01
sasI221
(lp465
I00
a(dp466
g3
I83
sg4
I2
sg5
I00
sg6
I498
sg7
F0.1
sg8
I7
sg9
I16
sg10
I4
sg11
I20
sg12
I27
sg13
I57
sg14
I01
sg15
F0.05
sg16
I00
sg17
I01
sg18
I01
sg19
F0.2
sg20
I1
sg21
I31
sg22
g23
sg24
I01
sasI222
(lp467
I00
a(dp468
g3
I29
sg4
I2
sg5
I00
sg6
I316
sg7
F0.1
sg8
I7
sg9
I32
sg10
I4
sg11
I20
sg12
I61
sg13
I47
sg14
I01
sg15
F0.05
sg16
I00
sg17
I01
sg18
I01
sg19
F0.2
sg20
I1
sg21
I32
sg22
g23
sg24
I01
sasI223
(lp469
I00
a(dp470
g3
I41
sg4
I2
sg5
I00
sg6
I311
sg7
F0.3
sg8
I7
sg9
I64
sg10
I4
sg11
I20
sg12
I18
sg13
I50
sg14
I01
sg15
F0.05
sg16
I00
sg17
I01
sg18
I01
sg19
F0.2
sg20
I1
sg21
I42
sg22
g23
sg24
I01
sasI224
(lp471
I00
a(dp472
g3
I72
sg4
I2
sg5
I00
sg6
I429
sg7
F0.1
sg8
I7
sg9
I16
sg10
I4
sg11
I20
sg12
I38
sg13
I90
sg14
I01
sg15
F0.05
sg16
I00
sg17
I01
sg18
I01
sg19
F0.1
sg20
I1
sg21
I8
sg22
g23
sg24
I01
sasI225
(lp473
I00
a(dp474
g3
I21
sg4
I2
sg5
I00
sg6
I446
sg7
F0.2
sg8
I7
sg9
I64
sg10
I4
sg11
I20
sg12
I53
sg13
I79
sg14
I01
sg15
F0.05
sg16
I00
sg17
I01
sg18
I01
sg19
F0.0
sg20
I1
sg21
I12
sg22
g23
sg24
I01
sasI226
(lp475
I00
a(dp476
g3
I85
sg4
I2
sg5
I00
sg6
I350
sg7
F0.3
sg8
I7
sg9
I128
sg10
I4
sg11
I20
sg12
I43
sg13
I27
sg14
I01
sg15
F0.05
sg16
I00
sg17
I01
sg18
I01
sg19
F0.2
sg20
I1
sg21
I40
sg22
g23
sg24
I01
sasI227
(lp477
I00
a(dp478
g3
I38
sg4
I2
sg5
I00
sg6
I429
sg7
F0.2
sg8
I7
sg9
I128
sg10
I4
sg11
I20
sg12
I58
sg13
I79
sg14
I01
sg15
F0.05
sg16
I00
sg17
I01
sg18
I01
sg19
F0.1
sg20
I1
sg21
I16
sg22
g23
sg24
I01
sasI228
(lp479
I00
a(dp480
g3
I40
sg4
I2
sg5
I00
sg6
I392
sg7
F0.2
sg8
I7
sg9
I16
sg10
I4
sg11
I20
sg12
I34
sg13
I67
sg14
I01
sg15
F0.05
sg16
I00
sg17
I01
sg18
I01
sg19
F0.3
sg20
I1
sg21
I11
sg22
g23
sg24
I01
sasI229
(lp481
I00
a(dp482
g3
I74
sg4
I2
sg5
I00
sg6
I485
sg7
F0.1
sg8
I7
sg9
I16
sg10
I4
sg11
I20
sg12
I95
sg13
I40
sg14
I01
sg15
F0.05
sg16
I00
sg17
I01
sg18
I01
sg19
F0.0
sg20
I1
sg21
I9
sg22
g23
sg24
I01
sasI230
(lp483
I00
a(dp484
g3
I89
sg4
I2
sg5
I00
sg6
I246
sg7
F0.1
sg8
I7
sg9
I64
sg10
I4
sg11
I20
sg12
I79
sg13
I76
sg14
I01
sg15
F0.05
sg16
I00
sg17
I01
sg18
I01
sg19
F0.1
sg20
I1
sg21
I45
sg22
g23
sg24
I01
sasI231
(lp485
I00
a(dp486
g3
I56
sg4
I2
sg5
I00
sg6
I393
sg7
F0.2
sg8
I7
sg9
I32
sg10
I4
sg11
I20
sg12
I50
sg13
I23
sg14
I01
sg15
F0.05
sg16
I00
sg17
I01
sg18
I01
sg19
F0.1
sg20
I1
sg21
I45
sg22
g23
sg24
I01
sasI232
(lp487
I00
a(dp488
g3
I44
sg4
I2
sg5
I00
sg6
I485
sg7
F0.2
sg8
I7
sg9
I128
sg10
I4
sg11
I20
sg12
I81
sg13
I97
sg14
I01
sg15
F0.05
sg16
I00
sg17
I01
sg18
I01
sg19
F0.3
sg20
I1
sg21
I36
sg22
g23
sg24
I01
sasI233
(lp489
I00
a(dp490
g3
I89
sg4
I2
sg5
I00
sg6
I232
sg7
F0.4
sg8
I7
sg9
I16
sg10
I4
sg11
I20
sg12
I13
sg13
I93
sg14
I01
sg15
F0.05
sg16
I00
sg17
I01
sg18
I01
sg19
F0.0
sg20
I1
sg21
I25
sg22
g23
sg24
I01
sasI234
(lp491
I00
a(dp492
g3
I46
sg4
I2
sg5
I00
sg6
I402
sg7
F0.1
sg8
I7
sg9
I16
sg10
I4
sg11
I20
sg12
I19
sg13
I97
sg14
I01
sg15
F0.05
sg16
I00
sg17
I01
sg18
I01
sg19
F0.1
sg20
I1
sg21
I29
sg22
g23
sg24
I01
sasI235
(lp493
I00
a(dp494
g3
I22
sg4
I2
sg5
I00
sg6
I415
sg7
F0.2
sg8
I7
sg9
I16
sg10
I4
sg11
I20
sg12
I19
sg13
I79
sg14
I01
sg15
F0.05
sg16
I00
sg17
I01
sg18
I01
sg19
F0.2
sg20
I1
sg21
I45
sg22
g23
sg24
I01
sasI236
(lp495
I00
a(dp496
g3
I46
sg4
I2
sg5
I00
sg6
I459
sg7
F0.2
sg8
I7
sg9
I128
sg10
I4
sg11
I20
sg12
I29
sg13
I42
sg14
I01
sg15
F0.05
sg16
I00
sg17
I01
sg18
I01
sg19
F0.0
sg20
I1
sg21
I14
sg22
g23
sg24
I01
sasI237
(lp497
I00
a(dp498
g3
I44
sg4
I2
sg5
I00
sg6
I231
sg7
F0.0
sg8
I7
sg9
I32
sg10
I4
sg11
I20
sg12
I25
sg13
I89
sg14
I01
sg15
F0.05
sg16
I00
sg17
I01
sg18
I01
sg19
F0.4
sg20
I1
sg21
I15
sg22
g23
sg24
I01
sasI238
(lp499
I00
a(dp500
g3
I55
sg4
I2
sg5
I00
sg6
I414
sg7
F0.3
sg8
I7
sg9
I16
sg10
I4
sg11
I20
sg12
I28
sg13
I46
sg14
I01
sg15
F0.05
sg16
I00
sg17
I01
sg18
I01
sg19
F0.3
sg20
I1
sg21
I32
sg22
g23
sg24
I01
sasI239
(lp501
I00
a(dp502
g3
I45
sg4
I2
sg5
I00
sg6
I443
sg7
F0.4
sg8
I7
sg9
I16
sg10
I4
sg11
I20
sg12
I31
sg13
I57
sg14
I01
sg15
F0.05
sg16
I00
sg17
I01
sg18
I01
sg19
F0.1
sg20
I1
sg21
I31
sg22
g23
sg24
I01
sasI240
(lp503
I00
a(dp504
g3
I46
sg4
I2
sg5
I00
sg6
I450
sg7
F0.3
sg8
I7
sg9
I64
sg10
I4
sg11
I20
sg12
I83
sg13
I92
sg14
I01
sg15
F0.05
sg16
I00
sg17
I01
sg18
I01
sg19
F0.2
sg20
I1
sg21
I35
sg22
g23
sg24
I01
sasI241
(lp505
I00
a(dp506
g3
I68
sg4
I2
sg5
I00
sg6
I441
sg7
F0.0
sg8
I7
sg9
I16
sg10
I4
sg11
I20
sg12
I20
sg13
I80
sg14
I01
sg15
F0.05
sg16
I00
sg17
I01
sg18
I01
sg19
F0.2
sg20
I1
sg21
I34
sg22
g23
sg24
I01
sasI242
(lp507
I00
a(dp508
g3
I62
sg4
I2
sg5
I00
sg6
I346
sg7
F0.1
sg8
I7
sg9
I32
sg10
I4
sg11
I20
sg12
I54
sg13
I49
sg14
I01
sg15
F0.05
sg16
I00
sg17
I01
sg18
I01
sg19
F0.2
sg20
I1
sg21
I27
sg22
g23
sg24
I01
sasI243
(lp509
I00
a(dp510
g3
I70
sg4
I2
sg5
I00
sg6
I250
sg7
F0.1
sg8
I7
sg9
I32
sg10
I4
sg11
I20
sg12
I47
sg13
I42
sg14
I01
sg15
F0.05
sg16
I00
sg17
I01
sg18
I01
sg19
F0.0
sg20
I1
sg21
I36
sg22
g23
sg24
I01
sasI244
(lp511
I00
a(dp512
g3
I41
sg4
I2
sg5
I00
sg6
I362
sg7
F0.3
sg8
I7
sg9
I64
sg10
I4
sg11
I20
sg12
I11
sg13
I56
sg14
I01
sg15
F0.05
sg16
I00
sg17
I01
sg18
I01
sg19
F0.4
sg20
I1
sg21
I42
sg22
g23
sg24
I01
sasI245
(lp513
I00
a(dp514
g3
I45
sg4
I2
sg5
I00
sg6
I421
sg7
F0.1
sg8
I7
sg9
I64
sg10
I4
sg11
I20
sg12
I67
sg13
I12
sg14
I01
sg15
F0.05
sg16
I00
sg17
I01
sg18
I01
sg19
F0.3
sg20
I1
sg21
I25
sg22
g23
sg24
I01
sasI246
(lp515
I00
a(dp516
g3
I41
sg4
I2
sg5
I00
sg6
I216
sg7
F0.2
sg8
I7
sg9
I16
sg10
I4
sg11
I20
sg12
I19
sg13
I65
sg14
I01
sg15
F0.05
sg16
I00
sg17
I01
sg18
I01
sg19
F0.1
sg20
I1
sg21
I31
sg22
g23
sg24
I01
sasI247
(lp517
I00
a(dp518
g3
I51
sg4
I2
sg5
I00
sg6
I239
sg7
F0.0
sg8
I7
sg9
I128
sg10
I4
sg11
I20
sg12
I41
sg13
I33
sg14
I01
sg15
F0.05
sg16
I00
sg17
I01
sg18
I01
sg19
F0.4
sg20
I1
sg21
I26
sg22
g23
sg24
I01
sasI248
(lp519
I00
a(dp520
g3
I24
sg4
I2
sg5
I00
sg6
I425
sg7
F0.4
sg8
I7
sg9
I32
sg10
I4
sg11
I20
sg12
I9
sg13
I35
sg14
I01
sg15
F0.05
sg16
I00
sg17
I01
sg18
I01
sg19
F0.1
sg20
I1
sg21
I19
sg22
g23
sg24
I01
sasI249
(lp521
I00
a(dp522
g3
I61
sg4
I2
sg5
I00
sg6
I451
sg7
F0.1
sg8
I7
sg9
I128
sg10
I4
sg11
I20
sg12
I7
sg13
I65
sg14
I01
sg15
F0.05
sg16
I00
sg17
I01
sg18
I01
sg19
F0.2
sg20
I1
sg21
I46
sg22
g23
sg24
I01
sasI250
(lp523
I00
a(dp524
g3
I27
sg4
I2
sg5
I00
sg6
I380
sg7
F0.3
sg8
I7
sg9
I32
sg10
I4
sg11
I20
sg12
I45
sg13
I30
sg14
I01
sg15
F0.05
sg16
I00
sg17
I01
sg18
I01
sg19
F0.3
sg20
I1
sg21
I36
sg22
g23
sg24
I01
sasI251
(lp525
I00
a(dp526
g3
I45
sg4
I2
sg5
I00
sg6
I287
sg7
F0.4
sg8
I7
sg9
I32
sg10
I4
sg11
I20
sg12
I51
sg13
I65
sg14
I01
sg15
F0.05
sg16
I00
sg17
I01
sg18
I01
sg19
F0.4
sg20
I1
sg21
I20
sg22
g23
sg24
I01
sasI252
(lp527
I00
a(dp528
g3
I56
sg4
I2
sg5
I00
sg6
I340
sg7
F0.2
sg8
I7
sg9
I32
sg10
I4
sg11
I20
sg12
I90
sg13
I61
sg14
I01
sg15
F0.05
sg16
I00
sg17
I01
sg18
I01
sg19
F0.2
sg20
I1
sg21
I22
sg22
g23
sg24
I01
sasI253
(lp529
I00
a(dp530
g3
I10
sg4
I2
sg5
I00
sg6
I271
sg7
F0.2
sg8
I7
sg9
I32
sg10
I4
sg11
I20
sg12
I80
sg13
I86
sg14
I01
sg15
F0.05
sg16
I00
sg17
I01
sg18
I01
sg19
F0.2
sg20
I1
sg21
I22
sg22
g23
sg24
I01
sasI254
(lp531
I00
a(dp532
g3
I12
sg4
I2
sg5
I00
sg6
I305
sg7
F0.2
sg8
I7
sg9
I64
sg10
I4
sg11
I20
sg12
I17
sg13
I92
sg14
I01
sg15
F0.05
sg16
I00
sg17
I01
sg18
I01
sg19
F0.2
sg20
I1
sg21
I27
sg22
g23
sg24
I01
sasI255
(lp533
I00
a(dp534
g3
I28
sg4
I2
sg5
I00
sg6
I208
sg7
F0.1
sg8
I7
sg9
I32
sg10
I4
sg11
I20
sg12
I80
sg13
I99
sg14
I01
sg15
F0.05
sg16
I00
sg17
I01
sg18
I01
sg19
F0.2
sg20
I1
sg21
I42
sg22
g23
sg24
I01
sasI256
(lp535
I00
a(dp536
g3
I36
sg4
I2
sg5
I00
sg6
I491
sg7
F0.1
sg8
I7
sg9
I32
sg10
I4
sg11
I20
sg12
I74
sg13
I5
sg14
I01
sg15
F0.05
sg16
I00
sg17
I01
sg18
I01
sg19
F0.4
sg20
I1
sg21
I14
sg22
g23
sg24
I01
sasI257
(lp537
I00
a(dp538
g3
I67
sg4
I2
sg5
I00
sg6
I348
sg7
F0.4
sg8
I7
sg9
I64
sg10
I4
sg11
I20
sg12
I42
sg13
I73
sg14
I01
sg15
F0.05
sg16
I00
sg17
I01
sg18
I01
sg19
F0.3
sg20
I1
sg21
I47
sg22
g23
sg24
I01
sasI258
(lp539
I01
a(dp540
g3
I30
sg4
I2
sg5
I00
sg6
I429
sg7
F0.1
sg8
I7
sg9
I128
sg10
I4
sg11
I20
sg12
I17
sg13
I10
sg14
I01
sg15
F0.05
sg16
I00
sg17
I01
sg18
I01
sg19
F0.3
sg20
I1
sg21
I18
sg22
g23
sg24
I01
sasI259
(lp541
I00
a(dp542
g3
I92
sg4
I2
sg5
I00
sg6
I307
sg7
F0.0
sg8
I7
sg9
I32
sg10
I4
sg11
I20
sg12
I83
sg13
I74
sg14
I01
sg15
F0.05
sg16
I00
sg17
I01
sg18
I01
sg19
F0.3
sg20
I1
sg21
I11
sg22
g23
sg24
I01
sasI260
(lp543
I00
a(dp544
g3
I80
sg4
I2
sg5
I00
sg6
I438
sg7
F0.4
sg8
I7
sg9
I16
sg10
I4
sg11
I20
sg12
I93
sg13
I74
sg14
I01
sg15
F0.05
sg16
I00
sg17
I01
sg18
I01
sg19
F0.2
sg20
I1
sg21
I25
sg22
g23
sg24
I01
sasI261
(lp545
I00
a(dp546
g3
I97
sg4
I2
sg5
I00
sg6
I318
sg7
F0.2
sg8
I7
sg9
I128
sg10
I4
sg11
I20
sg12
I99
sg13
I30
sg14
I01
sg15
F0.05
sg16
I00
sg17
I01
sg18
I01
sg19
F0.1
sg20
I1
sg21
I31
sg22
g23
sg24
I01
sasI262
(lp547
I00
a(dp548
g3
I45
sg4
I2
sg5
I00
sg6
I326
sg7
F0.2
sg8
I7
sg9
I32
sg10
I4
sg11
I20
sg12
I62
sg13
I44
sg14
I01
sg15
F0.05
sg16
I00
sg17
I01
sg18
I01
sg19
F0.4
sg20
I1
sg21
I19
sg22
g23
sg24
I01
sasI263
(lp549
I00
a(dp550
g3
I38
sg4
I2
sg5
I00
sg6
I490
sg7
F0.4
sg8
I7
sg9
I32
sg10
I4
sg11
I20
sg12
I33
sg13
I23
sg14
I01
sg15
F0.05
sg16
I00
sg17
I01
sg18
I01
sg19
F0.3
sg20
I1
sg21
I7
sg22
g23
sg24
I01
sasI264
(lp551
I00
a(dp552
g3
I21
sg4
I2
sg5
I00
sg6
I258
sg7
F0.0
sg8
I7
sg9
I64
sg10
I4
sg11
I20
sg12
I92
sg13
I93
sg14
I01
sg15
F0.05
sg16
I00
sg17
I01
sg18
I01
sg19
F0.0
sg20
I1
sg21
I21
sg22
g23
sg24
I01
sasI265
(lp553
I00
a(dp554
g3
I25
sg4
I2
sg5
I00
sg6
I315
sg7
F0.4
sg8
I7
sg9
I32
sg10
I4
sg11
I20
sg12
I25
sg13
I73
sg14
I01
sg15
F0.05
sg16
I00
sg17
I01
sg18
I01
sg19
F0.4
sg20
I1
sg21
I15
sg22
g23
sg24
I01
sasI266
(lp555
I00
a(dp556
g3
I67
sg4
I2
sg5
I00
sg6
I483
sg7
F0.2
sg8
I7
sg9
I16
sg10
I4
sg11
I20
sg12
I22
sg13
I98
sg14
I01
sg15
F0.05
sg16
I00
sg17
I01
sg18
I01
sg19
F0.3
sg20
I1
sg21
I31
sg22
g23
sg24
I01
sasI267
(lp557
I00
a(dp558
g3
I28
sg4
I2
sg5
I00
sg6
I211
sg7
F0.4
sg8
I7
sg9
I32
sg10
I4
sg11
I20
sg12
I14
sg13
I35
sg14
I01
sg15
F0.05
sg16
I00
sg17
I01
sg18
I01
sg19
F0.3
sg20
I1
sg21
I47
sg22
g23
sg24
I01
sasI268
(lp559
I00
a(dp560
g3
I66
sg4
I2
sg5
I00
sg6
I428
sg7
F0.2
sg8
I7
sg9
I128
sg10
I4
sg11
I20
sg12
I65
sg13
I93
sg14
I01
sg15
F0.05
sg16
I00
sg17
I01
sg18
I01
sg19
F0.1
sg20
I1
sg21
I17
sg22
g23
sg24
I01
sasI269
(lp561
I00
a(dp562
g3
I82
sg4
I2
sg5
I00
sg6
I273
sg7
F0.4
sg8
I7
sg9
I64
sg10
I4
sg11
I20
sg12
I45
sg13
I55
sg14
I01
sg15
F0.05
sg16
I00
sg17
I01
sg18
I01
sg19
F0.3
sg20
I1
sg21
I44
sg22
g23
sg24
I01
sasI270
(lp563
I00
a(dp564
g3
I23
sg4
I2
sg5
I00
sg6
I258
sg7
F0.4
sg8
I7
sg9
I16
sg10
I4
sg11
I20
sg12
I87
sg13
I80
sg14
I01
sg15
F0.05
sg16
I00
sg17
I01
sg18
I01
sg19
F0.1
sg20
I1
sg21
I36
sg22
g23
sg24
I01
sasI271
(lp565
I00
a(dp566
g3
I48
sg4
I2
sg5
I00
sg6
I239
sg7
F0.2
sg8
I7
sg9
I128
sg10
I4
sg11
I20
sg12
I49
sg13
I54
sg14
I01
sg15
F0.05
sg16
I00
sg17
I01
sg18
I01
sg19
F0.4
sg20
I1
sg21
I46
sg22
g23
sg24
I01
sasI272
(lp567
I00
a(dp568
g3
I36
sg4
I2
sg5
I00
sg6
I210
sg7
F0.0
sg8
I7
sg9
I64
sg10
I4
sg11
I20
sg12
I84
sg13
I39
sg14
I01
sg15
F0.05
sg16
I00
sg17
I01
sg18
I01
sg19
F0.1
sg20
I1
sg21
I20
sg22
g23
sg24
I01
sasI273
(lp569
I00
a(dp570
g3
I41
sg4
I2
sg5
I00
sg6
I441
sg7
F0.0
sg8
I7
sg9
I128
sg10
I4
sg11
I20
sg12
I60
sg13
I45
sg14
I01
sg15
F0.05
sg16
I00
sg17
I01
sg18
I01
sg19
F0.4
sg20
I1
sg21
I7
sg22
g23
sg24
I01
sasI274
(lp571
I00
a(dp572
g3
I22
sg4
I2
sg5
I00
sg6
I307
sg7
F0.1
sg8
I7
sg9
I128
sg10
I4
sg11
I20
sg12
I67
sg13
I62
sg14
I01
sg15
F0.05
sg16
I00
sg17
I01
sg18
I01
sg19
F0.2
sg20
I1
sg21
I19
sg22
g23
sg24
I01
sasI275
(lp573
I00
a(dp574
g3
I43
sg4
I2
sg5
I00
sg6
I381
sg7
F0.3
sg8
I7
sg9
I64
sg10
I4
sg11
I20
sg12
I29
sg13
I91
sg14
I01
sg15
F0.05
sg16
I00
sg17
I01
sg18
I01
sg19
F0.0
sg20
I1
sg21
I37
sg22
g23
sg24
I01
sasI276
(lp575
I00
a(dp576
g3
I17
sg4
I2
sg5
I00
sg6
I210
sg7
F0.1
sg8
I7
sg9
I128
sg10
I4
sg11
I20
sg12
I25
sg13
I31
sg14
I01
sg15
F0.05
sg16
I00
sg17
I01
sg18
I01
sg19
F0.4
sg20
I1
sg21
I22
sg22
g23
sg24
I01
sasI277
(lp577
I01
a(dp578
g3
I11
sg4
I2
sg5
I00
sg6
I203
sg7
F0.1
sg8
I7
sg9
I16
sg10
I4
sg11
I20
sg12
I46
sg13
I8
sg14
I01
sg15
F0.05
sg16
I00
sg17
I01
sg18
I01
sg19
F0.0
sg20
I1
sg21
I32
sg22
g23
sg24
I01
sasI278
(lp579
I00
a(dp580
g3
I98
sg4
I2
sg5
I00
sg6
I481
sg7
F0.2
sg8
I7
sg9
I64
sg10
I4
sg11
I20
sg12
I35
sg13
I41
sg14
I01
sg15
F0.05
sg16
I00
sg17
I01
sg18
I01
sg19
F0.2
sg20
I1
sg21
I31
sg22
g23
sg24
I01
sasI279
(lp581
I00
a(dp582
g3
I24
sg4
I2
sg5
I00
sg6
I217
sg7
F0.3
sg8
I7
sg9
I64
sg10
I4
sg11
I20
sg12
I55
sg13
I42
sg14
I01
sg15
F0.05
sg16
I00
sg17
I01
sg18
I01
sg19
F0.4
sg20
I1
sg21
I10
sg22
g23
sg24
I01
sasI280
(lp583
I00
a(dp584
g3
I29
sg4
I2
sg5
I00
sg6
I472
sg7
F0.0
sg8
I7
sg9
I64
sg10
I4
sg11
I20
sg12
I82
sg13
I38
sg14
I01
sg15
F0.05
sg16
I00
sg17
I01
sg18
I01
sg19
F0.0
sg20
I1
sg21
I15
sg22
g23
sg24
I01
sasI281
(lp585
I00
a(dp586
g3
I45
sg4
I2
sg5
I00
sg6
I481
sg7
F0.2
sg8
I7
sg9
I16
sg10
I4
sg11
I20
sg12
I25
sg13
I36
sg14
I01
sg15
F0.05
sg16
I00
sg17
I01
sg18
I01
sg19
F0.4
sg20
I1
sg21
I22
sg22
g23
sg24
I01
sasI282
(lp587
I00
a(dp588
g3
I32
sg4
I2
sg5
I00
sg6
I290
sg7
F0.3
sg8
I7
sg9
I32
sg10
I4
sg11
I20
sg12
I15
sg13
I83
sg14
I01
sg15
F0.05
sg16
I00
sg17
I01
sg18
I01
sg19
F0.1
sg20
I1
sg21
I25
sg22
g23
sg24
I01
sasI283
(lp589
I00
a(dp590
g3
I35
sg4
I2
sg5
I00
sg6
I421
sg7
F0.3
sg8
I7
sg9
I64
sg10
I4
sg11
I20
sg12
I63
sg13
I94
sg14
I01
sg15
F0.05
sg16
I00
sg17
I01
sg18
I01
sg19
F0.3
sg20
I1
sg21
I6
sg22
g23
sg24
I01
sasI284
(lp591
I00
a(dp592
g3
I73
sg4
I2
sg5
I00
sg6
I323
sg7
F0.4
sg8
I7
sg9
I128
sg10
I4
sg11
I20
sg12
I60
sg13
I92
sg14
I01
sg15
F0.05
sg16
I00
sg17
I01
sg18
I01
sg19
F0.1
sg20
I1
sg21
I33
sg22
g23
sg24
I01
sasI285
(lp593
I00
a(dp594
g3
I15
sg4
I2
sg5
I00
sg6
I471
sg7
F0.2
sg8
I7
sg9
I32
sg10
I4
sg11
I20
sg12
I39
sg13
I5
sg14
I01
sg15
F0.05
sg16
I00
sg17
I01
sg18
I01
sg19
F0.3
sg20
I1
sg21
I13
sg22
g23
sg24
I01
sasI286
(lp595
I00
a(dp596
g3
I88
sg4
I2
sg5
I00
sg6
I287
sg7
F0.3
sg8
I7
sg9
I64
sg10
I4
sg11
I20
sg12
I30
sg13
I14
sg14
I01
sg15
F0.05
sg16
I00
sg17
I01
sg18
I01
sg19
F0.4
sg20
I1
sg21
I10
sg22
g23
sg24
I01
sasI287
(lp597
I00
a(dp598
g3
I87
sg4
I2
sg5
I00
sg6
I390
sg7
F0.1
sg8
I7
sg9
I64
sg10
I4
sg11
I20
sg12
I56
sg13
I74
sg14
I01
sg15
F0.05
sg16
I00
sg17
I01
sg18
I01
sg19
F0.3
sg20
I1
sg21
I9
sg22
g23
sg24
I01
sasI288
(lp599
I00
a(dp600
g3
I86
sg4
I2
sg5
I00
sg6
I329
sg7
F0.2
sg8
I7
sg9
I64
sg10
I4
sg11
I20
sg12
I61
sg13
I62
sg14
I01
sg15
F0.05
sg16
I00
sg17
I01
sg18
I01
sg19
F0.2
sg20
I1
sg21
I46
sg22
g23
sg24
I01
sasI289
(lp601
I00
a(dp602
g3
I38
sg4
I2
sg5
I00
sg6
I290
sg7
F0.0
sg8
I7
sg9
I64
sg10
I4
sg11
I20
sg12
I65
sg13
I51
sg14
I01
sg15
F0.05
sg16
I00
sg17
I01
sg18
I01
sg19
F0.3
sg20
I1
sg21
I36
sg22
g23
sg24
I01
sasI290
(lp603
I00
a(dp604
g3
I22
sg4
I2
sg5
I00
sg6
I449
sg7
F0.1
sg8
I7
sg9
I16
sg10
I4
sg11
I20
sg12
I96
sg13
I30
sg14
I01
sg15
F0.05
sg16
I00
sg17
I01
sg18
I01
sg19
F0.0
sg20
I1
sg21
I22
sg22
g23
sg24
I01
sasI291
(lp605
I00
a(dp606
g3
I67
sg4
I2
sg5
I00
sg6
I372
sg7
F0.2
sg8
I7
sg9
I16
sg10
I4
sg11
I20
sg12
I52
sg13
I6
sg14
I01
sg15
F0.05
sg16
I00
sg17
I01
sg18
I01
sg19
F0.1
sg20
I1
sg21
I41
sg22
g23
sg24
I01
sasI292
(lp607
I00
a(dp608
g3
I31
sg4
I2
sg5
I00
sg6
I423
sg7
F0.3
sg8
I7
sg9
I128
sg10
I4
sg11
I20
sg12
I97
sg13
I71
sg14
I01
sg15
F0.05
sg16
I00
sg17
I01
sg18
I01
sg19
F0.1
sg20
I1
sg21
I44
sg22
g23
sg24
I01
sasI293
(lp609
I00
a(dp610
g3
I88
sg4
I2
sg5
I00
sg6
I304
sg7
F0.2
sg8
I7
sg9
I64
sg10
I4
sg11
I20
sg12
I97
sg13
I19
sg14
I01
sg15
F0.05
sg16
I00
sg17
I01
sg18
I01
sg19
F0.2
sg20
I1
sg21
I18
sg22
g23
sg24
I01
sasI294
(lp611
I00
a(dp612
g3
I14
sg4
I2
sg5
I00
sg6
I280
sg7
F0.1
sg8
I7
sg9
I64
sg10
I4
sg11
I20
sg12
I46
sg13
I92
sg14
I01
sg15
F0.05
sg16
I00
sg17
I01
sg18
I01
sg19
F0.0
sg20
I1
sg21
I25
sg22
g23
sg24
I01
sasI295
(lp613
I00
a(dp614
g3
I75
sg4
I2
sg5
I00
sg6
I487
sg7
F0.4
sg8
I7
sg9
I64
sg10
I4
sg11
I20
sg12
I39
sg13
I97
sg14
I01
sg15
F0.05
sg16
I00
sg17
I01
sg18
I01
sg19
F0.3
sg20
I1
sg21
I28
sg22
g23
sg24
I01
sasI296
(lp615
I00
a(dp616
g3
I34
sg4
I2
sg5
I00
sg6
I354
sg7
F0.2
sg8
I7
sg9
I16
sg10
I4
sg11
I20
sg12
I50
sg13
I98
sg14
I01
sg15
F0.05
sg16
I00
sg17
I01
sg18
I01
sg19
F0.3
sg20
I1
sg21
I36
sg22
g23
sg24
I01
sasI297
(lp617
I00
a(dp618
g3
I69
sg4
I2
sg5
I00
sg6
I361
sg7
F0.2
sg8
I7
sg9
I64
sg10
I4
sg11
I20
sg12
I88
sg13
I32
sg14
I01
sg15
F0.05
sg16
I00
sg17
I01
sg18
I01
sg19
F0.2
sg20
I1
sg21
I29
sg22
g23
sg24
I01
sasI298
(lp619
I00
a(dp620
g3
I43
sg4
I2
sg5
I00
sg6
I357
sg7
F0.4
sg8
I7
sg9
I128
sg10
I4
sg11
I20
sg12
I20
sg13
I42
sg14
I01
sg15
F0.05
sg16
I00
sg17
I01
sg18
I01
sg19
F0.2
sg20
I1
sg21
I6
sg22
g23
sg24
I01
sasI299
(lp621
I00
a(dp622
g3
I45
sg4
I2
sg5
I00
sg6
I346
sg7
F0.2
sg8
I7
sg9
I128
sg10
I4
sg11
I20
sg12
I16
sg13
I70
sg14
I01
sg15
F0.05
sg16
I00
sg17
I01
sg18
I01
sg19
F0.3
sg20
I1
sg21
I17
sg22
g23
sg24
I01
sasI300
(lp623
I00
a(dp624
g3
I28
sg4
I2
sg5
I00
sg6
I320
sg7
F0.2
sg8
I7
sg9
I128
sg10
I4
sg11
I20
sg12
I20
sg13
I16
sg14
I01
sg15
F0.05
sg16
I00
sg17
I01
sg18
I01
sg19
F0.4
sg20
I1
sg21
I38
sg22
g23
sg24
I01
sasI301
(lp625
I00
a(dp626
g3
I63
sg4
I2
sg5
I00
sg6
I363
sg7
F0.2
sg8
I7
sg9
I32
sg10
I4
sg11
I20
sg12
I47
sg13
I9
sg14
I01
sg15
F0.05
sg16
I00
sg17
I01
sg18
I01
sg19
F0.3
sg20
I1
sg21
I47
sg22
g23
sg24
I01
sasI302
(lp627
I00
a(dp628
g3
I84
sg4
I2
sg5
I00
sg6
I443
sg7
F0.3
sg8
I7
sg9
I128
sg10
I4
sg11
I20
sg12
I35
sg13
I97
sg14
I01
sg15
F0.05
sg16
I00
sg17
I01
sg18
I01
sg19
F0.4
sg20
I1
sg21
I45
sg22
g23
sg24
I01
sasI303
(lp629
I00
a(dp630
g3
I72
sg4
I2
sg5
I00
sg6
I282
sg7
F0.2
sg8
I7
sg9
I128
sg10
I4
sg11
I20
sg12
I37
sg13
I72
sg14
I01
sg15
F0.05
sg16
I00
sg17
I01
sg18
I01
sg19
F0.2
sg20
I1
sg21
I43
sg22
g23
sg24
I01
sasI304
(lp631
I00
a(dp632
g3
I26
sg4
I2
sg5
I00
sg6
I220
sg7
F0.1
sg8
I7
sg9
I128
sg10
I4
sg11
I20
sg12
I72
sg13
I31
sg14
I01
sg15
F0.05
sg16
I00
sg17
I01
sg18
I01
sg19
F0.0
sg20
I1
sg21
I37
sg22
g23
sg24
I01
sasI305
(lp633
I00
a(dp634
g3
I35
sg4
I2
sg5
I00
sg6
I201
sg7
F0.1
sg8
I7
sg9
I64
sg10
I4
sg11
I20
sg12
I34
sg13
I90
sg14
I01
sg15
F0.05
sg16
I00
sg17
I01
sg18
I01
sg19
F0.3
sg20
I1
sg21
I27
sg22
g23
sg24
I01
sasI306
(lp635
I00
a(dp636
g3
I15
sg4
I2
sg5
I00
sg6
I343
sg7
F0.3
sg8
I7
sg9
I32
sg10
I4
sg11
I20
sg12
I92
sg13
I28
sg14
I01
sg15
F0.05
sg16
I00
sg17
I01
sg18
I01
sg19
F0.1
sg20
I1
sg21
I27
sg22
g23
sg24
I01
sasI307
(lp637
I00
a(dp638
g3
I22
sg4
I2
sg5
I00
sg6
I329
sg7
F0.3
sg8
I7
sg9
I16
sg10
I4
sg11
I20
sg12
I81
sg13
I46
sg14
I01
sg15
F0.05
sg16
I00
sg17
I01
sg18
I01
sg19
F0.2
sg20
I1
sg21
I19
sg22
g23
sg24
I01
sasI308
(lp639
I00
a(dp640
g3
I34
sg4
I2
sg5
I00
sg6
I361
sg7
F0.2
sg8
I7
sg9
I128
sg10
I4
sg11
I20
sg12
I44
sg13
I52
sg14
I01
sg15
F0.05
sg16
I00
sg17
I01
sg18
I01
sg19
F0.3
sg20
I1
sg21
I20
sg22
g23
sg24
I01
sasI309
(lp641
I00
a(dp642
g3
I29
sg4
I2
sg5
I00
sg6
I256
sg7
F0.4
sg8
I7
sg9
I16
sg10
I4
sg11
I20
sg12
I59
sg13
I29
sg14
I01
sg15
F0.05
sg16
I00
sg17
I01
sg18
I01
sg19
F0.1
sg20
I1
sg21
I15
sg22
g23
sg24
I01
sasI310
(lp643
I00
a(dp644
g3
I83
sg4
I2
sg5
I00
sg6
I205
sg7
F0.1
sg8
I7
sg9
I128
sg10
I4
sg11
I20
sg12
I85
sg13
I93
sg14
I01
sg15
F0.05
sg16
I00
sg17
I01
sg18
I01
sg19
F0.1
sg20
I1
sg21
I8
sg22
g23
sg24
I01
sasI311
(lp645
I00
a(dp646
g3
I69
sg4
I2
sg5
I00
sg6
I231
sg7
F0.2
sg8
I7
sg9
I128
sg10
I4
sg11
I20
sg12
I78
sg13
I40
sg14
I01
sg15
F0.05
sg16
I00
sg17
I01
sg18
I01
sg19
F0.2
sg20
I1
sg21
I29
sg22
g23
sg24
I01
sasI312
(lp647
I00
a(dp648
g3
I46
sg4
I2
sg5
I00
sg6
I429
sg7
F0.2
sg8
I7
sg9
I128
sg10
I4
sg11
I20
sg12
I57
sg13
I71
sg14
I01
sg15
F0.05
sg16
I00
sg17
I01
sg18
I01
sg19
F0.4
sg20
I1
sg21
I36
sg22
g23
sg24
I01
sasI313
(lp649
I00
a(dp650
g3
I51
sg4
I2
sg5
I00
sg6
I272
sg7
F0.4
sg8
I7
sg9
I64
sg10
I4
sg11
I20
sg12
I7
sg13
I66
sg14
I01
sg15
F0.05
sg16
I00
sg17
I01
sg18
I01
sg19
F0.2
sg20
I1
sg21
I19
sg22
g23
sg24
I01
sasI314
(lp651
I00
a(dp652
g3
I24
sg4
I2
sg5
I00
sg6
I349
sg7
F0.3
sg8
I7
sg9
I64
sg10
I4
sg11
I20
sg12
I79
sg13
I47
sg14
I01
sg15
F0.05
sg16
I00
sg17
I01
sg18
I01
sg19
F0.4
sg20
I1
sg21
I9
sg22
g23
sg24
I01
sasI315
(lp653
I00
a(dp654
g3
I89
sg4
I2
sg5
I00
sg6
I304
sg7
F0.3
sg8
I7
sg9
I16
sg10
I4
sg11
I20
sg12
I69
sg13
I60
sg14
I01
sg15
F0.05
sg16
I00
sg17
I01
sg18
I01
sg19
F0.1
sg20
I1
sg21
I35
sg22
g23
sg24
I01
sasI316
(lp655
I00
a(dp656
g3
I75
sg4
I2
sg5
I00
sg6
I412
sg7
F0.2
sg8
I7
sg9
I16
sg10
I4
sg11
I20
sg12
I80
sg13
I11
sg14
I01
sg15
F0.05
sg16
I00
sg17
I01
sg18
I01
sg19
F0.2
sg20
I1
sg21
I11
sg22
g23
sg24
I01
sasI317
(lp657
I00
a(dp658
g3
I92
sg4
I2
sg5
I00
sg6
I271
sg7
F0.0
sg8
I7
sg9
I16
sg10
I4
sg11
I20
sg12
I41
sg13
I65
sg14
I01
sg15
F0.05
sg16
I00
sg17
I01
sg18
I01
sg19
F0.2
sg20
I1
sg21
I27
sg22
g23
sg24
I01
sasI318
(lp659
I00
a(dp660
g3
I34
sg4
I2
sg5
I00
sg6
I246
sg7
F0.0
sg8
I7
sg9
I16
sg10
I4
sg11
I20
sg12
I10
sg13
I24
sg14
I01
sg15
F0.05
sg16
I00
sg17
I01
sg18
I01
sg19
F0.2
sg20
I1
sg21
I38
sg22
g23
sg24
I01
sasI319
(lp661
I01
a(dp662
g3
I49
sg4
I2
sg5
I00
sg6
I294
sg7
F0.2
sg8
I7
sg9
I16
sg10
I4
sg11
I20
sg12
I37
sg13
I35
sg14
I01
sg15
F0.05
sg16
I00
sg17
I01
sg18
I01
sg19
F0.3
sg20
I1
sg21
I44
sg22
g23
sg24
I01
sasI320
(lp663
I00
a(dp664
g3
I69
sg4
I2
sg5
I00
sg6
I324
sg7
F0.1
sg8
I7
sg9
I128
sg10
I4
sg11
I20
sg12
I72
sg13
I28
sg14
I01
sg15
F0.05
sg16
I00
sg17
I01
sg18
I01
sg19
F0.2
sg20
I1
sg21
I48
sg22
g23
sg24
I01
sasI321
(lp665
I00
a(dp666
g3
I88
sg4
I2
sg5
I00
sg6
I355
sg7
F0.2
sg8
I7
sg9
I32
sg10
I4
sg11
I20
sg12
I53
sg13
I37
sg14
I01
sg15
F0.05
sg16
I00
sg17
I01
sg18
I01
sg19
F0.4
sg20
I1
sg21
I9
sg22
g23
sg24
I01
sasI322
(lp667
I00
a(dp668
g3
I89
sg4
I2
sg5
I00
sg6
I445
sg7
F0.1
sg8
I7
sg9
I128
sg10
I4
sg11
I20
sg12
I44
sg13
I47
sg14
I01
sg15
F0.05
sg16
I00
sg17
I01
sg18
I01
sg19
F0.4
sg20
I1
sg21
I37
sg22
g23
sg24
I01
sasI323
(lp669
I00
a(dp670
g3
I98
sg4
I2
sg5
I00
sg6
I314
sg7
F0.0
sg8
I7
sg9
I16
sg10
I4
sg11
I20
sg12
I60
sg13
I12
sg14
I01
sg15
F0.05
sg16
I00
sg17
I01
sg18
I01
sg19
F0.1
sg20
I1
sg21
I30
sg22
g23
sg24
I01
sasI324
(lp671
I00
a(dp672
g3
I47
sg4
I2
sg5
I00
sg6
I477
sg7
F0.4
sg8
I7
sg9
I16
sg10
I4
sg11
I20
sg12
I54
sg13
I16
sg14
I01
sg15
F0.05
sg16
I00
sg17
I01
sg18
I01
sg19
F0.1
sg20
I1
sg21
I18
sg22
g23
sg24
I01
sasI325
(lp673
I00
a(dp674
g3
I44
sg4
I2
sg5
I00
sg6
I321
sg7
F0.3
sg8
I7
sg9
I128
sg10
I4
sg11
I20
sg12
I38
sg13
I34
sg14
I01
sg15
F0.05
sg16
I00
sg17
I01
sg18
I01
sg19
F0.1
sg20
I1
sg21
I20
sg22
g23
sg24
I01
sasI326
(lp675
I00
a(dp676
g3
I23
sg4
I2
sg5
I00
sg6
I219
sg7
F0.0
sg8
I7
sg9
I16
sg10
I4
sg11
I20
sg12
I97
sg13
I69
sg14
I01
sg15
F0.05
sg16
I00
sg17
I01
sg18
I01
sg19
F0.3
sg20
I1
sg21
I12
sg22
g23
sg24
I01
sasI327
(lp677
I00
a(dp678
g3
I88
sg4
I2
sg5
I00
sg6
I396
sg7
F0.2
sg8
I7
sg9
I64
sg10
I4
sg11
I20
sg12
I28
sg13
I99
sg14
I01
sg15
F0.05
sg16
I00
sg17
I01
sg18
I01
sg19
F0.3
sg20
I1
sg21
I46
sg22
g23
sg24
I01
sasI328
(lp679
I00
a(dp680
g3
I97
sg4
I2
sg5
I00
sg6
I365
sg7
F0.1
sg8
I7
sg9
I32
sg10
I4
sg11
I20
sg12
I54
sg13
I81
sg14
I01
sg15
F0.05
sg16
I00
sg17
I01
sg18
I01
sg19
F0.3
sg20
I1
sg21
I18
sg22
g23
sg24
I01
sasI329
(lp681
I00
a(dp682
g3
I65
sg4
I2
sg5
I00
sg6
I255
sg7
F0.2
sg8
I7
sg9
I128
sg10
I4
sg11
I20
sg12
I59
sg13
I29
sg14
I01
sg15
F0.05
sg16
I00
sg17
I01
sg18
I01
sg19
F0.2
sg20
I1
sg21
I12
sg22
g23
sg24
I01
sasI330
(lp683
I00
a(dp684
g3
I97
sg4
I2
sg5
I00
sg6
I392
sg7
F0.1
sg8
I7
sg9
I128
sg10
I4
sg11
I20
sg12
I23
sg13
I30
sg14
I01
sg15
F0.05
sg16
I00
sg17
I01
sg18
I01
sg19
F0.0
sg20
I1
sg21
I14
sg22
g23
sg24
I01
sasI331
(lp685
I00
a(dp686
g3
I90
sg4
I2
sg5
I00
sg6
I470
sg7
F0.1
sg8
I7
sg9
I64
sg10
I4
sg11
I20
sg12
I11
sg13
I49
sg14
I01
sg15
F0.05
sg16
I00
sg17
I01
sg18
I01
sg19
F0.3
sg20
I1
sg21
I43
sg22
g23
sg24
I01
sasI332
(lp687
I00
a(dp688
g3
I52
sg4
I2
sg5
I00
sg6
I499
sg7
F0.2
sg8
I7
sg9
I128
sg10
I4
sg11
I20
sg12
I92
sg13
I54
sg14
I01
sg15
F0.05
sg16
I00
sg17
I01
sg18
I01
sg19
F0.1
sg20
I1
sg21
I6
sg22
g23
sg24
I01
sasI333
(lp689
I00
a(dp690
g3
I63
sg4
I2
sg5
I00
sg6
I215
sg7
F0.2
sg8
I7
sg9
I32
sg10
I4
sg11
I20
sg12
I92
sg13
I60
sg14
I01
sg15
F0.05
sg16
I00
sg17
I01
sg18
I01
sg19
F0.3
sg20
I1
sg21
I33
sg22
g23
sg24
I01
sasI334
(lp691
I00
a(dp692
g3
I80
sg4
I2
sg5
I00
sg6
I233
sg7
F0.3
sg8
I7
sg9
I16
sg10
I4
sg11
I20
sg12
I15
sg13
I24
sg14
I01
sg15
F0.05
sg16
I00
sg17
I01
sg18
I01
sg19
F0.2
sg20
I1
sg21
I15
sg22
g23
sg24
I01
sasI335
(lp693
I00
a(dp694
g3
I50
sg4
I2
sg5
I00
sg6
I242
sg7
F0.1
sg8
I7
sg9
I64
sg10
I4
sg11
I20
sg12
I45
sg13
I75
sg14
I01
sg15
F0.05
sg16
I00
sg17
I01
sg18
I01
sg19
F0.1
sg20
I1
sg21
I15
sg22
g23
sg24
I01
sasI336
(lp695
I00
a(dp696
g3
I95
sg4
I2
sg5
I00
sg6
I348
sg7
F0.2
sg8
I7
sg9
I64
sg10
I4
sg11
I20
sg12
I83
sg13
I69
sg14
I01
sg15
F0.05
sg16
I00
sg17
I01
sg18
I01
sg19
F0.3
sg20
I1
sg21
I46
sg22
g23
sg24
I01
sasI337
(lp697
I00
a(dp698
g3
I97
sg4
I2
sg5
I00
sg6
I310
sg7
F0.3
sg8
I7
sg9
I128
sg10
I4
sg11
I20
sg12
I70
sg13
I83
sg14
I01
sg15
F0.05
sg16
I00
sg17
I01
sg18
I01
sg19
F0.2
sg20
I1
sg21
I11
sg22
g23
sg24
I01
sasI338
(lp699
I00
a(dp700
g3
I75
sg4
I2
sg5
I00
sg6
I443
sg7
F0.0
sg8
I7
sg9
I32
sg10
I4
sg11
I20
sg12
I30
sg13
I54
sg14
I01
sg15
F0.05
sg16
I00
sg17
I01
sg18
I01
sg19
F0.0
sg20
I1
sg21
I15
sg22
g23
sg24
I01
sasI339
(lp701
I00
a(dp702
g3
I23
sg4
I2
sg5
I00
sg6
I492
sg7
F0.3
sg8
I7
sg9
I64
sg10
I4
sg11
I20
sg12
I90
sg13
I18
sg14
I01
sg15
F0.05
sg16
I00
sg17
I01
sg18
I01
sg19
F0.3
sg20
I1
sg21
I5
sg22
g23
sg24
I01
sasI340
(lp703
I00
a(dp704
g3
I58
sg4
I2
sg5
I00
sg6
I406
sg7
F0.3
sg8
I7
sg9
I128
sg10
I4
sg11
I20
sg12
I56
sg13
I38
sg14
I01
sg15
F0.05
sg16
I00
sg17
I01
sg18
I01
sg19
F0.2
sg20
I1
sg21
I34
sg22
g23
sg24
I01
sasI341
(lp705
I00
a(dp706
g3
I40
sg4
I2
sg5
I00
sg6
I387
sg7
F0.4
sg8
I7
sg9
I32
sg10
I4
sg11
I20
sg12
I57
sg13
I20
sg14
I01
sg15
F0.05
sg16
I00
sg17
I01
sg18
I01
sg19
F0.1
sg20
I1
sg21
I16
sg22
g23
sg24
I01
sasI342
(lp707
I00
a(dp708
g3
I60
sg4
I2
sg5
I00
sg6
I261
sg7
F0.2
sg8
I7
sg9
I32
sg10
I4
sg11
I20
sg12
I7
sg13
I24
sg14
I01
sg15
F0.05
sg16
I00
sg17
I01
sg18
I01
sg19
F0.3
sg20
I1
sg21
I49
sg22
g23
sg24
I01
sasI343
(lp709
I00
a(dp710
g3
I12
sg4
I2
sg5
I00
sg6
I213
sg7
F0.4
sg8
I7
sg9
I16
sg10
I4
sg11
I20
sg12
I64
sg13
I22
sg14
I01
sg15
F0.05
sg16
I00
sg17
I01
sg18
I01
sg19
F0.0
sg20
I1
sg21
I37
sg22
g23
sg24
I01
sasI344
(lp711
I00
a(dp712
g3
I35
sg4
I2
sg5
I00
sg6
I349
sg7
F0.3
sg8
I7
sg9
I16
sg10
I4
sg11
I20
sg12
I66
sg13
I44
sg14
I01
sg15
F0.05
sg16
I00
sg17
I01
sg18
I01
sg19
F0.2
sg20
I1
sg21
I5
sg22
g23
sg24
I01
sasI345
(lp713
I00
a(dp714
g3
I34
sg4
I2
sg5
I00
sg6
I461
sg7
F0.1
sg8
I7
sg9
I16
sg10
I4
sg11
I20
sg12
I72
sg13
I84
sg14
I01
sg15
F0.05
sg16
I00
sg17
I01
sg18
I01
sg19
F0.2
sg20
I1
sg21
I21
sg22
g23
sg24
I01
sasI346
(lp715
I00
a(dp716
g3
I20
sg4
I2
sg5
I00
sg6
I472
sg7
F0.0
sg8
I7
sg9
I32
sg10
I4
sg11
I20
sg12
I9
sg13
I41
sg14
I01
sg15
F0.05
sg16
I00
sg17
I01
sg18
I01
sg19
F0.3
sg20
I1
sg21
I24
sg22
g23
sg24
I01
sasI347
(lp717
I00
a(dp718
g3
I70
sg4
I2
sg5
I00
sg6
I278
sg7
F0.3
sg8
I7
sg9
I64
sg10
I4
sg11
I20
sg12
I88
sg13
I62
sg14
I01
sg15
F0.05
sg16
I00
sg17
I01
sg18
I01
sg19
F0.1
sg20
I1
sg21
I49
sg22
g23
sg24
I01
sasI348
(lp719
I00
a(dp720
g3
I78
sg4
I2
sg5
I00
sg6
I446
sg7
F0.4
sg8
I7
sg9
I128
sg10
I4
sg11
I20
sg12
I75
sg13
I98
sg14
I01
sg15
F0.05
sg16
I00
sg17
I01
sg18
I01
sg19
F0.1
sg20
I1
sg21
I34
sg22
g23
sg24
I01
sasI349
(lp721
I00
a(dp722
g3
I44
sg4
I2
sg5
I00
sg6
I468
sg7
F0.3
sg8
I7
sg9
I32
sg10
I4
sg11
I20
sg12
I68
sg13
I50
sg14
I01
sg15
F0.05
sg16
I00
sg17
I01
sg18
I01
sg19
F0.1
sg20
I1
sg21
I39
sg22
g23
sg24
I01
sasI350
(lp723
I00
a(dp724
g3
I73
sg4
I2
sg5
I00
sg6
I351
sg7
F0.2
sg8
I7
sg9
I16
sg10
I4
sg11
I20
sg12
I96
sg13
I12
sg14
I01
sg15
F0.05
sg16
I00
sg17
I01
sg18
I01
sg19
F0.2
sg20
I1
sg21
I20
sg22
g23
sg24
I01
sasI351
(lp725
I00
a(dp726
g3
I98
sg4
I2
sg5
I00
sg6
I376
sg7
F0.3
sg8
I7
sg9
I64
sg10
I4
sg11
I20
sg12
I94
sg13
I94
sg14
I01
sg15
F0.05
sg16
I00
sg17
I01
sg18
I01
sg19
F0.1
sg20
I1
sg21
I22
sg22
g23
sg24
I01
sasI352
(lp727
I00
a(dp728
g3
I69
sg4
I2
sg5
I00
sg6
I396
sg7
F0.3
sg8
I7
sg9
I128
sg10
I4
sg11
I20
sg12
I70
sg13
I99
sg14
I01
sg15
F0.05
sg16
I00
sg17
I01
sg18
I01
sg19
F0.3
sg20
I1
sg21
I36
sg22
g23
sg24
I01
sasI353
(lp729
I00
a(dp730
g3
I77
sg4
I2
sg5
I00
sg6
I346
sg7
F0.0
sg8
I7
sg9
I64
sg10
I4
sg11
I20
sg12
I44
sg13
I9
sg14
I01
sg15
F0.05
sg16
I00
sg17
I01
sg18
I01
sg19
F0.1
sg20
I1
sg21
I27
sg22
g23
sg24
I01
sasI354
(lp731
I00
a(dp732
g3
I26
sg4
I2
sg5
I00
sg6
I481
sg7
F0.2
sg8
I7
sg9
I32
sg10
I4
sg11
I20
sg12
I46
sg13
I96
sg14
I01
sg15
F0.05
sg16
I00
sg17
I01
sg18
I01
sg19
F0.3
sg20
I1
sg21
I24
sg22
g23
sg24
I01
sasI355
(lp733
I00
a(dp734
g3
I70
sg4
I2
sg5
I00
sg6
I321
sg7
F0.2
sg8
I7
sg9
I64
sg10
I4
sg11
I20
sg12
I10
sg13
I14
sg14
I01
sg15
F0.05
sg16
I00
sg17
I01
sg18
I01
sg19
F0.1
sg20
I1
sg21
I8
sg22
g23
sg24
I01
sasI356
(lp735
I00
a(dp736
g3
I98
sg4
I2
sg5
I00
sg6
I302
sg7
F0.1
sg8
I7
sg9
I128
sg10
I4
sg11
I20
sg12
I11
sg13
I12
sg14
I01
sg15
F0.05
sg16
I00
sg17
I01
sg18
I01
sg19
F0.3
sg20
I1
sg21
I27
sg22
g23
sg24
I01
sasI357
(lp737
I00
a(dp738
g3
I91
sg4
I2
sg5
I00
sg6
I426
sg7
F0.1
sg8
I7
sg9
I64
sg10
I4
sg11
I20
sg12
I77
sg13
I49
sg14
I01
sg15
F0.05
sg16
I00
sg17
I01
sg18
I01
sg19
F0.4
sg20
I1
sg21
I34
sg22
g23
sg24
I01
sasI358
(lp739
I00
a(dp740
g3
I47
sg4
I2
sg5
I00
sg6
I391
sg7
F0.2
sg8
I7
sg9
I64
sg10
I4
sg11
I20
sg12
I17
sg13
I7
sg14
I01
sg15
F0.05
sg16
I00
sg17
I01
sg18
I01
sg19
F0.2
sg20
I1
sg21
I5
sg22
g23
sg24
I01
sasI359
(lp741
I00
a(dp742
g3
I95
sg4
I2
sg5
I00
sg6
I204
sg7
F0.3
sg8
I7
sg9
I64
sg10
I4
sg11
I20
sg12
I42
sg13
I8
sg14
I01
sg15
F0.05
sg16
I00
sg17
I01
sg18
I01
sg19
F0.3
sg20
I1
sg21
I38
sg22
g23
sg24
I01
sasI360
(lp743
I00
a(dp744
g3
I39
sg4
I2
sg5
I00
sg6
I484
sg7
F0.4
sg8
I7
sg9
I32
sg10
I4
sg11
I20
sg12
I71
sg13
I36
sg14
I01
sg15
F0.05
sg16
I00
sg17
I01
sg18
I01
sg19
F0.4
sg20
I1
sg21
I35
sg22
g23
sg24
I01
sasI361
(lp745
I00
a(dp746
g3
I94
sg4
I2
sg5
I00
sg6
I423
sg7
F0.1
sg8
I7
sg9
I16
sg10
I4
sg11
I20
sg12
I32
sg13
I26
sg14
I01
sg15
F0.05
sg16
I00
sg17
I01
sg18
I01
sg19
F0.4
sg20
I1
sg21
I45
sg22
g23
sg24
I01
sasI362
(lp747
I00
a(dp748
g3
I88
sg4
I2
sg5
I00
sg6
I334
sg7
F0.4
sg8
I7
sg9
I64
sg10
I4
sg11
I20
sg12
I24
sg13
I33
sg14
I01
sg15
F0.05
sg16
I00
sg17
I01
sg18
I01
sg19
F0.2
sg20
I1
sg21
I12
sg22
g23
sg24
I01
sasI363
(lp749
I00
a(dp750
g3
I16
sg4
I2
sg5
I00
sg6
I349
sg7
F0.2
sg8
I7
sg9
I128
sg10
I4
sg11
I20
sg12
I9
sg13
I98
sg14
I01
sg15
F0.05
sg16
I00
sg17
I01
sg18
I01
sg19
F0.2
sg20
I1
sg21
I45
sg22
g23
sg24
I01
sasI364
(lp751
I00
a(dp752
g3
I29
sg4
I2
sg5
I00
sg6
I497
sg7
F0.3
sg8
I7
sg9
I64
sg10
I4
sg11
I20
sg12
I48
sg13
I21
sg14
I01
sg15
F0.05
sg16
I00
sg17
I01
sg18
I01
sg19
F0.1
sg20
I1
sg21
I8
sg22
g23
sg24
I01
sasI365
(lp753
I00
a(dp754
g3
I25
sg4
I2
sg5
I00
sg6
I277
sg7
F0.3
sg8
I7
sg9
I32
sg10
I4
sg11
I20
sg12
I16
sg13
I52
sg14
I01
sg15
F0.05
sg16
I00
sg17
I01
sg18
I01
sg19
F0.0
sg20
I1
sg21
I20
sg22
g23
sg24
I01
sasI366
(lp755
I00
a(dp756
g3
I52
sg4
I2
sg5
I00
sg6
I438
sg7
F0.2
sg8
I7
sg9
I128
sg10
I4
sg11
I20
sg12
I96
sg13
I64
sg14
I01
sg15
F0.05
sg16
I00
sg17
I01
sg18
I01
sg19
F0.3
sg20
I1
sg21
I33
sg22
g23
sg24
I01
sasI367
(lp757
I00
a(dp758
g3
I40
sg4
I2
sg5
I00
sg6
I441
sg7
F0.2
sg8
I7
sg9
I64
sg10
I4
sg11
I20
sg12
I90
sg13
I58
sg14
I01
sg15
F0.05
sg16
I00
sg17
I01
sg18
I01
sg19
F0.3
sg20
I1
sg21
I14
sg22
g23
sg24
I01
sasI368
(lp759
I00
a(dp760
g3
I39
sg4
I2
sg5
I00
sg6
I244
sg7
F0.4
sg8
I7
sg9
I16
sg10
I4
sg11
I20
sg12
I97
sg13
I48
sg14
I01
sg15
F0.05
sg16
I00
sg17
I01
sg18
I01
sg19
F0.3
sg20
I1
sg21
I33
sg22
g23
sg24
I01
sasI369
(lp761
I00
a(dp762
g3
I90
sg4
I2
sg5
I00
sg6
I299
sg7
F0.2
sg8
I7
sg9
I32
sg10
I4
sg11
I20
sg12
I18
sg13
I20
sg14
I01
sg15
F0.05
sg16
I00
sg17
I01
sg18
I01
sg19
F0.1
sg20
I1
sg21
I36
sg22
g23
sg24
I01
sasI370
(lp763
I00
a(dp764
g3
I37
sg4
I2
sg5
I00
sg6
I351
sg7
F0.2
sg8
I7
sg9
I32
sg10
I4
sg11
I20
sg12
I95
sg13
I21
sg14
I01
sg15
F0.05
sg16
I00
sg17
I01
sg18
I01
sg19
F0.3
sg20
I1
sg21
I34
sg22
g23
sg24
I01
sasI371
(lp765
I00
a(dp766
g3
I61
sg4
I2
sg5
I00
sg6
I287
sg7
F0.2
sg8
I7
sg9
I16
sg10
I4
sg11
I20
sg12
I49
sg13
I84
sg14
I01
sg15
F0.05
sg16
I00
sg17
I01
sg18
I01
sg19
F0.1
sg20
I1
sg21
I10
sg22
g23
sg24
I01
sasI372
(lp767
I00
a(dp768
g3
I71
sg4
I2
sg5
I00
sg6
I439
sg7
F0.2
sg8
I7
sg9
I16
sg10
I4
sg11
I20
sg12
I82
sg13
I63
sg14
I01
sg15
F0.05
sg16
I00
sg17
I01
sg18
I01
sg19
F0.4
sg20
I1
sg21
I14
sg22
g23
sg24
I01
sasI373
(lp769
I00
a(dp770
g3
I44
sg4
I2
sg5
I00
sg6
I392
sg7
F0.0
sg8
I7
sg9
I32
sg10
I4
sg11
I20
sg12
I92
sg13
I40
sg14
I01
sg15
F0.05
sg16
I00
sg17
I01
sg18
I01
sg19
F0.3
sg20
I1
sg21
I11
sg22
g23
sg24
I01
sasI374
(lp771
I00
a(dp772
g3
I35
sg4
I2
sg5
I00
sg6
I396
sg7
F0.3
sg8
I7
sg9
I16
sg10
I4
sg11
I20
sg12
I50
sg13
I75
sg14
I01
sg15
F0.05
sg16
I00
sg17
I01
sg18
I01
sg19
F0.3
sg20
I1
sg21
I49
sg22
g23
sg24
I01
sasI375
(lp773
I00
a(dp774
g3
I10
sg4
I2
sg5
I00
sg6
I362
sg7
F0.1
sg8
I7
sg9
I16
sg10
I4
sg11
I20
sg12
I14
sg13
I98
sg14
I01
sg15
F0.05
sg16
I00
sg17
I01
sg18
I01
sg19
F0.3
sg20
I1
sg21
I18
sg22
g23
sg24
I01
sasI376
(lp775
I00
a(dp776
g3
I68
sg4
I2
sg5
I00
sg6
I388
sg7
F0.0
sg8
I7
sg9
I128
sg10
I4
sg11
I20
sg12
I18
sg13
I18
sg14
I01
sg15
F0.05
sg16
I00
sg17
I01
sg18
I01
sg19
F0.0
sg20
I1
sg21
I45
sg22
g23
sg24
I01
sasI377
(lp777
I00
a(dp778
g3
I48
sg4
I2
sg5
I00
sg6
I425
sg7
F0.2
sg8
I7
sg9
I64
sg10
I4
sg11
I20
sg12
I62
sg13
I66
sg14
I01
sg15
F0.05
sg16
I00
sg17
I01
sg18
I01
sg19
F0.2
sg20
I1
sg21
I15
sg22
g23
sg24
I01
sasI378
(lp779
I00
a(dp780
g3
I98
sg4
I2
sg5
I00
sg6
I360
sg7
F0.2
sg8
I7
sg9
I128
sg10
I4
sg11
I20
sg12
I92
sg13
I65
sg14
I01
sg15
F0.05
sg16
I00
sg17
I01
sg18
I01
sg19
F0.1
sg20
I1
sg21
I47
sg22
g23
sg24
I01
sasI379
(lp781
I00
a(dp782
g3
I22
sg4
I2
sg5
I00
sg6
I205
sg7
F0.2
sg8
I7
sg9
I128
sg10
I4
sg11
I20
sg12
I64
sg13
I20
sg14
I01
sg15
F0.05
sg16
I00
sg17
I01
sg18
I01
sg19
F0.2
sg20
I1
sg21
I39
sg22
g23
sg24
I01
sasI380
(lp783
I00
a(dp784
g3
I97
sg4
I2
sg5
I00
sg6
I450
sg7
F0.2
sg8
I7
sg9
I64
sg10
I4
sg11
I20
sg12
I14
sg13
I50
sg14
I01
sg15
F0.05
sg16
I00
sg17
I01
sg18
I01
sg19
F0.2
sg20
I1
sg21
I13
sg22
g23
sg24
I01
sasI381
(lp785
I00
a(dp786
g3
I97
sg4
I2
sg5
I00
sg6
I268
sg7
F0.1
sg8
I7
sg9
I32
sg10
I4
sg11
I20
sg12
I22
sg13
I13
sg14
I01
sg15
F0.05
sg16
I00
sg17
I01
sg18
I01
sg19
F0.4
sg20
I1
sg21
I34
sg22
g23
sg24
I01
sasI382
(lp787
I00
a(dp788
g3
I23
sg4
I2
sg5
I00
sg6
I479
sg7
F0.4
sg8
I7
sg9
I32
sg10
I4
sg11
I20
sg12
I31
sg13
I51
sg14
I01
sg15
F0.05
sg16
I00
sg17
I01
sg18
I01
sg19
F0.2
sg20
I1
sg21
I43
sg22
g23
sg24
I01
sasI383
(lp789
I00
a(dp790
g3
I73
sg4
I2
sg5
I00
sg6
I488
sg7
F0.0
sg8
I7
sg9
I32
sg10
I4
sg11
I20
sg12
I84
sg13
I90
sg14
I01
sg15
F0.05
sg16
I00
sg17
I01
sg18
I01
sg19
F0.1
sg20
I1
sg21
I40
sg22
g23
sg24
I01
sasI384
(lp791
I00
a(dp792
g3
I11
sg4
I2
sg5
I00
sg6
I446
sg7
F0.1
sg8
I7
sg9
I64
sg10
I4
sg11
I20
sg12
I65
sg13
I88
sg14
I01
sg15
F0.05
sg16
I00
sg17
I01
sg18
I01
sg19
F0.1
sg20
I1
sg21
I43
sg22
g23
sg24
I01
sasI385
(lp793
I00
a(dp794
g3
I96
sg4
I2
sg5
I00
sg6
I230
sg7
F0.4
sg8
I7
sg9
I16
sg10
I4
sg11
I20
sg12
I97
sg13
I18
sg14
I01
sg15
F0.05
sg16
I00
sg17
I01
sg18
I01
sg19
F0.1
sg20
I1
sg21
I48
sg22
g23
sg24
I01
sasI386
(lp795
I00
a(dp796
g3
I72
sg4
I2
sg5
I00
sg6
I411
sg7
F0.3
sg8
I7
sg9
I16
sg10
I4
sg11
I20
sg12
I29
sg13
I35
sg14
I01
sg15
F0.05
sg16
I00
sg17
I01
sg18
I01
sg19
F0.2
sg20
I1
sg21
I23
sg22
g23
sg24
I01
sasI387
(lp797
I00
a(dp798
g3
I16
sg4
I2
sg5
I00
sg6
I241
sg7
F0.3
sg8
I7
sg9
I64
sg10
I4
sg11
I20
sg12
I55
sg13
I16
sg14
I01
sg15
F0.05
sg16
I00
sg17
I01
sg18
I01
sg19
F0.3
sg20
I1
sg21
I16
sg22
g23
sg24
I01
sasI388
(lp799
I00
a(dp800
g3
I63
sg4
I2
sg5
I00
sg6
I224
sg7
F0.3
sg8
I7
sg9
I64
sg10
I4
sg11
I20
sg12
I79
sg13
I35
sg14
I01
sg15
F0.05
sg16
I00
sg17
I01
sg18
I01
sg19
F0.2
sg20
I1
sg21
I49
sg22
g23
sg24
I01
sasI389
(lp801
I00
a(dp802
g3
I98
sg4
I2
sg5
I00
sg6
I224
sg7
F0.3
sg8
I7
sg9
I128
sg10
I4
sg11
I20
sg12
I71
sg13
I10
sg14
I01
sg15
F0.05
sg16
I00
sg17
I01
sg18
I01
sg19
F0.3
sg20
I1
sg21
I30
sg22
g23
sg24
I01
sasI390
(lp803
I00
a(dp804
g3
I99
sg4
I2
sg5
I00
sg6
I435
sg7
F0.2
sg8
I7
sg9
I32
sg10
I4
sg11
I20
sg12
I23
sg13
I67
sg14
I01
sg15
F0.05
sg16
I00
sg17
I01
sg18
I01
sg19
F0.2
sg20
I1
sg21
I47
sg22
g23
sg24
I01
sasI391
(lp805
I00
a(dp806
g3
I93
sg4
I2
sg5
I00
sg6
I482
sg7
F0.4
sg8
I7
sg9
I32
sg10
I4
sg11
I20
sg12
I58
sg13
I20
sg14
I01
sg15
F0.05
sg16
I00
sg17
I01
sg18
I01
sg19
F0.1
sg20
I1
sg21
I35
sg22
g23
sg24
I01
sasI392
(lp807
I00
a(dp808
g3
I37
sg4
I2
sg5
I00
sg6
I407
sg7
F0.3
sg8
I7
sg9
I16
sg10
I4
sg11
I20
sg12
I93
sg13
I42
sg14
I01
sg15
F0.05
sg16
I00
sg17
I01
sg18
I01
sg19
F0.3
sg20
I1
sg21
I35
sg22
g23
sg24
I01
sasI393
(lp809
I00
a(dp810
g3
I56
sg4
I2
sg5
I00
sg6
I203
sg7
F0.3
sg8
I7
sg9
I16
sg10
I4
sg11
I20
sg12
I80
sg13
I33
sg14
I01
sg15
F0.05
sg16
I00
sg17
I01
sg18
I01
sg19
F0.3
sg20
I1
sg21
I6
sg22
g23
sg24
I01
sasI394
(lp811
I00
a(dp812
g3
I94
sg4
I2
sg5
I00
sg6
I427
sg7
F0.0
sg8
I7
sg9
I16
sg10
I4
sg11
I20
sg12
I55
sg13
I77
sg14
I01
sg15
F0.05
sg16
I00
sg17
I01
sg18
I01
sg19
F0.2
sg20
I1
sg21
I11
sg22
g23
sg24
I01
sasI395
(lp813
I00
a(dp814
g3
I81
sg4
I2
sg5
I00
sg6
I464
sg7
F0.1
sg8
I7
sg9
I128
sg10
I4
sg11
I20
sg12
I32
sg13
I49
sg14
I01
sg15
F0.05
sg16
I00
sg17
I01
sg18
I01
sg19
F0.1
sg20
I1
sg21
I29
sg22
g23
sg24
I01
sasI396
(lp815
I00
a(dp816
g3
I96
sg4
I2
sg5
I00
sg6
I234
sg7
F0.3
sg8
I7
sg9
I16
sg10
I4
sg11
I20
sg12
I87
sg13
I16
sg14
I01
sg15
F0.05
sg16
I00
sg17
I01
sg18
I01
sg19
F0.4
sg20
I1
sg21
I17
sg22
g23
sg24
I01
sasI397
(lp817
I00
a(dp818
g3
I80
sg4
I2
sg5
I00
sg6
I404
sg7
F0.3
sg8
I7
sg9
I32
sg10
I4
sg11
I20
sg12
I24
sg13
I89
sg14
I01
sg15
F0.05
sg16
I00
sg17
I01
sg18
I01
sg19
F0.4
sg20
I1
sg21
I12
sg22
g23
sg24
I01
sasI398
(lp819
I00
a(dp820
g3
I63
sg4
I2
sg5
I00
sg6
I278
sg7
F0.4
sg8
I7
sg9
I64
sg10
I4
sg11
I20
sg12
I71
sg13
I94
sg14
I01
sg15
F0.05
sg16
I00
sg17
I01
sg18
I01
sg19
F0.1
sg20
I1
sg21
I29
sg22
g23
sg24
I01
sasI399
(lp821
I00
a(dp822
g3
I91
sg4
I2
sg5
I00
sg6
I480
sg7
F0.1
sg8
I7
sg9
I64
sg10
I4
sg11
I20
sg12
I6
sg13
I93
sg14
I01
sg15
F0.05
sg16
I00
sg17
I01
sg18
I01
sg19
F0.2
sg20
I1
sg21
I29
sg22
g23
sg24
I01
sasI400
(lp823
I00
a(dp824
g3
I35
sg4
I2
sg5
I00
sg6
I229
sg7
F0.0
sg8
I7
sg9
I16
sg10
I4
sg11
I20
sg12
I56
sg13
I34
sg14
I01
sg15
F0.05
sg16
I00
sg17
I01
sg18
I01
sg19
F0.3
sg20
I1
sg21
I5
sg22
g23
sg24
I01
sasI401
(lp825
I00
a(dp826
g3
I88
sg4
I2
sg5
I00
sg6
I441
sg7
F0.2
sg8
I7
sg9
I64
sg10
I4
sg11
I20
sg12
I37
sg13
I52
sg14
I01
sg15
F0.05
sg16
I00
sg17
I01
sg18
I01
sg19
F0.1
sg20
I1
sg21
I11
sg22
g23
sg24
I01
sasI402
(lp827
I00
a(dp828
g3
I46
sg4
I2
sg5
I00
sg6
I496
sg7
F0.2
sg8
I7
sg9
I16
sg10
I4
sg11
I20
sg12
I37
sg13
I9
sg14
I01
sg15
F0.05
sg16
I00
sg17
I01
sg18
I01
sg19
F0.2
sg20
I1
sg21
I5
sg22
g23
sg24
I01
sasI403
(lp829
I00
a(dp830
g3
I14
sg4
I2
sg5
I00
sg6
I202
sg7
F0.3
sg8
I7
sg9
I16
sg10
I4
sg11
I20
sg12
I47
sg13
I83
sg14
I01
sg15
F0.05
sg16
I00
sg17
I01
sg18
I01
sg19
F0.1
sg20
I1
sg21
I47
sg22
g23
sg24
I01
sasI404
(lp831
I00
a(dp832
g3
I55
sg4
I2
sg5
I00
sg6
I256
sg7
F0.2
sg8
I7
sg9
I128
sg10
I4
sg11
I20
sg12
I41
sg13
I34
sg14
I01
sg15
F0.05
sg16
I00
sg17
I01
sg18
I01
sg19
F0.4
sg20
I1
sg21
I39
sg22
g23
sg24
I01
sasI405
(lp833
I00
a(dp834
g3
I63
sg4
I2
sg5
I00
sg6
I327
sg7
F0.0
sg8
I7
sg9
I128
sg10
I4
sg11
I20
sg12
I80
sg13
I35
sg14
I01
sg15
F0.05
sg16
I00
sg17
I01
sg18
I01
sg19
F0.1
sg20
I1
sg21
I28
sg22
g23
sg24
I01
sasI406
(lp835
I00
a(dp836
g3
I44
sg4
I2
sg5
I00
sg6
I394
sg7
F0.1
sg8
I7
sg9
I64
sg10
I4
sg11
I20
sg12
I26
sg13
I87
sg14
I01
sg15
F0.05
sg16
I00
sg17
I01
sg18
I01
sg19
F0.4
sg20
I1
sg21
I22
sg22
g23
sg24
I01
sasI407
(lp837
I00
a(dp838
g3
I34
sg4
I2
sg5
I00
sg6
I375
sg7
F0.3
sg8
I7
sg9
I128
sg10
I4
sg11
I20
sg12
I35
sg13
I66
sg14
I01
sg15
F0.05
sg16
I00
sg17
I01
sg18
I01
sg19
F0.1
sg20
I1
sg21
I37
sg22
g23
sg24
I01
sasI408
(lp839
I00
a(dp840
g3
I96
sg4
I2
sg5
I00
sg6
I472
sg7
F0.1
sg8
I7
sg9
I16
sg10
I4
sg11
I20
sg12
I74
sg13
I62
sg14
I01
sg15
F0.05
sg16
I00
sg17
I01
sg18
I01
sg19
F0.1
sg20
I1
sg21
I30
sg22
g23
sg24
I01
sasI409
(lp841
I00
a(dp842
g3
I22
sg4
I2
sg5
I00
sg6
I440
sg7
F0.2
sg8
I7
sg9
I128
sg10
I4
sg11
I20
sg12
I55
sg13
I57
sg14
I01
sg15
F0.05
sg16
I00
sg17
I01
sg18
I01
sg19
F0.1
sg20
I1
sg21
I8
sg22
g23
sg24
I01
sasI410
(lp843
I00
a(dp844
g3
I35
sg4
I2
sg5
I00
sg6
I257
sg7
F0.4
sg8
I7
sg9
I16
sg10
I4
sg11
I20
sg12
I49
sg13
I74
sg14
I01
sg15
F0.05
sg16
I00
sg17
I01
sg18
I01
sg19
F0.4
sg20
I1
sg21
I24
sg22
g23
sg24
I01
sasI411
(lp845
I00
a(dp846
g3
I58
sg4
I2
sg5
I00
sg6
I471
sg7
F0.1
sg8
I7
sg9
I32
sg10
I4
sg11
I20
sg12
I87
sg13
I87
sg14
I01
sg15
F0.05
sg16
I00
sg17
I01
sg18
I01
sg19
F0.3
sg20
I1
sg21
I35
sg22
g23
sg24
I01
sasI412
(lp847
I00
a(dp848
g3
I86
sg4
I2
sg5
I00
sg6
I431
sg7
F0.1
sg8
I7
sg9
I32
sg10
I4
sg11
I20
sg12
I71
sg13
I56
sg14
I01
sg15
F0.05
sg16
I00
sg17
I01
sg18
I01
sg19
F0.2
sg20
I1
sg21
I26
sg22
g23
sg24
I01
sasI413
(lp849
I00
a(dp850
g3
I91
sg4
I2
sg5
I00
sg6
I467
sg7
F0.2
sg8
I7
sg9
I16
sg10
I4
sg11
I20
sg12
I23
sg13
I69
sg14
I01
sg15
F0.05
sg16
I00
sg17
I01
sg18
I01
sg19
F0.3
sg20
I1
sg21
I23
sg22
g23
sg24
I01
sasI414
(lp851
I00
a(dp852
g3
I10
sg4
I2
sg5
I00
sg6
I279
sg7
F0.3
sg8
I7
sg9
I16
sg10
I4
sg11
I20
sg12
I27
sg13
I97
sg14
I01
sg15
F0.05
sg16
I00
sg17
I01
sg18
I01
sg19
F0.4
sg20
I1
sg21
I9
sg22
g23
sg24
I01
sasI415
(lp853
I00
a(dp854
g3
I96
sg4
I2
sg5
I00
sg6
I490
sg7
F0.0
sg8
I7
sg9
I64
sg10
I4
sg11
I20
sg12
I37
sg13
I78
sg14
I01
sg15
F0.05
sg16
I00
sg17
I01
sg18
I01
sg19
F0.3
sg20
I1
sg21
I37
sg22
g23
sg24
I01
sasI416
(lp855
I00
a(dp856
g3
I95
sg4
I2
sg5
I00
sg6
I357
sg7
F0.3
sg8
I7
sg9
I64
sg10
I4
sg11
I20
sg12
I49
sg13
I98
sg14
I01
sg15
F0.05
sg16
I00
sg17
I01
sg18
I01
sg19
F0.3
sg20
I1
sg21
I31
sg22
g23
sg24
I01
sasI417
(lp857
I00
a(dp858
g3
I49
sg4
I2
sg5
I00
sg6
I275
sg7
F0.2
sg8
I7
sg9
I64
sg10
I4
sg11
I20
sg12
I89
sg13
I42
sg14
I01
sg15
F0.05
sg16
I00
sg17
I01
sg18
I01
sg19
F0.1
sg20
I1
sg21
I6
sg22
g23
sg24
I01
sasI418
(lp859
I00
a(dp860
g3
I77
sg4
I2
sg5
I00
sg6
I209
sg7
F0.4
sg8
I7
sg9
I64
sg10
I4
sg11
I20
sg12
I82
sg13
I61
sg14
I01
sg15
F0.05
sg16
I00
sg17
I01
sg18
I01
sg19
F0.4
sg20
I1
sg21
I28
sg22
g23
sg24
I01
sasI419
(lp861
I00
a(dp862
g3
I17
sg4
I2
sg5
I00
sg6
I348
sg7
F0.1
sg8
I7
sg9
I16
sg10
I4
sg11
I20
sg12
I57
sg13
I22
sg14
I01
sg15
F0.05
sg16
I00
sg17
I01
sg18
I01
sg19
F0.1
sg20
I1
sg21
I28
sg22
g23
sg24
I01
sasI420
(lp863
I00
a(dp864
g3
I15
sg4
I2
sg5
I00
sg6
I413
sg7
F0.2
sg8
I7
sg9
I128
sg10
I4
sg11
I20
sg12
I25
sg13
I38
sg14
I01
sg15
F0.05
sg16
I00
sg17
I01
sg18
I01
sg19
F0.1
sg20
I1
sg21
I26
sg22
g23
sg24
I01
sasI421
(lp865
I00
a(dp866
g3
I89
sg4
I2
sg5
I00
sg6
I443
sg7
F0.2
sg8
I7
sg9
I128
sg10
I4
sg11
I20
sg12
I38
sg13
I80
sg14
I01
sg15
F0.05
sg16
I00
sg17
I01
sg18
I01
sg19
F0.2
sg20
I1
sg21
I49
sg22
g23
sg24
I01
sasI422
(lp867
I00
a(dp868
g3
I22
sg4
I2
sg5
I00
sg6
I210
sg7
F0.2
sg8
I7
sg9
I32
sg10
I4
sg11
I20
sg12
I32
sg13
I62
sg14
I01
sg15
F0.05
sg16
I00
sg17
I01
sg18
I01
sg19
F0.1
sg20
I1
sg21
I40
sg22
g23
sg24
I01
sasI423
(lp869
I00
a(dp870
g3
I28
sg4
I2
sg5
I00
sg6
I388
sg7
F0.1
sg8
I7
sg9
I128
sg10
I4
sg11
I20
sg12
I72
sg13
I56
sg14
I01
sg15
F0.05
sg16
I00
sg17
I01
sg18
I01
sg19
F0.4
sg20
I1
sg21
I23
sg22
g23
sg24
I01
sasI424
(lp871
I00
a(dp872
g3
I30
sg4
I2
sg5
I00
sg6
I387
sg7
F0.2
sg8
I7
sg9
I16
sg10
I4
sg11
I20
sg12
I92
sg13
I81
sg14
I01
sg15
F0.05
sg16
I00
sg17
I01
sg18
I01
sg19
F0.0
sg20
I1
sg21
I6
sg22
g23
sg24
I01
sasI425
(lp873
I01
a(dp874
g3
I35
sg4
I2
sg5
I00
sg6
I423
sg7
F0.1
sg8
I7
sg9
I64
sg10
I4
sg11
I20
sg12
I6
sg13
I33
sg14
I01
sg15
F0.05
sg16
I00
sg17
I01
sg18
I01
sg19
F0.3
sg20
I1
sg21
I22
sg22
g23
sg24
I01
sasI426
(lp875
I00
a(dp876
g3
I20
sg4
I2
sg5
I00
sg6
I226
sg7
F0.1
sg8
I7
sg9
I64
sg10
I4
sg11
I20
sg12
I57
sg13
I26
sg14
I01
sg15
F0.05
sg16
I00
sg17
I01
sg18
I01
sg19
F0.2
sg20
I1
sg21
I20
sg22
g23
sg24
I01
sasI427
(lp877
I00
a(dp878
g3
I18
sg4
I2
sg5
I00
sg6
I496
sg7
F0.3
sg8
I7
sg9
I128
sg10
I4
sg11
I20
sg12
I12
sg13
I36
sg14
I01
sg15
F0.05
sg16
I00
sg17
I01
sg18
I01
sg19
F0.1
sg20
I1
sg21
I48
sg22
g23
sg24
I01
sasI428
(lp879
I00
a(dp880
g3
I83
sg4
I2
sg5
I00
sg6
I245
sg7
F0.1
sg8
I7
sg9
I16
sg10
I4
sg11
I20
sg12
I66
sg13
I64
sg14
I01
sg15
F0.05
sg16
I00
sg17
I01
sg18
I01
sg19
F0.4
sg20
I1
sg21
I29
sg22
g23
sg24
I01
sasI429
(lp881
I00
a(dp882
g3
I28
sg4
I2
sg5
I00
sg6
I389
sg7
F0.1
sg8
I7
sg9
I128
sg10
I4
sg11
I20
sg12
I44
sg13
I39
sg14
I01
sg15
F0.05
sg16
I00
sg17
I01
sg18
I01
sg19
F0.3
sg20
I1
sg21
I31
sg22
g23
sg24
I01
sasI430
(lp883
I00
a(dp884
g3
I41
sg4
I2
sg5
I00
sg6
I201
sg7
F0.0
sg8
I7
sg9
I32
sg10
I4
sg11
I20
sg12
I13
sg13
I6
sg14
I01
sg15
F0.05
sg16
I00
sg17
I01
sg18
I01
sg19
F0.0
sg20
I1
sg21
I45
sg22
g23
sg24
I01
sasI431
(lp885
I00
a(dp886
g3
I70
sg4
I2
sg5
I00
sg6
I200
sg7
F0.4
sg8
I7
sg9
I16
sg10
I4
sg11
I20
sg12
I42
sg13
I78
sg14
I01
sg15
F0.05
sg16
I00
sg17
I01
sg18
I01
sg19
F0.1
sg20
I1
sg21
I20
sg22
g23
sg24
I01
sasI432
(lp887
I00
a(dp888
g3
I56
sg4
I2
sg5
I00
sg6
I356
sg7
F0.3
sg8
I7
sg9
I64
sg10
I4
sg11
I20
sg12
I96
sg13
I36
sg14
I01
sg15
F0.05
sg16
I00
sg17
I01
sg18
I01
sg19
F0.1
sg20
I1
sg21
I16
sg22
g23
sg24
I01
sasI433
(lp889
I00
a(dp890
g3
I81
sg4
I2
sg5
I00
sg6
I487
sg7
F0.1
sg8
I7
sg9
I16
sg10
I4
sg11
I20
sg12
I53
sg13
I29
sg14
I01
sg15
F0.05
sg16
I00
sg17
I01
sg18
I01
sg19
F0.0
sg20
I1
sg21
I21
sg22
g23
sg24
I01
sasI434
(lp891
I00
a(dp892
g3
I53
sg4
I2
sg5
I00
sg6
I376
sg7
F0.0
sg8
I7
sg9
I32
sg10
I4
sg11
I20
sg12
I45
sg13
I75
sg14
I01
sg15
F0.05
sg16
I00
sg17
I01
sg18
I01
sg19
F0.1
sg20
I1
sg21
I21
sg22
g23
sg24
I01
sasI435
(lp893
I00
a(dp894
g3
I85
sg4
I2
sg5
I00
sg6
I316
sg7
F0.3
sg8
I7
sg9
I32
sg10
I4
sg11
I20
sg12
I5
sg13
I59
sg14
I01
sg15
F0.05
sg16
I00
sg17
I01
sg18
I01
sg19
F0.2
sg20
I1
sg21
I43
sg22
g23
sg24
I01
sasI436
(lp895
I00
a(dp896
g3
I40
sg4
I2
sg5
I00
sg6
I236
sg7
F0.2
sg8
I7
sg9
I64
sg10
I4
sg11
I20
sg12
I72
sg13
I95
sg14
I01
sg15
F0.05
sg16
I00
sg17
I01
sg18
I01
sg19
F0.0
sg20
I1
sg21
I23
sg22
g23
sg24
I01
sasI437
(lp897
I00
a(dp898
g3
I48
sg4
I2
sg5
I00
sg6
I334
sg7
F0.3
sg8
I7
sg9
I32
sg10
I4
sg11
I20
sg12
I24
sg13
I66
sg14
I01
sg15
F0.05
sg16
I00
sg17
I01
sg18
I01
sg19
F0.4
sg20
I1
sg21
I27
sg22
g23
sg24
I01
sasI438
(lp899
I00
a(dp900
g3
I26
sg4
I2
sg5
I00
sg6
I204
sg7
F0.1
sg8
I7
sg9
I32
sg10
I4
sg11
I20
sg12
I62
sg13
I26
sg14
I01
sg15
F0.05
sg16
I00
sg17
I01
sg18
I01
sg19
F0.1
sg20
I1
sg21
I37
sg22
g23
sg24
I01
sasI439
(lp901
I00
a(dp902
g3
I54
sg4
I2
sg5
I00
sg6
I328
sg7
F0.1
sg8
I7
sg9
I128
sg10
I4
sg11
I20
sg12
I56
sg13
I56
sg14
I01
sg15
F0.05
sg16
I00
sg17
I01
sg18
I01
sg19
F0.3
sg20
I1
sg21
I14
sg22
g23
sg24
I01
sasI440
(lp903
I00
a(dp904
g3
I75
sg4
I2
sg5
I00
sg6
I280
sg7
F0.3
sg8
I7
sg9
I32
sg10
I4
sg11
I20
sg12
I92
sg13
I45
sg14
I01
sg15
F0.05
sg16
I00
sg17
I01
sg18
I01
sg19
F0.1
sg20
I1
sg21
I49
sg22
g23
sg24
I01
sasI441
(lp905
I00
a(dp906
g3
I10
sg4
I2
sg5
I00
sg6
I209
sg7
F0.3
sg8
I7
sg9
I16
sg10
I4
sg11
I20
sg12
I78
sg13
I64
sg14
I01
sg15
F0.05
sg16
I00
sg17
I01
sg18
I01
sg19
F0.2
sg20
I1
sg21
I40
sg22
g23
sg24
I01
sasI442
(lp907
I00
a(dp908
g3
I29
sg4
I2
sg5
I00
sg6
I385
sg7
F0.2
sg8
I7
sg9
I32
sg10
I4
sg11
I20
sg12
I96
sg13
I94
sg14
I01
sg15
F0.05
sg16
I00
sg17
I01
sg18
I01
sg19
F0.4
sg20
I1
sg21
I14
sg22
g23
sg24
I01
sasI443
(lp909
I00
a(dp910
g3
I81
sg4
I2
sg5
I00
sg6
I316
sg7
F0.2
sg8
I7
sg9
I16
sg10
I4
sg11
I20
sg12
I24
sg13
I20
sg14
I01
sg15
F0.05
sg16
I00
sg17
I01
sg18
I01
sg19
F0.0
sg20
I1
sg21
I48
sg22
g23
sg24
I01
sasI444
(lp911
I00
a(dp912
g3
I40
sg4
I2
sg5
I00
sg6
I276
sg7
F0.3
sg8
I7
sg9
I32
sg10
I4
sg11
I20
sg12
I93
sg13
I10
sg14
I01
sg15
F0.05
sg16
I00
sg17
I01
sg18
I01
sg19
F0.2
sg20
I1
sg21
I19
sg22
g23
sg24
I01
sasI445
(lp913
I00
a(dp914
g3
I77
sg4
I2
sg5
I00
sg6
I369
sg7
F0.4
sg8
I7
sg9
I32
sg10
I4
sg11
I20
sg12
I77
sg13
I37
sg14
I01
sg15
F0.05
sg16
I00
sg17
I01
sg18
I01
sg19
F0.0
sg20
I1
sg21
I35
sg22
g23
sg24
I01
sasI446
(lp915
I00
a(dp916
g3
I94
sg4
I2
sg5
I00
sg6
I499
sg7
F0.3
sg8
I7
sg9
I128
sg10
I4
sg11
I20
sg12
I24
sg13
I6
sg14
I01
sg15
F0.05
sg16
I00
sg17
I01
sg18
I01
sg19
F0.2
sg20
I1
sg21
I29
sg22
g23
sg24
I01
sasI447
(lp917
I00
a(dp918
g3
I69
sg4
I2
sg5
I00
sg6
I388
sg7
F0.3
sg8
I7
sg9
I32
sg10
I4
sg11
I20
sg12
I54
sg13
I71
sg14
I01
sg15
F0.05
sg16
I00
sg17
I01
sg18
I01
sg19
F0.1
sg20
I1
sg21
I26
sg22
g23
sg24
I01
sasI448
(lp919
I00
a(dp920
g3
I30
sg4
I2
sg5
I00
sg6
I429
sg7
F0.3
sg8
I7
sg9
I16
sg10
I4
sg11
I20
sg12
I92
sg13
I39
sg14
I01
sg15
F0.05
sg16
I00
sg17
I01
sg18
I01
sg19
F0.1
sg20
I1
sg21
I25
sg22
g23
sg24
I01
sasI449
(lp921
I00
a(dp922
g3
I51
sg4
I2
sg5
I00
sg6
I445
sg7
F0.2
sg8
I7
sg9
I128
sg10
I4
sg11
I20
sg12
I61
sg13
I40
sg14
I01
sg15
F0.05
sg16
I00
sg17
I01
sg18
I01
sg19
F0.3
sg20
I1
sg21
I13
sg22
g23
sg24
I01
sasI450
(lp923
I00
a(dp924
g3
I97
sg4
I2
sg5
I00
sg6
I273
sg7
F0.3
sg8
I7
sg9
I16
sg10
I4
sg11
I20
sg12
I52
sg13
I88
sg14
I01
sg15
F0.05
sg16
I00
sg17
I01
sg18
I01
sg19
F0.3
sg20
I1
sg21
I38
sg22
g23
sg24
I01
sasI451
(lp925
I00
a(dp926
g3
I15
sg4
I2
sg5
I00
sg6
I460
sg7
F0.0
sg8
I7
sg9
I128
sg10
I4
sg11
I20
sg12
I34
sg13
I89
sg14
I01
sg15
F0.05
sg16
I00
sg17
I01
sg18
I01
sg19
F0.1
sg20
I1
sg21
I37
sg22
g23
sg24
I01
sasI452
(lp927
I00
a(dp928
g3
I12
sg4
I2
sg5
I00
sg6
I477
sg7
F0.1
sg8
I7
sg9
I32
sg10
I4
sg11
I20
sg12
I90
sg13
I37
sg14
I01
sg15
F0.05
sg16
I00
sg17
I01
sg18
I01
sg19
F0.1
sg20
I1
sg21
I9
sg22
g23
sg24
I01
sasI453
(lp929
I00
a(dp930
g3
I83
sg4
I2
sg5
I00
sg6
I495
sg7
F0.2
sg8
I7
sg9
I16
sg10
I4
sg11
I20
sg12
I34
sg13
I57
sg14
I01
sg15
F0.05
sg16
I00
sg17
I01
sg18
I01
sg19
F0.2
sg20
I1
sg21
I21
sg22
g23
sg24
I01
sasI454
(lp931
I00
a(dp932
g3
I23
sg4
I2
sg5
I00
sg6
I343
sg7
F0.3
sg8
I7
sg9
I128
sg10
I4
sg11
I20
sg12
I63
sg13
I32
sg14
I01
sg15
F0.05
sg16
I00
sg17
I01
sg18
I01
sg19
F0.4
sg20
I1
sg21
I15
sg22
g23
sg24
I01
sasI455
(lp933
I00
a(dp934
g3
I90
sg4
I2
sg5
I00
sg6
I205
sg7
F0.2
sg8
I7
sg9
I32
sg10
I4
sg11
I20
sg12
I43
sg13
I93
sg14
I01
sg15
F0.05
sg16
I00
sg17
I01
sg18
I01
sg19
F0.1
sg20
I1
sg21
I42
sg22
g23
sg24
I01
sasI456
(lp935
I00
a(dp936
g3
I28
sg4
I2
sg5
I00
sg6
I313
sg7
F0.1
sg8
I7
sg9
I128
sg10
I4
sg11
I20
sg12
I82
sg13
I49
sg14
I01
sg15
F0.05
sg16
I00
sg17
I01
sg18
I01
sg19
F0.1
sg20
I1
sg21
I8
sg22
g23
sg24
I01
sasI457
(lp937
I00
a(dp938
g3
I33
sg4
I2
sg5
I00
sg6
I472
sg7
F0.2
sg8
I7
sg9
I128
sg10
I4
sg11
I20
sg12
I63
sg13
I94
sg14
I01
sg15
F0.05
sg16
I00
sg17
I01
sg18
I01
sg19
F0.0
sg20
I1
sg21
I28
sg22
g23
sg24
I01
sasI458
(lp939
I00
a(dp940
g3
I50
sg4
I2
sg5
I00
sg6
I435
sg7
F0.1
sg8
I7
sg9
I32
sg10
I4
sg11
I20
sg12
I54
sg13
I78
sg14
I01
sg15
F0.05
sg16
I00
sg17
I01
sg18
I01
sg19
F0.2
sg20
I1
sg21
I35
sg22
g23
sg24
I01
sasI459
(lp941
I00
a(dp942
g3
I17
sg4
I2
sg5
I00
sg6
I460
sg7
F0.1
sg8
I7
sg9
I128
sg10
I4
sg11
I20
sg12
I21
sg13
I17
sg14
I01
sg15
F0.05
sg16
I00
sg17
I01
sg18
I01
sg19
F0.2
sg20
I1
sg21
I35
sg22
g23
sg24
I01
sasI460
(lp943
I00
a(dp944
g3
I11
sg4
I2
sg5
I00
sg6
I454
sg7
F0.2
sg8
I7
sg9
I16
sg10
I4
sg11
I20
sg12
I22
sg13
I54
sg14
I01
sg15
F0.05
sg16
I00
sg17
I01
sg18
I01
sg19
F0.3
sg20
I1
sg21
I12
sg22
g23
sg24
I01
sasI461
(lp945
I00
a(dp946
g3
I91
sg4
I2
sg5
I00
sg6
I471
sg7
F0.3
sg8
I7
sg9
I64
sg10
I4
sg11
I20
sg12
I43
sg13
I41
sg14
I01
sg15
F0.05
sg16
I00
sg17
I01
sg18
I01
sg19
F0.2
sg20
I1
sg21
I27
sg22
g23
sg24
I01
sasI462
(lp947
I00
a(dp948
g3
I89
sg4
I2
sg5
I00
sg6
I401
sg7
F0.2
sg8
I7
sg9
I128
sg10
I4
sg11
I20
sg12
I8
sg13
I70
sg14
I01
sg15
F0.05
sg16
I00
sg17
I01
sg18
I01
sg19
F0.0
sg20
I1
sg21
I36
sg22
g23
sg24
I01
sasI463
(lp949
I00
a(dp950
g3
I85
sg4
I2
sg5
I00
sg6
I301
sg7
F0.2
sg8
I7
sg9
I64
sg10
I4
sg11
I20
sg12
I88
sg13
I92
sg14
I01
sg15
F0.05
sg16
I00
sg17
I01
sg18
I01
sg19
F0.3
sg20
I1
sg21
I14
sg22
g23
sg24
I01
sasI464
(lp951
I00
a(dp952
g3
I65
sg4
I2
sg5
I00
sg6
I470
sg7
F0.2
sg8
I7
sg9
I32
sg10
I4
sg11
I20
sg12
I60
sg13
I35
sg14
I01
sg15
F0.05
sg16
I00
sg17
I01
sg18
I01
sg19
F0.1
sg20
I1
sg21
I37
sg22
g23
sg24
I01
sasI465
(lp953
I00
a(dp954
g3
I50
sg4
I2
sg5
I00
sg6
I305
sg7
F0.1
sg8
I7
sg9
I16
sg10
I4
sg11
I20
sg12
I19
sg13
I7
sg14
I01
sg15
F0.05
sg16
I00
sg17
I01
sg18
I01
sg19
F0.2
sg20
I1
sg21
I25
sg22
g23
sg24
I01
sasI466
(lp955
I00
a(dp956
g3
I32
sg4
I2
sg5
I00
sg6
I266
sg7
F0.1
sg8
I7
sg9
I16
sg10
I4
sg11
I20
sg12
I96
sg13
I33
sg14
I01
sg15
F0.05
sg16
I00
sg17
I01
sg18
I01
sg19
F0.4
sg20
I1
sg21
I45
sg22
g23
sg24
I01
sasI467
(lp957
I00
a(dp958
g3
I94
sg4
I2
sg5
I00
sg6
I246
sg7
F0.0
sg8
I7
sg9
I64
sg10
I4
sg11
I20
sg12
I43
sg13
I70
sg14
I01
sg15
F0.05
sg16
I00
sg17
I01
sg18
I01
sg19
F0.3
sg20
I1
sg21
I47
sg22
g23
sg24
I01
sasI468
(lp959
I00
a(dp960
g3
I22
sg4
I2
sg5
I00
sg6
I393
sg7
F0.2
sg8
I7
sg9
I64
sg10
I4
sg11
I20
sg12
I97
sg13
I79
sg14
I01
sg15
F0.05
sg16
I00
sg17
I01
sg18
I01
sg19
F0.2
sg20
I1
sg21
I26
sg22
g23
sg24
I01
sasI469
(lp961
I00
a(dp962
g3
I79
sg4
I2
sg5
I00
sg6
I404
sg7
F0.3
sg8
I7
sg9
I128
sg10
I4
sg11
I20
sg12
I99
sg13
I52
sg14
I01
sg15
F0.05
sg16
I00
sg17
I01
sg18
I01
sg19
F0.3
sg20
I1
sg21
I23
sg22
g23
sg24
I01
sasI470
(lp963
I01
a(dp964
g3
I76
sg4
I2
sg5
I00
sg6
I214
sg7
F0.1
sg8
I7
sg9
I16
sg10
I4
sg11
I20
sg12
I99
sg13
I70
sg14
I01
sg15
F0.05
sg16
I00
sg17
I01
sg18
I01
sg19
F0.3
sg20
I1
sg21
I14
sg22
g23
sg24
I01
sasI471
(lp965
I00
a(dp966
g3
I52
sg4
I2
sg5
I00
sg6
I485
sg7
F0.1
sg8
I7
sg9
I32
sg10
I4
sg11
I20
sg12
I63
sg13
I19
sg14
I01
sg15
F0.05
sg16
I00
sg17
I01
sg18
I01
sg19
F0.0
sg20
I1
sg21
I17
sg22
g23
sg24
I01
sasI472
(lp967
I00
a(dp968
g3
I97
sg4
I2
sg5
I00
sg6
I296
sg7
F0.3
sg8
I7
sg9
I32
sg10
I4
sg11
I20
sg12
I35
sg13
I34
sg14
I01
sg15
F0.05
sg16
I00
sg17
I01
sg18
I01
sg19
F0.2
sg20
I1
sg21
I39
sg22
g23
sg24
I01
sasI473
(lp969
I00
a(dp970
g3
I54
sg4
I2
sg5
I00
sg6
I204
sg7
F0.2
sg8
I7
sg9
I64
sg10
I4
sg11
I20
sg12
I14
sg13
I81
sg14
I01
sg15
F0.05
sg16
I00
sg17
I01
sg18
I01
sg19
F0.3
sg20
I1
sg21
I18
sg22
g23
sg24
I01
sasI474
(lp971
I00
a(dp972
g3
I82
sg4
I2
sg5
I00
sg6
I460
sg7
F0.3
sg8
I7
sg9
I16
sg10
I4
sg11
I20
sg12
I29
sg13
I48
sg14
I01
sg15
F0.05
sg16
I00
sg17
I01
sg18
I01
sg19
F0.2
sg20
I1
sg21
I48
sg22
g23
sg24
I01
sasI475
(lp973
I00
a(dp974
g3
I21
sg4
I2
sg5
I00
sg6
I244
sg7
F0.0
sg8
I7
sg9
I128
sg10
I4
sg11
I20
sg12
I21
sg13
I33
sg14
I01
sg15
F0.05
sg16
I00
sg17
I01
sg18
I01
sg19
F0.2
sg20
I1
sg21
I44
sg22
g23
sg24
I01
sasI476
(lp975
I00
a(dp976
g3
I32
sg4
I2
sg5
I00
sg6
I470
sg7
F0.0
sg8
I7
sg9
I128
sg10
I4
sg11
I20
sg12
I9
sg13
I22
sg14
I01
sg15
F0.05
sg16
I00
sg17
I01
sg18
I01
sg19
F0.2
sg20
I1
sg21
I7
sg22
g23
sg24
I01
sasI477
(lp977
I00
a(dp978
g3
I39
sg4
I2
sg5
I00
sg6
I443
sg7
F0.2
sg8
I7
sg9
I32
sg10
I4
sg11
I20
sg12
I28
sg13
I47
sg14
I01
sg15
F0.05
sg16
I00
sg17
I01
sg18
I01
sg19
F0.3
sg20
I1
sg21
I29
sg22
g23
sg24
I01
sasI478
(lp979
I00
a(dp980
g3
I28
sg4
I2
sg5
I00
sg6
I225
sg7
F0.4
sg8
I7
sg9
I16
sg10
I4
sg11
I20
sg12
I24
sg13
I34
sg14
I01
sg15
F0.05
sg16
I00
sg17
I01
sg18
I01
sg19
F0.3
sg20
I1
sg21
I24
sg22
g23
sg24
I01
sasI479
(lp981
I00
a(dp982
g3
I75
sg4
I2
sg5
I00
sg6
I405
sg7
F0.3
sg8
I7
sg9
I16
sg10
I4
sg11
I20
sg12
I34
sg13
I15
sg14
I01
sg15
F0.05
sg16
I00
sg17
I01
sg18
I01
sg19
F0.3
sg20
I1
sg21
I31
sg22
g23
sg24
I01
sasI480
(lp983
I00
a(dp984
g3
I47
sg4
I2
sg5
I00
sg6
I498
sg7
F0.2
sg8
I7
sg9
I128
sg10
I4
sg11
I20
sg12
I64
sg13
I85
sg14
I01
sg15
F0.05
sg16
I00
sg17
I01
sg18
I01
sg19
F0.3
sg20
I1
sg21
I8
sg22
g23
sg24
I01
sasI481
(lp985
I00
a(dp986
g3
I59
sg4
I2
sg5
I00
sg6
I444
sg7
F0.2
sg8
I7
sg9
I128
sg10
I4
sg11
I20
sg12
I34
sg13
I40
sg14
I01
sg15
F0.05
sg16
I00
sg17
I01
sg18
I01
sg19
F0.4
sg20
I1
sg21
I8
sg22
g23
sg24
I01
sasI482
(lp987
I00
a(dp988
g3
I14
sg4
I2
sg5
I00
sg6
I353
sg7
F0.3
sg8
I7
sg9
I128
sg10
I4
sg11
I20
sg12
I96
sg13
I79
sg14
I01
sg15
F0.05
sg16
I00
sg17
I01
sg18
I01
sg19
F0.2
sg20
I1
sg21
I27
sg22
g23
sg24
I01
sasI483
(lp989
I00
a(dp990
g3
I72
sg4
I2
sg5
I00
sg6
I254
sg7
F0.2
sg8
I7
sg9
I64
sg10
I4
sg11
I20
sg12
I10
sg13
I52
sg14
I01
sg15
F0.05
sg16
I00
sg17
I01
sg18
I01
sg19
F0.2
sg20
I1
sg21
I37
sg22
g23
sg24
I01
sasI484
(lp991
I00
a(dp992
g3
I72
sg4
I2
sg5
I00
sg6
I335
sg7
F0.1
sg8
I7
sg9
I32
sg10
I4
sg11
I20
sg12
I73
sg13
I41
sg14
I01
sg15
F0.05
sg16
I00
sg17
I01
sg18
I01
sg19
F0.1
sg20
I1
sg21
I47
sg22
g23
sg24
I01
sasI485
(lp993
I00
a(dp994
g3
I55
sg4
I2
sg5
I00
sg6
I397
sg7
F0.3
sg8
I7
sg9
I16
sg10
I4
sg11
I20
sg12
I38
sg13
I25
sg14
I01
sg15
F0.05
sg16
I00
sg17
I01
sg18
I01
sg19
F0.2
sg20
I1
sg21
I24
sg22
g23
sg24
I01
sasI486
(lp995
I00
a(dp996
g3
I90
sg4
I2
sg5
I00
sg6
I468
sg7
F0.3
sg8
I7
sg9
I128
sg10
I4
sg11
I20
sg12
I15
sg13
I87
sg14
I01
sg15
F0.05
sg16
I00
sg17
I01
sg18
I01
sg19
F0.2
sg20
I1
sg21
I27
sg22
g23
sg24
I01
sasI487
(lp997
I00
a(dp998
g3
I50
sg4
I2
sg5
I00
sg6
I257
sg7
F0.3
sg8
I7
sg9
I64
sg10
I4
sg11
I20
sg12
I11
sg13
I80
sg14
I01
sg15
F0.05
sg16
I00
sg17
I01
sg18
I01
sg19
F0.2
sg20
I1
sg21
I12
sg22
g23
sg24
I01
sasI488
(lp999
I00
a(dp1000
g3
I57
sg4
I2
sg5
I00
sg6
I349
sg7
F0.4
sg8
I7
sg9
I64
sg10
I4
sg11
I20
sg12
I44
sg13
I31
sg14
I01
sg15
F0.05
sg16
I00
sg17
I01
sg18
I01
sg19
F0.3
sg20
I1
sg21
I15
sg22
g23
sg24
I01
sasI489
(lp1001
I00
a(dp1002
g3
I72
sg4
I2
sg5
I00
sg6
I415
sg7
F0.2
sg8
I7
sg9
I32
sg10
I4
sg11
I20
sg12
I64
sg13
I27
sg14
I01
sg15
F0.05
sg16
I00
sg17
I01
sg18
I01
sg19
F0.3
sg20
I1
sg21
I21
sg22
g23
sg24
I01
sasI490
(lp1003
I00
a(dp1004
g3
I80
sg4
I2
sg5
I00
sg6
I456
sg7
F0.1
sg8
I7
sg9
I128
sg10
I4
sg11
I20
sg12
I91
sg13
I99
sg14
I01
sg15
F0.05
sg16
I00
sg17
I01
sg18
I01
sg19
F0.2
sg20
I1
sg21
I19
sg22
g23
sg24
I01
sasI491
(lp1005
I00
a(dp1006
g3
I53
sg4
I2
sg5
I00
sg6
I397
sg7
F0.2
sg8
I7
sg9
I128
sg10
I4
sg11
I20
sg12
I98
sg13
I89
sg14
I01
sg15
F0.05
sg16
I00
sg17
I01
sg18
I01
sg19
F0.1
sg20
I1
sg21
I27
sg22
g23
sg24
I01
sasI492
(lp1007
I00
a(dp1008
g3
I31
sg4
I2
sg5
I00
sg6
I340
sg7
F0.1
sg8
I7
sg9
I64
sg10
I4
sg11
I20
sg12
I29
sg13
I89
sg14
I01
sg15
F0.05
sg16
I00
sg17
I01
sg18
I01
sg19
F0.3
sg20
I1
sg21
I32
sg22
g23
sg24
I01
sasI493
(lp1009
I00
a(dp1010
g3
I35
sg4
I2
sg5
I00
sg6
I367
sg7
F0.4
sg8
I7
sg9
I128
sg10
I4
sg11
I20
sg12
I81
sg13
I60
sg14
I01
sg15
F0.05
sg16
I00
sg17
I01
sg18
I01
sg19
F0.1
sg20
I1
sg21
I15
sg22
g23
sg24
I01
sasI494
(lp1011
I00
a(dp1012
g3
I27
sg4
I2
sg5
I00
sg6
I456
sg7
F0.2
sg8
I7
sg9
I128
sg10
I4
sg11
I20
sg12
I10
sg13
I95
sg14
I01
sg15
F0.05
sg16
I00
sg17
I01
sg18
I01
sg19
F0.1
sg20
I1
sg21
I32
sg22
g23
sg24
I01
sasI495
(lp1013
I00
a(dp1014
g3
I38
sg4
I2
sg5
I00
sg6
I430
sg7
F0.2
sg8
I7
sg9
I16
sg10
I4
sg11
I20
sg12
I76
sg13
I52
sg14
I01
sg15
F0.05
sg16
I00
sg17
I01
sg18
I01
sg19
F0.3
sg20
I1
sg21
I49
sg22
g23
sg24
I01
sasI496
(lp1015
I00
a(dp1016
g3
I22
sg4
I2
sg5
I00
sg6
I362
sg7
F0.3
sg8
I7
sg9
I32
sg10
I4
sg11
I20
sg12
I60
sg13
I61
sg14
I01
sg15
F0.05
sg16
I00
sg17
I01
sg18
I01
sg19
F0.2
sg20
I1
sg21
I7
sg22
g23
sg24
I01
sasI497
(lp1017
I00
a(dp1018
g3
I67
sg4
I2
sg5
I00
sg6
I211
sg7
F0.0
sg8
I7
sg9
I16
sg10
I4
sg11
I20
sg12
I66
sg13
I75
sg14
I01
sg15
F0.05
sg16
I00
sg17
I01
sg18
I01
sg19
F0.2
sg20
I1
sg21
I23
sg22
g23
sg24
I01
sasI498
(lp1019
I00
a(dp1020
g3
I99
sg4
I2
sg5
I00
sg6
I347
sg7
F0.3
sg8
I7
sg9
I32
sg10
I4
sg11
I20
sg12
I52
sg13
I87
sg14
I01
sg15
F0.05
sg16
I00
sg17
I01
sg18
I01
sg19
F0.4
sg20
I1
sg21
I15
sg22
g23
sg24
I01
sasI499
(lp1021
I00
a(dp1022
g3
I22
sg4
I2
sg5
I00
sg6
I474
sg7
F0.3
sg8
I7
sg9
I128
sg10
I4
sg11
I20
sg12
I95
sg13
I46
sg14
I01
sg15
F0.05
sg16
I00
sg17
I01
sg18
I01
sg19
F0.0
sg20
I1
sg21
I47
sg22
g23
sg24
I01
sas.