(dp1
I0
(lp2
I00
a(dp3
S'epochs'
p4
I30
sS'posDim'
p5
I28
sS'earlyStop'
p6
I00
sS'verbose'
p7
I00
sS'denseDropout'
p8
I00
sS'lstmLayerNum'
p9
I2
sS'focusedElemNum'
p10
I8
sS'batch'
p11
I1
sS'lstmUnitNum'
p12
I25
sS'lstmDropout'
p13
F0.23000000000000001
sS'lr'
p14
F0.070000000000000007
sS'denseActivation'
p15
S'tanh'
p16
sS'dense2'
p17
I0
sS'dense1'
p18
I18
sS'optimizer'
p19
S'adagrad'
p20
sS'moreTrans'
p21
I01
sS'wordDim'
p22
I109
sa(dp23
S'posEmb'
p24
I25
sS'initialisation'
p25
(dp26
S'Word2VecWindow'
p27
I3
sS'type'
p28
S'frWac200'
p29
sS'modifiable'
p30
I01
sS'pos'
p31
I01
sS'token'
p32
I01
sS'active'
p33
I00
sS'oneHotPos'
p34
I00
ssS'tokenEmb'
p35
I200
sS'concatenation'
p36
I00
sS'lemma'
p37
I01
sS'usePos'
p38
I01
sS'compactVocab'
p39
I01
sS'frequentTokens'
p40
I01
sg33
I01
sasI1
(lp41
I00
a(dp42
g4
I30
sg5
I40
sg6
I00
sg7
I00
sg8
I00
sg9
I1
sg10
I8
sg11
I1
sg12
I41
sg13
F0.34000000000000002
sg14
F0.070000000000000007
sg15
S'relu'
p43
sg17
I0
sg18
I19
sg19
g20
sg21
I01
sg22
I64
sa(dp44
g24
I25
sg25
g26
sg35
I200
sg36
I00
sg37
I00
sg38
I01
sg39
I00
sg40
I01
sg33
I01
sasI2
(lp45
I00
a(dp46
g4
I30
sg5
I39
sg6
I00
sg7
I00
sg8
I00
sg9
I1
sg10
I8
sg11
I1
sg12
I48
sg13
F0.41999999999999998
sg14
F0.070000000000000007
sg15
g16
sg17
I0
sg18
I53
sg19
g20
sg21
I01
sg22
I102
sa(dp47
g24
I25
sg25
g26
sg35
I200
sg36
I00
sg37
I01
sg38
I01
sg39
I01
sg40
I01
sg33
I01
sasI3
(lp48
I00
a(dp49
g4
I30
sg5
I40
sg6
I00
sg7
I00
sg8
I00
sg9
I2
sg10
I8
sg11
I1
sg12
I18
sg13
F0.40000000000000002
sg14
F0.070000000000000007
sg15
g43
sg17
I0
sg18
I29
sg19
g20
sg21
I01
sg22
I68
sa(dp50
g24
I25
sg25
g26
sg35
I200
sg36
I00
sg37
I01
sg38
I01
sg39
I00
sg40
I01
sg33
I01
sasI4
(lp51
I00
a(dp52
g4
I30
sg5
I12
sg6
I00
sg7
I00
sg8
I00
sg9
I2
sg10
I8
sg11
I1
sg12
I31
sg13
F0.10000000000000001
sg14
F0.070000000000000007
sg15
g43
sg17
I0
sg18
I46
sg19
g20
sg21
I01
sg22
I85
sa(dp53
g24
I25
sg25
g26
sg35
I200
sg36
I00
sg37
I01
sg38
I01
sg39
I01
sg40
I01
sg33
I01
sasI5
(lp54
I00
a(dp55
g4
I30
sg5
I7
sg6
I00
sg7
I00
sg8
I00
sg9
I1
sg10
I8
sg11
I1
sg12
I63
sg13
F0.46999999999999997
sg14
F0.070000000000000007
sg15
g43
sg17
I0
sg18
I17
sg19
g20
sg21
I01
sg22
I115
sa(dp56
g24
I25
sg25
g26
sg35
I200
sg36
I00
sg37
I01
sg38
I01
sg39
I01
sg40
I01
sg33
I01
sasI6
(lp57
I00
a(dp58
g4
I30
sg5
I42
sg6
I00
sg7
I00
sg8
I00
sg9
I2
sg10
I8
sg11
I1
sg12
I35
sg13
F0.31
sg14
F0.070000000000000007
sg15
g16
sg17
I0
sg18
I35
sg19
g20
sg21
I01
sg22
I55
sa(dp59
g24
I25
sg25
g26
sg35
I200
sg36
I00
sg37
I00
sg38
I01
sg39
I00
sg40
I01
sg33
I01
sasI7
(lp60
I00
a(dp61
g4
I30
sg5
I19
sg6
I00
sg7
I00
sg8
I00
sg9
I1
sg10
I8
sg11
I1
sg12
I37
sg13
F0.19
sg14
F0.070000000000000007
sg15
g16
sg17
I0
sg18
I39
sg19
g20
sg21
I01
sg22
I67
sa(dp62
g24
I25
sg25
g26
sg35
I200
sg36
I00
sg37
I01
sg38
I01
sg39
I01
sg40
I01
sg33
I01
sasI8
(lp63
I00
a(dp64
g4
I30
sg5
I22
sg6
I00
sg7
I00
sg8
I00
sg9
I2
sg10
I8
sg11
I1
sg12
I75
sg13
F0.34000000000000002
sg14
F0.070000000000000007
sg15
g16
sg17
I0
sg18
I12
sg19
g20
sg21
I01
sg22
I68
sa(dp65
g24
I25
sg25
g26
sg35
I200
sg36
I00
sg37
I00
sg38
I01
sg39
I00
sg40
I01
sg33
I01
sasI9
(lp66
I00
a(dp67
g4
I30
sg5
I17
sg6
I00
sg7
I00
sg8
I00
sg9
I2
sg10
I8
sg11
I1
sg12
I64
sg13
F0.16
sg14
F0.070000000000000007
sg15
g16
sg17
I0
sg18
I50
sg19
g20
sg21
I01
sg22
I128
sa(dp68
g24
I25
sg25
g26
sg35
I200
sg36
I00
sg37
I00
sg38
I01
sg39
I00
sg40
I01
sg33
I01
sasI10
(lp69
I00
a(dp70
g4
I30
sg5
I18
sg6
I00
sg7
I00
sg8
I00
sg9
I2
sg10
I8
sg11
I1
sg12
I82
sg13
F0.5
sg14
F0.070000000000000007
sg15
g16
sg17
I0
sg18
I45
sg19
g20
sg21
I01
sg22
I135
sa(dp71
g24
I25
sg25
g26
sg35
I200
sg36
I00
sg37
I00
sg38
I01
sg39
I01
sg40
I01
sg33
I01
sasI11
(lp72
I00
a(dp73
g4
I30
sg5
I21
sg6
I00
sg7
I00
sg8
I00
sg9
I1
sg10
I8
sg11
I1
sg12
I13
sg13
F0.32000000000000001
sg14
F0.070000000000000007
sg15
g43
sg17
I0
sg18
I17
sg19
g20
sg21
I01
sg22
I53
sa(dp74
g24
I25
sg25
g26
sg35
I200
sg36
I00
sg37
I01
sg38
I01
sg39
I00
sg40
I01
sg33
I01
sasI12
(lp75
I00
a(dp76
g4
I30
sg5
I6
sg6
I00
sg7
I00
sg8
I00
sg9
I2
sg10
I8
sg11
I1
sg12
I37
sg13
F0.11
sg14
F0.070000000000000007
sg15
g16
sg17
I0
sg18
I49
sg19
g20
sg21
I01
sg22
I103
sa(dp77
g24
I25
sg25
g26
sg35
I200
sg36
I00
sg37
I00
sg38
I01
sg39
I00
sg40
I01
sg33
I01
sasI13
(lp78
I00
a(dp79
g4
I30
sg5
I21
sg6
I00
sg7
I00
sg8
I00
sg9
I2
sg10
I8
sg11
I1
sg12
I23
sg13
F0.19
sg14
F0.070000000000000007
sg15
g43
sg17
I0
sg18
I37
sg19
g20
sg21
I01
sg22
I21
sa(dp80
g24
I25
sg25
g26
sg35
I200
sg36
I00
sg37
I01
sg38
I01
sg39
I01
sg40
I01
sg33
I01
sasI14
(lp81
I00
a(dp82
g4
I30
sg5
I7
sg6
I00
sg7
I00
sg8
I00
sg9
I1
sg10
I8
sg11
I1
sg12
I86
sg13
F0.35999999999999999
sg14
F0.070000000000000007
sg15
g16
sg17
I0
sg18
I16
sg19
g20
sg21
I01
sg22
I138
sa(dp83
g24
I25
sg25
g26
sg35
I200
sg36
I00
sg37
I01
sg38
I01
sg39
I01
sg40
I01
sg33
I01
sasI15
(lp84
I00
a(dp85
g4
I30
sg5
I8
sg6
I00
sg7
I00
sg8
I00
sg9
I1
sg10
I8
sg11
I1
sg12
I31
sg13
F0.13
sg14
F0.070000000000000007
sg15
g43
sg17
I0
sg18
I22
sg19
g20
sg21
I01
sg22
I33
sa(dp86
g24
I25
sg25
g26
sg35
I200
sg36
I00
sg37
I00
sg38
I01
sg39
I01
sg40
I01
sg33
I01
sasI16
(lp87
I00
a(dp88
g4
I30
sg5
I11
sg6
I00
sg7
I00
sg8
I00
sg9
I2
sg10
I8
sg11
I1
sg12
I14
sg13
F0.44
sg14
F0.070000000000000007
sg15
g43
sg17
I0
sg18
I68
sg19
g20
sg21
I01
sg22
I29
sa(dp89
g24
I25
sg25
g26
sg35
I200
sg36
I00
sg37
I01
sg38
I01
sg39
I00
sg40
I01
sg33
I01
sasI17
(lp90
I00
a(dp91
g4
I30
sg5
I35
sg6
I00
sg7
I00
sg8
I00
sg9
I1
sg10
I8
sg11
I1
sg12
I27
sg13
F0.26000000000000001
sg14
F0.070000000000000007
sg15
g16
sg17
I0
sg18
I17
sg19
g20
sg21
I01
sg22
I78
sa(dp92
g24
I25
sg25
g26
sg35
I200
sg36
I00
sg37
I01
sg38
I01
sg39
I01
sg40
I01
sg33
I01
sasI18
(lp93
I00
a(dp94
g4
I30
sg5
I16
sg6
I00
sg7
I00
sg8
I00
sg9
I2
sg10
I8
sg11
I1
sg12
I17
sg13
F0.39000000000000001
sg14
F0.070000000000000007
sg15
g16
sg17
I0
sg18
I22
sg19
g20
sg21
I01
sg22
I62
sa(dp95
g24
I25
sg25
g26
sg35
I200
sg36
I00
sg37
I00
sg38
I01
sg39
I01
sg40
I01
sg33
I01
sasI19
(lp96
I00
a(dp97
g4
I30
sg5
I5
sg6
I00
sg7
I00
sg8
I00
sg9
I1
sg10
I8
sg11
I1
sg12
I22
sg13
F0.46000000000000002
sg14
F0.070000000000000007
sg15
g16
sg17
I0
sg18
I17
sg19
g20
sg21
I01
sg22
I39
sa(dp98
g24
I25
sg25
g26
sg35
I200
sg36
I00
sg37
I00
sg38
I01
sg39
I01
sg40
I01
sg33
I01
sasI20
(lp99
I00
a(dp100
g4
I30
sg5
I20
sg6
I00
sg7
I00
sg8
I00
sg9
I1
sg10
I8
sg11
I1
sg12
I44
sg13
F0.19
sg14
F0.070000000000000007
sg15
g43
sg17
I0
sg18
I24
sg19
g20
sg21
I01
sg22
I71
sa(dp101
g24
I25
sg25
g26
sg35
I200
sg36
I00
sg37
I01
sg38
I01
sg39
I01
sg40
I01
sg33
I01
sasI21
(lp102
I00
a(dp103
g4
I30
sg5
I21
sg6
I00
sg7
I00
sg8
I00
sg9
I1
sg10
I8
sg11
I1
sg12
I25
sg13
F0.25
sg14
F0.070000000000000007
sg15
g16
sg17
I0
sg18
I75
sg19
g20
sg21
I01
sg22
I32
sa(dp104
g24
I25
sg25
g26
sg35
I200
sg36
I00
sg37
I01
sg38
I01
sg39
I00
sg40
I01
sg33
I01
sasI22
(lp105
I00
a(dp106
g4
I30
sg5
I5
sg6
I00
sg7
I00
sg8
I00
sg9
I1
sg10
I8
sg11
I1
sg12
I33
sg13
F0.13
sg14
F0.070000000000000007
sg15
g16
sg17
I0
sg18
I18
sg19
g20
sg21
I01
sg22
I75
sa(dp107
g24
I25
sg25
g26
sg35
I200
sg36
I00
sg37
I00
sg38
I01
sg39
I00
sg40
I01
sg33
I01
sasI23
(lp108
I00
a(dp109
g4
I30
sg5
I15
sg6
I00
sg7
I00
sg8
I00
sg9
I2
sg10
I8
sg11
I1
sg12
I74
sg13
F0.37
sg14
F0.070000000000000007
sg15
g16
sg17
I0
sg18
I29
sg19
g20
sg21
I01
sg22
I118
sa(dp110
g24
I25
sg25
g26
sg35
I200
sg36
I00
sg37
I00
sg38
I01
sg39
I01
sg40
I01
sg33
I01
sasI24
(lp111
I00
a(dp112
g4
I30
sg5
I6
sg6
I00
sg7
I00
sg8
I00
sg9
I1
sg10
I8
sg11
I1
sg12
I47
sg13
F0.19
sg14
F0.070000000000000007
sg15
g43
sg17
I0
sg18
I97
sg19
g20
sg21
I01
sg22
I71
sa(dp113
g24
I25
sg25
g26
sg35
I200
sg36
I00
sg37
I00
sg38
I01
sg39
I01
sg40
I01
sg33
I01
sasI25
(lp114
I00
a(dp115
g4
I30
sg5
I33
sg6
I00
sg7
I00
sg8
I00
sg9
I2
sg10
I8
sg11
I1
sg12
I44
sg13
F0.12
sg14
F0.070000000000000007
sg15
g43
sg17
I0
sg18
I12
sg19
g20
sg21
I01
sg22
I20
sa(dp116
g24
I25
sg25
g26
sg35
I200
sg36
I00
sg37
I00
sg38
I01
sg39
I01
sg40
I01
sg33
I01
sasI26
(lp117
I00
a(dp118
g4
I30
sg5
I35
sg6
I00
sg7
I00
sg8
I00
sg9
I2
sg10
I8
sg11
I1
sg12
I28
sg13
F0.16
sg14
F0.070000000000000007
sg15
g16
sg17
I0
sg18
I12
sg19
g20
sg21
I01
sg22
I24
sa(dp119
g24
I25
sg25
g26
sg35
I200
sg36
I00
sg37
I01
sg38
I01
sg39
I00
sg40
I01
sg33
I01
sasI27
(lp120
I00
a(dp121
g4
I30
sg5
I22
sg6
I00
sg7
I00
sg8
I00
sg9
I1
sg10
I8
sg11
I1
sg12
I10
sg13
F0.16
sg14
F0.070000000000000007
sg15
g16
sg17
I0
sg18
I74
sg19
g20
sg21
I01
sg22
I57
sa(dp122
g24
I25
sg25
g26
sg35
I200
sg36
I00
sg37
I00
sg38
I01
sg39
I00
sg40
I01
sg33
I01
sasI28
(lp123
I00
a(dp124
g4
I30
sg5
I43
sg6
I00
sg7
I00
sg8
I00
sg9
I2
sg10
I8
sg11
I1
sg12
I50
sg13
F0.33000000000000002
sg14
F0.070000000000000007
sg15
g43
sg17
I0
sg18
I11
sg19
g20
sg21
I01
sg22
I134
sa(dp125
g24
I25
sg25
g26
sg35
I200
sg36
I00
sg37
I00
sg38
I01
sg39
I00
sg40
I01
sg33
I01
sasI29
(lp126
I00
a(dp127
g4
I30
sg5
I11
sg6
I00
sg7
I00
sg8
I00
sg9
I1
sg10
I8
sg11
I1
sg12
I10
sg13
F0.26000000000000001
sg14
F0.070000000000000007
sg15
g43
sg17
I0
sg18
I16
sg19
g20
sg21
I01
sg22
I72
sa(dp128
g24
I25
sg25
g26
sg35
I200
sg36
I00
sg37
I00
sg38
I01
sg39
I01
sg40
I01
sg33
I01
sasI30
(lp129
I00
a(dp130
g4
I30
sg5
I10
sg6
I00
sg7
I00
sg8
I00
sg9
I1
sg10
I8
sg11
I1
sg12
I95
sg13
F0.13
sg14
F0.070000000000000007
sg15
g43
sg17
I0
sg18
I10
sg19
g20
sg21
I01
sg22
I85
sa(dp131
g24
I25
sg25
g26
sg35
I200
sg36
I00
sg37
I00
sg38
I01
sg39
I01
sg40
I01
sg33
I01
sasI31
(lp132
I00
a(dp133
g4
I30
sg5
I15
sg6
I00
sg7
I00
sg8
I00
sg9
I1
sg10
I8
sg11
I1
sg12
I33
sg13
F0.13
sg14
F0.070000000000000007
sg15
g16
sg17
I0
sg18
I11
sg19
g20
sg21
I01
sg22
I36
sa(dp134
g24
I25
sg25
g26
sg35
I200
sg36
I00
sg37
I01
sg38
I01
sg39
I01
sg40
I01
sg33
I01
sasI32
(lp135
I00
a(dp136
g4
I30
sg5
I6
sg6
I00
sg7
I00
sg8
I00
sg9
I1
sg10
I8
sg11
I1
sg12
I94
sg13
F0.39000000000000001
sg14
F0.070000000000000007
sg15
g43
sg17
I0
sg18
I29
sg19
g20
sg21
I01
sg22
I46
sa(dp137
g24
I25
sg25
g26
sg35
I200
sg36
I00
sg37
I00
sg38
I01
sg39
I01
sg40
I01
sg33
I01
sasI33
(lp138
I00
a(dp139
g4
I30
sg5
I10
sg6
I00
sg7
I00
sg8
I00
sg9
I1
sg10
I8
sg11
I1
sg12
I42
sg13
F0.44
sg14
F0.070000000000000007
sg15
g43
sg17
I0
sg18
I78
sg19
g20
sg21
I01
sg22
I47
sa(dp140
g24
I25
sg25
g26
sg35
I200
sg36
I00
sg37
I00
sg38
I01
sg39
I00
sg40
I01
sg33
I01
sasI34
(lp141
I00
a(dp142
g4
I30
sg5
I6
sg6
I00
sg7
I00
sg8
I00
sg9
I2
sg10
I8
sg11
I1
sg12
I24
sg13
F0.10000000000000001
sg14
F0.070000000000000007
sg15
g43
sg17
I0
sg18
I11
sg19
g20
sg21
I01
sg22
I22
sa(dp143
g24
I25
sg25
g26
sg35
I200
sg36
I00
sg37
I01
sg38
I01
sg39
I01
sg40
I01
sg33
I01
sasI35
(lp144
I00
a(dp145
g4
I30
sg5
I23
sg6
I00
sg7
I00
sg8
I00
sg9
I2
sg10
I8
sg11
I1
sg12
I18
sg13
F0.48999999999999999
sg14
F0.070000000000000007
sg15
g16
sg17
I0
sg18
I23
sg19
g20
sg21
I01
sg22
I64
sa(dp146
g24
I25
sg25
g26
sg35
I200
sg36
I00
sg37
I01
sg38
I01
sg39
I01
sg40
I01
sg33
I01
sasI36
(lp147
I00
a(dp148
g4
I30
sg5
I36
sg6
I00
sg7
I00
sg8
I00
sg9
I1
sg10
I8
sg11
I1
sg12
I47
sg13
F0.20999999999999999
sg14
F0.070000000000000007
sg15
g43
sg17
I0
sg18
I79
sg19
g20
sg21
I01
sg22
I22
sa(dp149
g24
I25
sg25
g26
sg35
I200
sg36
I00
sg37
I01
sg38
I01
sg39
I01
sg40
I01
sg33
I01
sasI37
(lp150
I00
a(dp151
g4
I30
sg5
I44
sg6
I00
sg7
I00
sg8
I00
sg9
I2
sg10
I8
sg11
I1
sg12
I23
sg13
F0.14000000000000001
sg14
F0.070000000000000007
sg15
g16
sg17
I0
sg18
I14
sg19
g20
sg21
I01
sg22
I21
sa(dp152
g24
I25
sg25
g26
sg35
I200
sg36
I00
sg37
I00
sg38
I01
sg39
I01
sg40
I01
sg33
I01
sasI38
(lp153
I00
a(dp154
g4
I30
sg5
I7
sg6
I00
sg7
I00
sg8
I00
sg9
I2
sg10
I8
sg11
I1
sg12
I31
sg13
F0.40999999999999998
sg14
F0.070000000000000007
sg15
g16
sg17
I0
sg18
I47
sg19
g20
sg21
I01
sg22
I144
sa(dp155
g24
I25
sg25
g26
sg35
I200
sg36
I00
sg37
I01
sg38
I01
sg39
I01
sg40
I01
sg33
I01
sasI39
(lp156
I00
a(dp157
g4
I30
sg5
I23
sg6
I00
sg7
I00
sg8
I00
sg9
I2
sg10
I8
sg11
I1
sg12
I21
sg13
F0.14000000000000001
sg14
F0.070000000000000007
sg15
g16
sg17
I0
sg18
I40
sg19
g20
sg21
I01
sg22
I54
sa(dp158
g24
I25
sg25
g26
sg35
I200
sg36
I00
sg37
I00
sg38
I01
sg39
I00
sg40
I01
sg33
I01
sasI40
(lp159
I00
a(dp160
g4
I30
sg5
I7
sg6
I00
sg7
I00
sg8
I00
sg9
I2
sg10
I8
sg11
I1
sg12
I38
sg13
F0.39000000000000001
sg14
F0.070000000000000007
sg15
g16
sg17
I0
sg18
I60
sg19
g20
sg21
I01
sg22
I21
sa(dp161
g24
I25
sg25
g26
sg35
I200
sg36
I00
sg37
I01
sg38
I01
sg39
I00
sg40
I01
sg33
I01
sasI41
(lp162
I00
a(dp163
g4
I30
sg5
I36
sg6
I00
sg7
I00
sg8
I00
sg9
I2
sg10
I8
sg11
I1
sg12
I10
sg13
F0.11
sg14
F0.070000000000000007
sg15
g16
sg17
I0
sg18
I16
sg19
g20
sg21
I01
sg22
I23
sa(dp164
g24
I25
sg25
g26
sg35
I200
sg36
I00
sg37
I01
sg38
I01
sg39
I01
sg40
I01
sg33
I01
sasI42
(lp165
I00
a(dp166
g4
I30
sg5
I22
sg6
I00
sg7
I00
sg8
I00
sg9
I2
sg10
I8
sg11
I1
sg12
I31
sg13
F0.42999999999999999
sg14
F0.070000000000000007
sg15
g43
sg17
I0
sg18
I31
sg19
g20
sg21
I01
sg22
I26
sa(dp167
g24
I25
sg25
g26
sg35
I200
sg36
I00
sg37
I00
sg38
I01
sg39
I00
sg40
I01
sg33
I01
sasI43
(lp168
I00
a(dp169
g4
I30
sg5
I48
sg6
I00
sg7
I00
sg8
I00
sg9
I2
sg10
I8
sg11
I1
sg12
I34
sg13
F0.14000000000000001
sg14
F0.070000000000000007
sg15
g43
sg17
I0
sg18
I80
sg19
g20
sg21
I01
sg22
I92
sa(dp170
g24
I25
sg25
g26
sg35
I200
sg36
I00
sg37
I01
sg38
I01
sg39
I00
sg40
I01
sg33
I01
sasI44
(lp171
I00
a(dp172
g4
I30
sg5
I12
sg6
I00
sg7
I00
sg8
I00
sg9
I1
sg10
I8
sg11
I1
sg12
I45
sg13
F0.35999999999999999
sg14
F0.070000000000000007
sg15
g43
sg17
I0
sg18
I71
sg19
g20
sg21
I01
sg22
I98
sa(dp173
g24
I25
sg25
g26
sg35
I200
sg36
I00
sg37
I00
sg38
I01
sg39
I01
sg40
I01
sg33
I01
sasI45
(lp174
I00
a(dp175
g4
I30
sg5
I5
sg6
I00
sg7
I00
sg8
I00
sg9
I2
sg10
I8
sg11
I1
sg12
I25
sg13
F0.16
sg14
F0.070000000000000007
sg15
g43
sg17
I0
sg18
I87
sg19
g20
sg21
I01
sg22
I33
sa(dp176
g24
I25
sg25
g26
sg35
I200
sg36
I00
sg37
I00
sg38
I01
sg39
I01
sg40
I01
sg33
I01
sasI46
(lp177
I00
a(dp178
g4
I30
sg5
I9
sg6
I00
sg7
I00
sg8
I00
sg9
I1
sg10
I8
sg11
I1
sg12
I26
sg13
F0.11
sg14
F0.070000000000000007
sg15
g43
sg17
I0
sg18
I11
sg19
g20
sg21
I01
sg22
I25
sa(dp179
g24
I25
sg25
g26
sg35
I200
sg36
I00
sg37
I00
sg38
I01
sg39
I00
sg40
I01
sg33
I01
sasI47
(lp180
I00
a(dp181
g4
I30
sg5
I7
sg6
I00
sg7
I00
sg8
I00
sg9
I1
sg10
I8
sg11
I1
sg12
I24
sg13
F0.27000000000000002
sg14
F0.070000000000000007
sg15
g43
sg17
I0
sg18
I25
sg19
g20
sg21
I01
sg22
I77
sa(dp182
g24
I25
sg25
g26
sg35
I200
sg36
I00
sg37
I01
sg38
I01
sg39
I01
sg40
I01
sg33
I01
sasI48
(lp183
I00
a(dp184
g4
I30
sg5
I20
sg6
I00
sg7
I00
sg8
I00
sg9
I1
sg10
I8
sg11
I1
sg12
I22
sg13
F0.23999999999999999
sg14
F0.070000000000000007
sg15
g43
sg17
I0
sg18
I12
sg19
g20
sg21
I01
sg22
I21
sa(dp185
g24
I25
sg25
g26
sg35
I200
sg36
I00
sg37
I01
sg38
I01
sg39
I00
sg40
I01
sg33
I01
sasI49
(lp186
I00
a(dp187
g4
I30
sg5
I20
sg6
I00
sg7
I00
sg8
I00
sg9
I2
sg10
I8
sg11
I1
sg12
I13
sg13
F0.17000000000000001
sg14
F0.070000000000000007
sg15
g16
sg17
I0
sg18
I42
sg19
g20
sg21
I01
sg22
I118
sa(dp188
g24
I25
sg25
g26
sg35
I200
sg36
I00
sg37
I00
sg38
I01
sg39
I00
sg40
I01
sg33
I01
sasI50
(lp189
I00
a(dp190
g4
I30
sg5
I40
sg6
I00
sg7
I00
sg8
I00
sg9
I2
sg10
I8
sg11
I1
sg12
I47
sg13
F0.40999999999999998
sg14
F0.070000000000000007
sg15
g43
sg17
I0
sg18
I82
sg19
g20
sg21
I01
sg22
I25
sa(dp191
g24
I25
sg25
g26
sg35
I200
sg36
I00
sg37
I00
sg38
I01
sg39
I00
sg40
I01
sg33
I01
sasI51
(lp192
I00
a(dp193
g4
I30
sg5
I30
sg6
I00
sg7
I00
sg8
I00
sg9
I1
sg10
I8
sg11
I1
sg12
I61
sg13
F0.20999999999999999
sg14
F0.070000000000000007
sg15
g16
sg17
I0
sg18
I57
sg19
g20
sg21
I01
sg22
I29
sa(dp194
g24
I25
sg25
g26
sg35
I200
sg36
I00
sg37
I00
sg38
I01
sg39
I01
sg40
I01
sg33
I01
sasI52
(lp195
I00
a(dp196
g4
I30
sg5
I39
sg6
I00
sg7
I00
sg8
I00
sg9
I1
sg10
I8
sg11
I1
sg12
I16
sg13
F0.25
sg14
F0.070000000000000007
sg15
g43
sg17
I0
sg18
I46
sg19
g20
sg21
I01
sg22
I53
sa(dp197
g24
I25
sg25
g26
sg35
I200
sg36
I00
sg37
I00
sg38
I01
sg39
I00
sg40
I01
sg33
I01
sasI53
(lp198
I00
a(dp199
g4
I30
sg5
I24
sg6
I00
sg7
I00
sg8
I00
sg9
I2
sg10
I8
sg11
I1
sg12
I26
sg13
F0.12
sg14
F0.070000000000000007
sg15
g16
sg17
I0
sg18
I20
sg19
g20
sg21
I01
sg22
I96
sa(dp200
g24
I25
sg25
g26
sg35
I200
sg36
I00
sg37
I00
sg38
I01
sg39
I00
sg40
I01
sg33
I01
sasI54
(lp201
I00
a(dp202
g4
I30
sg5
I6
sg6
I00
sg7
I00
sg8
I00
sg9
I2
sg10
I8
sg11
I1
sg12
I27
sg13
F0.11
sg14
F0.070000000000000007
sg15
g43
sg17
I0
sg18
I54
sg19
g20
sg21
I01
sg22
I46
sa(dp203
g24
I25
sg25
g26
sg35
I200
sg36
I00
sg37
I00
sg38
I01
sg39
I01
sg40
I01
sg33
I01
sasI55
(lp204
I00
a(dp205
g4
I30
sg5
I26
sg6
I00
sg7
I00
sg8
I00
sg9
I1
sg10
I8
sg11
I1
sg12
I10
sg13
F0.17999999999999999
sg14
F0.070000000000000007
sg15
g16
sg17
I0
sg18
I11
sg19
g20
sg21
I01
sg22
I139
sa(dp206
g24
I25
sg25
g26
sg35
I200
sg36
I00
sg37
I00
sg38
I01
sg39
I01
sg40
I01
sg33
I01
sasI56
(lp207
I00
a(dp208
g4
I30
sg5
I5
sg6
I00
sg7
I00
sg8
I00
sg9
I2
sg10
I8
sg11
I1
sg12
I47
sg13
F0.14000000000000001
sg14
F0.070000000000000007
sg15
g43
sg17
I0
sg18
I16
sg19
g20
sg21
I01
sg22
I104
sa(dp209
g24
I25
sg25
g26
sg35
I200
sg36
I00
sg37
I01
sg38
I01
sg39
I01
sg40
I01
sg33
I01
sasI57
(lp210
I00
a(dp211
g4
I30
sg5
I5
sg6
I00
sg7
I00
sg8
I00
sg9
I1
sg10
I8
sg11
I1
sg12
I12
sg13
F0.14000000000000001
sg14
F0.070000000000000007
sg15
g43
sg17
I0
sg18
I72
sg19
g20
sg21
I01
sg22
I42
sa(dp212
g24
I25
sg25
g26
sg35
I200
sg36
I00
sg37
I01
sg38
I01
sg39
I00
sg40
I01
sg33
I01
sasI58
(lp213
I00
a(dp214
g4
I30
sg5
I11
sg6
I00
sg7
I00
sg8
I00
sg9
I2
sg10
I8
sg11
I1
sg12
I90
sg13
F0.45000000000000001
sg14
F0.070000000000000007
sg15
g16
sg17
I0
sg18
I19
sg19
g20
sg21
I01
sg22
I140
sa(dp215
g24
I25
sg25
g26
sg35
I200
sg36
I00
sg37
I00
sg38
I01
sg39
I01
sg40
I01
sg33
I01
sasI59
(lp216
I00
a(dp217
g4
I30
sg5
I19
sg6
I00
sg7
I00
sg8
I00
sg9
I1
sg10
I8
sg11
I1
sg12
I63
sg13
F0.46000000000000002
sg14
F0.070000000000000007
sg15
g16
sg17
I0
sg18
I79
sg19
g20
sg21
I01
sg22
I24
sa(dp218
g24
I25
sg25
g26
sg35
I200
sg36
I00
sg37
I00
sg38
I01
sg39
I01
sg40
I01
sg33
I01
sasI60
(lp219
I00
a(dp220
g4
I30
sg5
I13
sg6
I00
sg7
I00
sg8
I00
sg9
I1
sg10
I8
sg11
I1
sg12
I11
sg13
F0.10000000000000001
sg14
F0.070000000000000007
sg15
g16
sg17
I0
sg18
I13
sg19
g20
sg21
I01
sg22
I35
sa(dp221
g24
I25
sg25
g26
sg35
I200
sg36
I00
sg37
I00
sg38
I01
sg39
I01
sg40
I01
sg33
I01
sasI61
(lp222
I00
a(dp223
g4
I30
sg5
I6
sg6
I00
sg7
I00
sg8
I00
sg9
I1
sg10
I8
sg11
I1
sg12
I27
sg13
F0.11
sg14
F0.070000000000000007
sg15
g16
sg17
I0
sg18
I43
sg19
g20
sg21
I01
sg22
I88
sa(dp224
g24
I25
sg25
g26
sg35
I200
sg36
I00
sg37
I01
sg38
I01
sg39
I00
sg40
I01
sg33
I01
sasI62
(lp225
I00
a(dp226
g4
I30
sg5
I13
sg6
I00
sg7
I00
sg8
I00
sg9
I1
sg10
I8
sg11
I1
sg12
I19
sg13
F0.14000000000000001
sg14
F0.070000000000000007
sg15
g43
sg17
I0
sg18
I20
sg19
g20
sg21
I01
sg22
I45
sa(dp227
g24
I25
sg25
g26
sg35
I200
sg36
I00
sg37
I00
sg38
I01
sg39
I00
sg40
I01
sg33
I01
sasI63
(lp228
I00
a(dp229
g4
I30
sg5
I18
sg6
I00
sg7
I00
sg8
I00
sg9
I2
sg10
I8
sg11
I1
sg12
I25
sg13
F0.20999999999999999
sg14
F0.070000000000000007
sg15
g43
sg17
I0
sg18
I62
sg19
g20
sg21
I01
sg22
I34
sa(dp230
g24
I25
sg25
g26
sg35
I200
sg36
I00
sg37
I01
sg38
I01
sg39
I01
sg40
I01
sg33
I01
sasI64
(lp231
I00
a(dp232
g4
I30
sg5
I43
sg6
I00
sg7
I00
sg8
I00
sg9
I1
sg10
I8
sg11
I1
sg12
I30
sg13
F0.28000000000000003
sg14
F0.070000000000000007
sg15
g16
sg17
I0
sg18
I29
sg19
g20
sg21
I01
sg22
I49
sa(dp233
g24
I25
sg25
g26
sg35
I200
sg36
I00
sg37
I00
sg38
I01
sg39
I01
sg40
I01
sg33
I01
sasI65
(lp234
I00
a(dp235
g4
I30
sg5
I5
sg6
I00
sg7
I00
sg8
I00
sg9
I1
sg10
I8
sg11
I1
sg12
I35
sg13
F0.28000000000000003
sg14
F0.070000000000000007
sg15
g16
sg17
I0
sg18
I58
sg19
g20
sg21
I01
sg22
I69
sa(dp236
g24
I25
sg25
g26
sg35
I200
sg36
I00
sg37
I01
sg38
I01
sg39
I00
sg40
I01
sg33
I01
sasI66
(lp237
I00
a(dp238
g4
I30
sg5
I28
sg6
I00
sg7
I00
sg8
I00
sg9
I1
sg10
I8
sg11
I1
sg12
I96
sg13
F0.16
sg14
F0.070000000000000007
sg15
g16
sg17
I0
sg18
I57
sg19
g20
sg21
I01
sg22
I78
sa(dp239
g24
I25
sg25
g26
sg35
I200
sg36
I00
sg37
I01
sg38
I01
sg39
I00
sg40
I01
sg33
I01
sasI67
(lp240
I00
a(dp241
g4
I30
sg5
I16
sg6
I00
sg7
I00
sg8
I00
sg9
I1
sg10
I8
sg11
I1
sg12
I17
sg13
F0.12
sg14
F0.070000000000000007
sg15
g43
sg17
I0
sg18
I24
sg19
g20
sg21
I01
sg22
I33
sa(dp242
g24
I25
sg25
g26
sg35
I200
sg36
I00
sg37
I00
sg38
I01
sg39
I00
sg40
I01
sg33
I01
sasI68
(lp243
I00
a(dp244
g4
I30
sg5
I5
sg6
I00
sg7
I00
sg8
I00
sg9
I1
sg10
I8
sg11
I1
sg12
I33
sg13
F0.17000000000000001
sg14
F0.070000000000000007
sg15
g43
sg17
I0
sg18
I20
sg19
g20
sg21
I01
sg22
I66
sa(dp245
g24
I25
sg25
g26
sg35
I200
sg36
I00
sg37
I01
sg38
I01
sg39
I00
sg40
I01
sg33
I01
sasI69
(lp246
I00
a(dp247
g4
I30
sg5
I9
sg6
I00
sg7
I00
sg8
I00
sg9
I1
sg10
I8
sg11
I1
sg12
I33
sg13
F0.27000000000000002
sg14
F0.070000000000000007
sg15
g43
sg17
I0
sg18
I37
sg19
g20
sg21
I01
sg22
I46
sa(dp248
g24
I25
sg25
g26
sg35
I200
sg36
I00
sg37
I01
sg38
I01
sg39
I00
sg40
I01
sg33
I01
sasI70
(lp249
I00
a(dp250
g4
I30
sg5
I30
sg6
I00
sg7
I00
sg8
I00
sg9
I2
sg10
I8
sg11
I1
sg12
I14
sg13
F0.28000000000000003
sg14
F0.070000000000000007
sg15
g16
sg17
I0
sg18
I23
sg19
g20
sg21
I01
sg22
I96
sa(dp251
g24
I25
sg25
g26
sg35
I200
sg36
I00
sg37
I00
sg38
I01
sg39
I01
sg40
I01
sg33
I01
sasI71
(lp252
I00
a(dp253
g4
I30
sg5
I23
sg6
I00
sg7
I00
sg8
I00
sg9
I2
sg10
I8
sg11
I1
sg12
I29
sg13
F0.20000000000000001
sg14
F0.070000000000000007
sg15
g16
sg17
I0
sg18
I29
sg19
g20
sg21
I01
sg22
I26
sa(dp254
g24
I25
sg25
g26
sg35
I200
sg36
I00
sg37
I00
sg38
I01
sg39
I01
sg40
I01
sg33
I01
sasI72
(lp255
I00
a(dp256
g4
I30
sg5
I9
sg6
I00
sg7
I00
sg8
I00
sg9
I1
sg10
I8
sg11
I1
sg12
I10
sg13
F0.27000000000000002
sg14
F0.070000000000000007
sg15
g43
sg17
I0
sg18
I11
sg19
g20
sg21
I01
sg22
I22
sa(dp257
g24
I25
sg25
g26
sg35
I200
sg36
I00
sg37
I01
sg38
I01
sg39
I00
sg40
I01
sg33
I01
sasI73
(lp258
I00
a(dp259
g4
I30
sg5
I5
sg6
I00
sg7
I00
sg8
I00
sg9
I1
sg10
I8
sg11
I1
sg12
I46
sg13
F0.33000000000000002
sg14
F0.070000000000000007
sg15
g43
sg17
I0
sg18
I48
sg19
g20
sg21
I01
sg22
I57
sa(dp260
g24
I25
sg25
g26
sg35
I200
sg36
I00
sg37
I00
sg38
I01
sg39
I01
sg40
I01
sg33
I01
sasI74
(lp261
I00
a(dp262
g4
I30
sg5
I37
sg6
I00
sg7
I00
sg8
I00
sg9
I1
sg10
I8
sg11
I1
sg12
I56
sg13
F0.14000000000000001
sg14
F0.070000000000000007
sg15
g43
sg17
I0
sg18
I53
sg19
g20
sg21
I01
sg22
I149
sa(dp263
g24
I25
sg25
g26
sg35
I200
sg36
I00
sg37
I01
sg38
I01
sg39
I01
sg40
I01
sg33
I01
sasI75
(lp264
I00
a(dp265
g4
I30
sg5
I7
sg6
I00
sg7
I00
sg8
I00
sg9
I2
sg10
I8
sg11
I1
sg12
I28
sg13
F0.20000000000000001
sg14
F0.070000000000000007
sg15
g16
sg17
I0
sg18
I78
sg19
g20
sg21
I01
sg22
I38
sa(dp266
g24
I25
sg25
g26
sg35
I200
sg36
I00
sg37
I01
sg38
I01
sg39
I00
sg40
I01
sg33
I01
sasI76
(lp267
I00
a(dp268
g4
I30
sg5
I13
sg6
I00
sg7
I00
sg8
I00
sg9
I1
sg10
I8
sg11
I1
sg12
I24
sg13
F0.37
sg14
F0.070000000000000007
sg15
g43
sg17
I0
sg18
I24
sg19
g20
sg21
I01
sg22
I125
sa(dp269
g24
I25
sg25
g26
sg35
I200
sg36
I00
sg37
I00
sg38
I01
sg39
I01
sg40
I01
sg33
I01
sasI77
(lp270
I00
a(dp271
g4
I30
sg5
I5
sg6
I00
sg7
I00
sg8
I00
sg9
I1
sg10
I8
sg11
I1
sg12
I15
sg13
F0.11
sg14
F0.070000000000000007
sg15
g16
sg17
I0
sg18
I17
sg19
g20
sg21
I01
sg22
I65
sa(dp272
g24
I25
sg25
g26
sg35
I200
sg36
I00
sg37
I01
sg38
I01
sg39
I00
sg40
I01
sg33
I01
sasI78
(lp273
I00
a(dp274
g4
I30
sg5
I20
sg6
I00
sg7
I00
sg8
I00
sg9
I1
sg10
I8
sg11
I1
sg12
I75
sg13
F0.16
sg14
F0.070000000000000007
sg15
g43
sg17
I0
sg18
I32
sg19
g20
sg21
I01
sg22
I68
sa(dp275
g24
I25
sg25
g26
sg35
I200
sg36
I00
sg37
I00
sg38
I01
sg39
I01
sg40
I01
sg33
I01
sasI79
(lp276
I00
a(dp277
g4
I30
sg5
I45
sg6
I00
sg7
I00
sg8
I00
sg9
I1
sg10
I8
sg11
I1
sg12
I38
sg13
F0.45000000000000001
sg14
F0.070000000000000007
sg15
g43
sg17
I0
sg18
I85
sg19
g20
sg21
I01
sg22
I56
sa(dp278
g24
I25
sg25
g26
sg35
I200
sg36
I00
sg37
I01
sg38
I01
sg39
I00
sg40
I01
sg33
I01
sasI80
(lp279
I00
a(dp280
g4
I30
sg5
I5
sg6
I00
sg7
I00
sg8
I00
sg9
I2
sg10
I8
sg11
I1
sg12
I13
sg13
F0.28999999999999998
sg14
F0.070000000000000007
sg15
g16
sg17
I0
sg18
I10
sg19
g20
sg21
I01
sg22
I34
sa(dp281
g24
I25
sg25
g26
sg35
I200
sg36
I00
sg37
I00
sg38
I01
sg39
I00
sg40
I01
sg33
I01
sasI81
(lp282
I00
a(dp283
g4
I30
sg5
I41
sg6
I00
sg7
I00
sg8
I00
sg9
I2
sg10
I8
sg11
I1
sg12
I76
sg13
F0.12
sg14
F0.070000000000000007
sg15
g16
sg17
I0
sg18
I21
sg19
g20
sg21
I01
sg22
I44
sa(dp284
g24
I25
sg25
g26
sg35
I200
sg36
I00
sg37
I01
sg38
I01
sg39
I01
sg40
I01
sg33
I01
sasI82
(lp285
I00
a(dp286
g4
I30
sg5
I5
sg6
I00
sg7
I00
sg8
I00
sg9
I1
sg10
I8
sg11
I1
sg12
I33
sg13
F0.14000000000000001
sg14
F0.070000000000000007
sg15
g16
sg17
I0
sg18
I23
sg19
g20
sg21
I01
sg22
I38
sa(dp287
g24
I25
sg25
g26
sg35
I200
sg36
I00
sg37
I00
sg38
I01
sg39
I01
sg40
I01
sg33
I01
sasI83
(lp288
I00
a(dp289
g4
I30
sg5
I10
sg6
I00
sg7
I00
sg8
I00
sg9
I1
sg10
I8
sg11
I1
sg12
I51
sg13
F0.17000000000000001
sg14
F0.070000000000000007
sg15
g43
sg17
I0
sg18
I17
sg19
g20
sg21
I01
sg22
I88
sa(dp290
g24
I25
sg25
g26
sg35
I200
sg36
I00
sg37
I01
sg38
I01
sg39
I00
sg40
I01
sg33
I01
sasI84
(lp291
I00
a(dp292
g4
I30
sg5
I26
sg6
I00
sg7
I00
sg8
I00
sg9
I1
sg10
I8
sg11
I1
sg12
I28
sg13
F0.47999999999999998
sg14
F0.070000000000000007
sg15
g16
sg17
I0
sg18
I64
sg19
g20
sg21
I01
sg22
I50
sa(dp293
g24
I25
sg25
g26
sg35
I200
sg36
I00
sg37
I01
sg38
I01
sg39
I01
sg40
I01
sg33
I01
sasI85
(lp294
I00
a(dp295
g4
I30
sg5
I12
sg6
I00
sg7
I00
sg8
I00
sg9
I2
sg10
I8
sg11
I1
sg12
I26
sg13
F0.11
sg14
F0.070000000000000007
sg15
g43
sg17
I0
sg18
I27
sg19
g20
sg21
I01
sg22
I93
sa(dp296
g24
I25
sg25
g26
sg35
I200
sg36
I00
sg37
I01
sg38
I01
sg39
I00
sg40
I01
sg33
I01
sasI86
(lp297
I00
a(dp298
g4
I30
sg5
I15
sg6
I00
sg7
I00
sg8
I00
sg9
I1
sg10
I8
sg11
I1
sg12
I20
sg13
F0.45000000000000001
sg14
F0.070000000000000007
sg15
g16
sg17
I0
sg18
I74
sg19
g20
sg21
I01
sg22
I28
sa(dp299
g24
I25
sg25
g26
sg35
I200
sg36
I00
sg37
I01
sg38
I01
sg39
I00
sg40
I01
sg33
I01
sasI87
(lp300
I00
a(dp301
g4
I30
sg5
I7
sg6
I00
sg7
I00
sg8
I00
sg9
I1
sg10
I8
sg11
I1
sg12
I34
sg13
F0.26000000000000001
sg14
F0.070000000000000007
sg15
g16
sg17
I0
sg18
I27
sg19
g20
sg21
I01
sg22
I59
sa(dp302
g24
I25
sg25
g26
sg35
I200
sg36
I00
sg37
I01
sg38
I01
sg39
I01
sg40
I01
sg33
I01
sasI88
(lp303
I00
a(dp304
g4
I30
sg5
I6
sg6
I00
sg7
I00
sg8
I00
sg9
I2
sg10
I8
sg11
I1
sg12
I54
sg13
F0.16
sg14
F0.070000000000000007
sg15
g43
sg17
I0
sg18
I17
sg19
g20
sg21
I01
sg22
I96
sa(dp305
g24
I25
sg25
g26
sg35
I200
sg36
I00
sg37
I00
sg38
I01
sg39
I00
sg40
I01
sg33
I01
sasI89
(lp306
I00
a(dp307
g4
I30
sg5
I6
sg6
I00
sg7
I00
sg8
I00
sg9
I2
sg10
I8
sg11
I1
sg12
I22
sg13
F0.33000000000000002
sg14
F0.070000000000000007
sg15
g43
sg17
I0
sg18
I13
sg19
g20
sg21
I01
sg22
I112
sa(dp308
g24
I25
sg25
g26
sg35
I200
sg36
I00
sg37
I00
sg38
I01
sg39
I00
sg40
I01
sg33
I01
sasI90
(lp309
I00
a(dp310
g4
I30
sg5
I33
sg6
I00
sg7
I00
sg8
I00
sg9
I2
sg10
I8
sg11
I1
sg12
I17
sg13
F0.29999999999999999
sg14
F0.070000000000000007
sg15
g16
sg17
I0
sg18
I32
sg19
g20
sg21
I01
sg22
I31
sa(dp311
g24
I25
sg25
g26
sg35
I200
sg36
I00
sg37
I01
sg38
I01
sg39
I01
sg40
I01
sg33
I01
sasI91
(lp312
I00
a(dp313
g4
I30
sg5
I17
sg6
I00
sg7
I00
sg8
I00
sg9
I1
sg10
I8
sg11
I1
sg12
I13
sg13
F0.10000000000000001
sg14
F0.070000000000000007
sg15
g16
sg17
I0
sg18
I38
sg19
g20
sg21
I01
sg22
I102
sa(dp314
g24
I25
sg25
g26
sg35
I200
sg36
I00
sg37
I00
sg38
I01
sg39
I00
sg40
I01
sg33
I01
sasI92
(lp315
I00
a(dp316
g4
I30
sg5
I29
sg6
I00
sg7
I00
sg8
I00
sg9
I1
sg10
I8
sg11
I1
sg12
I49
sg13
F0.25
sg14
F0.070000000000000007
sg15
g43
sg17
I0
sg18
I59
sg19
g20
sg21
I01
sg22
I23
sa(dp317
g24
I25
sg25
g26
sg35
I200
sg36
I00
sg37
I00
sg38
I01
sg39
I00
sg40
I01
sg33
I01
sasI93
(lp318
I00
a(dp319
g4
I30
sg5
I11
sg6
I00
sg7
I00
sg8
I00
sg9
I2
sg10
I8
sg11
I1
sg12
I12
sg13
F0.42999999999999999
sg14
F0.070000000000000007
sg15
g43
sg17
I0
sg18
I42
sg19
g20
sg21
I01
sg22
I92
sa(dp320
g24
I25
sg25
g26
sg35
I200
sg36
I00
sg37
I01
sg38
I01
sg39
I00
sg40
I01
sg33
I01
sasI94
(lp321
I00
a(dp322
g4
I30
sg5
I5
sg6
I00
sg7
I00
sg8
I00
sg9
I2
sg10
I8
sg11
I1
sg12
I31
sg13
F0.28999999999999998
sg14
F0.070000000000000007
sg15
g16
sg17
I0
sg18
I44
sg19
g20
sg21
I01
sg22
I50
sa(dp323
g24
I25
sg25
g26
sg35
I200
sg36
I00
sg37
I01
sg38
I01
sg39
I01
sg40
I01
sg33
I01
sasI95
(lp324
I00
a(dp325
g4
I30
sg5
I9
sg6
I00
sg7
I00
sg8
I00
sg9
I1
sg10
I8
sg11
I1
sg12
I61
sg13
F0.38
sg14
F0.070000000000000007
sg15
g43
sg17
I0
sg18
I50
sg19
g20
sg21
I01
sg22
I110
sa(dp326
g24
I25
sg25
g26
sg35
I200
sg36
I00
sg37
I01
sg38
I01
sg39
I01
sg40
I01
sg33
I01
sasI96
(lp327
I00
a(dp328
g4
I30
sg5
I45
sg6
I00
sg7
I00
sg8
I00
sg9
I1
sg10
I8
sg11
I1
sg12
I45
sg13
F0.32000000000000001
sg14
F0.070000000000000007
sg15
g16
sg17
I0
sg18
I27
sg19
g20
sg21
I01
sg22
I86
sa(dp329
g24
I25
sg25
g26
sg35
I200
sg36
I00
sg37
I01
sg38
I01
sg39
I00
sg40
I01
sg33
I01
sasI97
(lp330
I00
a(dp331
g4
I30
sg5
I17
sg6
I00
sg7
I00
sg8
I00
sg9
I1
sg10
I8
sg11
I1
sg12
I42
sg13
F0.10000000000000001
sg14
F0.070000000000000007
sg15
g43
sg17
I0
sg18
I14
sg19
g20
sg21
I01
sg22
I41
sa(dp332
g24
I25
sg25
g26
sg35
I200
sg36
I00
sg37
I01
sg38
I01
sg39
I01
sg40
I01
sg33
I01
sasI98
(lp333
I00
a(dp334
g4
I30
sg5
I5
sg6
I00
sg7
I00
sg8
I00
sg9
I1
sg10
I8
sg11
I1
sg12
I78
sg13
F0.20000000000000001
sg14
F0.070000000000000007
sg15
g16
sg17
I0
sg18
I93
sg19
g20
sg21
I01
sg22
I74
sa(dp335
g24
I25
sg25
g26
sg35
I200
sg36
I00
sg37
I01
sg38
I01
sg39
I01
sg40
I01
sg33
I01
sasI99
(lp336
I00
a(dp337
g4
I30
sg5
I10
sg6
I00
sg7
I00
sg8
I00
sg9
I1
sg10
I8
sg11
I1
sg12
I25
sg13
F0.19
sg14
F0.070000000000000007
sg15
g43
sg17
I0
sg18
I55
sg19
g20
sg21
I01
sg22
I28
sa(dp338
g24
I25
sg25
g26
sg35
I200
sg36
I00
sg37
I00
sg38
I01
sg39
I00
sg40
I01
sg33
I01
sasI100
(lp339
I00
a(dp340
g4
I30
sg5
I14
sg6
I00
sg7
I00
sg8
I00
sg9
I1
sg10
I8
sg11
I1
sg12
I24
sg13
F0.19
sg14
F0.070000000000000007
sg15
g16
sg17
I0
sg18
I83
sg19
g20
sg21
I01
sg22
I79
sa(dp341
g24
I25
sg25
g26
sg35
I200
sg36
I00
sg37
I00
sg38
I01
sg39
I01
sg40
I01
sg33
I01
sasI101
(lp342
I00
a(dp343
g4
I30
sg5
I27
sg6
I00
sg7
I00
sg8
I00
sg9
I1
sg10
I8
sg11
I1
sg12
I66
sg13
F0.39000000000000001
sg14
F0.070000000000000007
sg15
g16
sg17
I0
sg18
I21
sg19
g20
sg21
I01
sg22
I56
sa(dp344
g24
I25
sg25
g26
sg35
I200
sg36
I00
sg37
I00
sg38
I01
sg39
I01
sg40
I01
sg33
I01
sasI102
(lp345
I00
a(dp346
g4
I30
sg5
I30
sg6
I00
sg7
I00
sg8
I00
sg9
I2
sg10
I8
sg11
I1
sg12
I84
sg13
F0.11
sg14
F0.070000000000000007
sg15
g43
sg17
I0
sg18
I14
sg19
g20
sg21
I01
sg22
I28
sa(dp347
g24
I25
sg25
g26
sg35
I200
sg36
I00
sg37
I01
sg38
I01
sg39
I00
sg40
I01
sg33
I01
sasI103
(lp348
I00
a(dp349
g4
I30
sg5
I19
sg6
I00
sg7
I00
sg8
I00
sg9
I2
sg10
I8
sg11
I1
sg12
I10
sg13
F0.33000000000000002
sg14
F0.070000000000000007
sg15
g16
sg17
I0
sg18
I63
sg19
g20
sg21
I01
sg22
I27
sa(dp350
g24
I25
sg25
g26
sg35
I200
sg36
I00
sg37
I01
sg38
I01
sg39
I01
sg40
I01
sg33
I01
sasI104
(lp351
I00
a(dp352
g4
I30
sg5
I7
sg6
I00
sg7
I00
sg8
I00
sg9
I1
sg10
I8
sg11
I1
sg12
I25
sg13
F0.33000000000000002
sg14
F0.070000000000000007
sg15
g16
sg17
I0
sg18
I22
sg19
g20
sg21
I01
sg22
I36
sa(dp353
g24
I25
sg25
g26
sg35
I200
sg36
I00
sg37
I01
sg38
I01
sg39
I01
sg40
I01
sg33
I01
sasI105
(lp354
I00
a(dp355
g4
I30
sg5
I39
sg6
I00
sg7
I00
sg8
I00
sg9
I1
sg10
I8
sg11
I1
sg12
I37
sg13
F0.34999999999999998
sg14
F0.070000000000000007
sg15
g43
sg17
I0
sg18
I94
sg19
g20
sg21
I01
sg22
I37
sa(dp356
g24
I25
sg25
g26
sg35
I200
sg36
I00
sg37
I01
sg38
I01
sg39
I00
sg40
I01
sg33
I01
sasI106
(lp357
I00
a(dp358
g4
I30
sg5
I12
sg6
I00
sg7
I00
sg8
I00
sg9
I2
sg10
I8
sg11
I1
sg12
I10
sg13
F0.33000000000000002
sg14
F0.070000000000000007
sg15
g16
sg17
I0
sg18
I10
sg19
g20
sg21
I01
sg22
I85
sa(dp359
g24
I25
sg25
g26
sg35
I200
sg36
I00
sg37
I00
sg38
I01
sg39
I00
sg40
I01
sg33
I01
sasI107
(lp360
I00
a(dp361
g4
I30
sg5
I24
sg6
I00
sg7
I00
sg8
I00
sg9
I2
sg10
I8
sg11
I1
sg12
I95
sg13
F0.17000000000000001
sg14
F0.070000000000000007
sg15
g16
sg17
I0
sg18
I33
sg19
g20
sg21
I01
sg22
I35
sa(dp362
g24
I25
sg25
g26
sg35
I200
sg36
I00
sg37
I00
sg38
I01
sg39
I01
sg40
I01
sg33
I01
sasI108
(lp363
I01
a(dp364
g4
I30
sg5
I46
sg6
I00
sg7
I00
sg8
I00
sg9
I1
sg10
I8
sg11
I1
sg12
I48
sg13
F0.32000000000000001
sg14
F0.070000000000000007
sg15
g43
sg17
I0
sg18
I38
sg19
g20
sg21
I01
sg22
I38
sa(dp365
g24
I25
sg25
g26
sg35
I200
sg36
I00
sg37
I00
sg38
I01
sg39
I00
sg40
I01
sg33
I01
sasI109
(lp366
I00
a(dp367
g4
I30
sg5
I27
sg6
I00
sg7
I00
sg8
I00
sg9
I1
sg10
I8
sg11
I1
sg12
I89
sg13
F0.25
sg14
F0.070000000000000007
sg15
g16
sg17
I0
sg18
I65
sg19
g20
sg21
I01
sg22
I38
sa(dp368
g24
I25
sg25
g26
sg35
I200
sg36
I00
sg37
I01
sg38
I01
sg39
I00
sg40
I01
sg33
I01
sasI110
(lp369
I00
a(dp370
g4
I30
sg5
I19
sg6
I00
sg7
I00
sg8
I00
sg9
I1
sg10
I8
sg11
I1
sg12
I11
sg13
F0.13
sg14
F0.070000000000000007
sg15
g43
sg17
I0
sg18
I10
sg19
g20
sg21
I01
sg22
I96
sa(dp371
g24
I25
sg25
g26
sg35
I200
sg36
I00
sg37
I00
sg38
I01
sg39
I00
sg40
I01
sg33
I01
sasI111
(lp372
I00
a(dp373
g4
I30
sg5
I44
sg6
I00
sg7
I00
sg8
I00
sg9
I2
sg10
I8
sg11
I1
sg12
I15
sg13
F0.33000000000000002
sg14
F0.070000000000000007
sg15
g43
sg17
I0
sg18
I60
sg19
g20
sg21
I01
sg22
I52
sa(dp374
g24
I25
sg25
g26
sg35
I200
sg36
I00
sg37
I00
sg38
I01
sg39
I01
sg40
I01
sg33
I01
sasI112
(lp375
I00
a(dp376
g4
I30
sg5
I7
sg6
I00
sg7
I00
sg8
I00
sg9
I2
sg10
I8
sg11
I1
sg12
I31
sg13
F0.12
sg14
F0.070000000000000007
sg15
g43
sg17
I0
sg18
I14
sg19
g20
sg21
I01
sg22
I28
sa(dp377
g24
I25
sg25
g26
sg35
I200
sg36
I00
sg37
I00
sg38
I01
sg39
I00
sg40
I01
sg33
I01
sasI113
(lp378
I00
a(dp379
g4
I30
sg5
I9
sg6
I00
sg7
I00
sg8
I00
sg9
I2
sg10
I8
sg11
I1
sg12
I88
sg13
F0.32000000000000001
sg14
F0.070000000000000007
sg15
g16
sg17
I0
sg18
I97
sg19
g20
sg21
I01
sg22
I34
sa(dp380
g24
I25
sg25
g26
sg35
I200
sg36
I00
sg37
I00
sg38
I01
sg39
I00
sg40
I01
sg33
I01
sasI114
(lp381
I00
a(dp382
g4
I30
sg5
I30
sg6
I00
sg7
I00
sg8
I00
sg9
I2
sg10
I8
sg11
I1
sg12
I14
sg13
F0.33000000000000002
sg14
F0.070000000000000007
sg15
g43
sg17
I0
sg18
I69
sg19
g20
sg21
I01
sg22
I29
sa(dp383
g24
I25
sg25
g26
sg35
I200
sg36
I00
sg37
I00
sg38
I01
sg39
I00
sg40
I01
sg33
I01
sasI115
(lp384
I00
a(dp385
g4
I30
sg5
I44
sg6
I00
sg7
I00
sg8
I00
sg9
I1
sg10
I8
sg11
I1
sg12
I63
sg13
F0.27000000000000002
sg14
F0.070000000000000007
sg15
g43
sg17
I0
sg18
I25
sg19
g20
sg21
I01
sg22
I41
sa(dp386
g24
I25
sg25
g26
sg35
I200
sg36
I00
sg37
I00
sg38
I01
sg39
I01
sg40
I01
sg33
I01
sasI116
(lp387
I00
a(dp388
g4
I30
sg5
I23
sg6
I00
sg7
I00
sg8
I00
sg9
I1
sg10
I8
sg11
I1
sg12
I53
sg13
F0.22
sg14
F0.070000000000000007
sg15
g43
sg17
I0
sg18
I42
sg19
g20
sg21
I01
sg22
I133
sa(dp389
g24
I25
sg25
g26
sg35
I200
sg36
I00
sg37
I01
sg38
I01
sg39
I00
sg40
I01
sg33
I01
sasI117
(lp390
I00
a(dp391
g4
I30
sg5
I42
sg6
I00
sg7
I00
sg8
I00
sg9
I2
sg10
I8
sg11
I1
sg12
I28
sg13
F0.33000000000000002
sg14
F0.070000000000000007
sg15
g16
sg17
I0
sg18
I28
sg19
g20
sg21
I01
sg22
I134
sa(dp392
g24
I25
sg25
g26
sg35
I200
sg36
I00
sg37
I00
sg38
I01
sg39
I00
sg40
I01
sg33
I01
sasI118
(lp393
I00
a(dp394
g4
I30
sg5
I7
sg6
I00
sg7
I00
sg8
I00
sg9
I1
sg10
I8
sg11
I1
sg12
I87
sg13
F0.28000000000000003
sg14
F0.070000000000000007
sg15
g43
sg17
I0
sg18
I84
sg19
g20
sg21
I01
sg22
I137
sa(dp395
g24
I25
sg25
g26
sg35
I200
sg36
I00
sg37
I00
sg38
I01
sg39
I00
sg40
I01
sg33
I01
sasI119
(lp396
I00
a(dp397
g4
I30
sg5
I6
sg6
I00
sg7
I00
sg8
I00
sg9
I1
sg10
I8
sg11
I1
sg12
I57
sg13
F0.14999999999999999
sg14
F0.070000000000000007
sg15
g16
sg17
I0
sg18
I10
sg19
g20
sg21
I01
sg22
I68
sa(dp398
g24
I25
sg25
g26
sg35
I200
sg36
I00
sg37
I00
sg38
I01
sg39
I00
sg40
I01
sg33
I01
sasI120
(lp399
I00
a(dp400
g4
I30
sg5
I37
sg6
I00
sg7
I00
sg8
I00
sg9
I2
sg10
I8
sg11
I1
sg12
I13
sg13
F0.38
sg14
F0.070000000000000007
sg15
g16
sg17
I0
sg18
I29
sg19
g20
sg21
I01
sg22
I43
sa(dp401
g24
I25
sg25
g26
sg35
I200
sg36
I00
sg37
I01
sg38
I01
sg39
I01
sg40
I01
sg33
I01
sasI121
(lp402
I00
a(dp403
g4
I30
sg5
I16
sg6
I00
sg7
I00
sg8
I00
sg9
I1
sg10
I8
sg11
I1
sg12
I10
sg13
F0.17000000000000001
sg14
F0.070000000000000007
sg15
g16
sg17
I0
sg18
I36
sg19
g20
sg21
I01
sg22
I51
sa(dp404
g24
I25
sg25
g26
sg35
I200
sg36
I00
sg37
I00
sg38
I01
sg39
I01
sg40
I01
sg33
I01
sasI122
(lp405
I00
a(dp406
g4
I30
sg5
I42
sg6
I00
sg7
I00
sg8
I00
sg9
I2
sg10
I8
sg11
I1
sg12
I80
sg13
F0.17000000000000001
sg14
F0.070000000000000007
sg15
g43
sg17
I0
sg18
I88
sg19
g20
sg21
I01
sg22
I21
sa(dp407
g24
I25
sg25
g26
sg35
I200
sg36
I00
sg37
I01
sg38
I01
sg39
I00
sg40
I01
sg33
I01
sasI123
(lp408
I00
a(dp409
g4
I30
sg5
I19
sg6
I00
sg7
I00
sg8
I00
sg9
I1
sg10
I8
sg11
I1
sg12
I13
sg13
F0.11
sg14
F0.070000000000000007
sg15
g16
sg17
I0
sg18
I20
sg19
g20
sg21
I01
sg22
I77
sa(dp410
g24
I25
sg25
g26
sg35
I200
sg36
I00
sg37
I00
sg38
I01
sg39
I01
sg40
I01
sg33
I01
sasI124
(lp411
I00
a(dp412
g4
I30
sg5
I5
sg6
I00
sg7
I00
sg8
I00
sg9
I2
sg10
I8
sg11
I1
sg12
I55
sg13
F0.23999999999999999
sg14
F0.070000000000000007
sg15
g43
sg17
I0
sg18
I11
sg19
g20
sg21
I01
sg22
I93
sa(dp413
g24
I25
sg25
g26
sg35
I200
sg36
I00
sg37
I01
sg38
I01
sg39
I00
sg40
I01
sg33
I01
sasI125
(lp414
I00
a(dp415
g4
I30
sg5
I6
sg6
I00
sg7
I00
sg8
I00
sg9
I2
sg10
I8
sg11
I1
sg12
I18
sg13
F0.14000000000000001
sg14
F0.070000000000000007
sg15
g43
sg17
I0
sg18
I65
sg19
g20
sg21
I01
sg22
I65
sa(dp416
g24
I25
sg25
g26
sg35
I200
sg36
I00
sg37
I01
sg38
I01
sg39
I01
sg40
I01
sg33
I01
sasI126
(lp417
I00
a(dp418
g4
I30
sg5
I49
sg6
I00
sg7
I00
sg8
I00
sg9
I2
sg10
I8
sg11
I1
sg12
I10
sg13
F0.23999999999999999
sg14
F0.070000000000000007
sg15
g16
sg17
I0
sg18
I79
sg19
g20
sg21
I01
sg22
I131
sa(dp419
g24
I25
sg25
g26
sg35
I200
sg36
I00
sg37
I01
sg38
I01
sg39
I00
sg40
I01
sg33
I01
sasI127
(lp420
I00
a(dp421
g4
I30
sg5
I32
sg6
I00
sg7
I00
sg8
I00
sg9
I1
sg10
I8
sg11
I1
sg12
I17
sg13
F0.20999999999999999
sg14
F0.070000000000000007
sg15
g16
sg17
I0
sg18
I44
sg19
g20
sg21
I01
sg22
I92
sa(dp422
g24
I25
sg25
g26
sg35
I200
sg36
I00
sg37
I01
sg38
I01
sg39
I01
sg40
I01
sg33
I01
sasI128
(lp423
I00
a(dp424
g4
I30
sg5
I14
sg6
I00
sg7
I00
sg8
I00
sg9
I2
sg10
I8
sg11
I1
sg12
I22
sg13
F0.37
sg14
F0.070000000000000007
sg15
g43
sg17
I0
sg18
I34
sg19
g20
sg21
I01
sg22
I74
sa(dp425
g24
I25
sg25
g26
sg35
I200
sg36
I00
sg37
I01
sg38
I01
sg39
I01
sg40
I01
sg33
I01
sasI129
(lp426
I01
a(dp427
g4
I30
sg5
I14
sg6
I00
sg7
I00
sg8
I00
sg9
I1
sg10
I8
sg11
I1
sg12
I72
sg13
F0.48999999999999999
sg14
F0.070000000000000007
sg15
g43
sg17
I0
sg18
I32
sg19
g20
sg21
I01
sg22
I40
sa(dp428
g24
I25
sg25
g26
sg35
I200
sg36
I00
sg37
I01
sg38
I01
sg39
I01
sg40
I01
sg33
I01
sasI130
(lp429
I00
a(dp430
g4
I30
sg5
I5
sg6
I00
sg7
I00
sg8
I00
sg9
I1
sg10
I8
sg11
I1
sg12
I11
sg13
F0.19
sg14
F0.070000000000000007
sg15
g43
sg17
I0
sg18
I15
sg19
g20
sg21
I01
sg22
I87
sa(dp431
g24
I25
sg25
g26
sg35
I200
sg36
I00
sg37
I01
sg38
I01
sg39
I01
sg40
I01
sg33
I01
sasI131
(lp432
I00
a(dp433
g4
I30
sg5
I25
sg6
I00
sg7
I00
sg8
I00
sg9
I1
sg10
I8
sg11
I1
sg12
I11
sg13
F0.11
sg14
F0.070000000000000007
sg15
g16
sg17
I0
sg18
I68
sg19
g20
sg21
I01
sg22
I93
sa(dp434
g24
I25
sg25
g26
sg35
I200
sg36
I00
sg37
I00
sg38
I01
sg39
I00
sg40
I01
sg33
I01
sasI132
(lp435
I00
a(dp436
g4
I30
sg5
I18
sg6
I00
sg7
I00
sg8
I00
sg9
I1
sg10
I8
sg11
I1
sg12
I63
sg13
F0.11
sg14
F0.070000000000000007
sg15
g43
sg17
I0
sg18
I25
sg19
g20
sg21
I01
sg22
I77
sa(dp437
g24
I25
sg25
g26
sg35
I200
sg36
I00
sg37
I01
sg38
I01
sg39
I01
sg40
I01
sg33
I01
sasI133
(lp438
I00
a(dp439
g4
I30
sg5
I11
sg6
I00
sg7
I00
sg8
I00
sg9
I1
sg10
I8
sg11
I1
sg12
I10
sg13
F0.28999999999999998
sg14
F0.070000000000000007
sg15
g16
sg17
I0
sg18
I41
sg19
g20
sg21
I01
sg22
I25
sa(dp440
g24
I25
sg25
g26
sg35
I200
sg36
I00
sg37
I00
sg38
I01
sg39
I00
sg40
I01
sg33
I01
sasI134
(lp441
I00
a(dp442
g4
I30
sg5
I6
sg6
I00
sg7
I00
sg8
I00
sg9
I1
sg10
I8
sg11
I1
sg12
I72
sg13
F0.35999999999999999
sg14
F0.070000000000000007
sg15
g16
sg17
I0
sg18
I72
sg19
g20
sg21
I01
sg22
I54
sa(dp443
g24
I25
sg25
g26
sg35
I200
sg36
I00
sg37
I01
sg38
I01
sg39
I00
sg40
I01
sg33
I01
sasI135
(lp444
I00
a(dp445
g4
I30
sg5
I10
sg6
I00
sg7
I00
sg8
I00
sg9
I2
sg10
I8
sg11
I1
sg12
I81
sg13
F0.11
sg14
F0.070000000000000007
sg15
g43
sg17
I0
sg18
I29
sg19
g20
sg21
I01
sg22
I105
sa(dp446
g24
I25
sg25
g26
sg35
I200
sg36
I00
sg37
I01
sg38
I01
sg39
I01
sg40
I01
sg33
I01
sasI136
(lp447
I00
a(dp448
g4
I30
sg5
I7
sg6
I00
sg7
I00
sg8
I00
sg9
I2
sg10
I8
sg11
I1
sg12
I83
sg13
F0.13
sg14
F0.070000000000000007
sg15
g43
sg17
I0
sg18
I14
sg19
g20
sg21
I01
sg22
I42
sa(dp449
g24
I25
sg25
g26
sg35
I200
sg36
I00
sg37
I00
sg38
I01
sg39
I01
sg40
I01
sg33
I01
sasI137
(lp450
I00
a(dp451
g4
I30
sg5
I44
sg6
I00
sg7
I00
sg8
I00
sg9
I1
sg10
I8
sg11
I1
sg12
I11
sg13
F0.29999999999999999
sg14
F0.070000000000000007
sg15
g16
sg17
I0
sg18
I77
sg19
g20
sg21
I01
sg22
I70
sa(dp452
g24
I25
sg25
g26
sg35
I200
sg36
I00
sg37
I01
sg38
I01
sg39
I01
sg40
I01
sg33
I01
sasI138
(lp453
I00
a(dp454
g4
I30
sg5
I8
sg6
I00
sg7
I00
sg8
I00
sg9
I2
sg10
I8
sg11
I1
sg12
I13
sg13
F0.40999999999999998
sg14
F0.070000000000000007
sg15
g43
sg17
I0
sg18
I29
sg19
g20
sg21
I01
sg22
I32
sa(dp455
g24
I25
sg25
g26
sg35
I200
sg36
I00
sg37
I00
sg38
I01
sg39
I01
sg40
I01
sg33
I01
sasI139
(lp456
I00
a(dp457
g4
I30
sg5
I12
sg6
I00
sg7
I00
sg8
I00
sg9
I2
sg10
I8
sg11
I1
sg12
I66
sg13
F0.10000000000000001
sg14
F0.070000000000000007
sg15
g43
sg17
I0
sg18
I99
sg19
g20
sg21
I01
sg22
I20
sa(dp458
g24
I25
sg25
g26
sg35
I200
sg36
I00
sg37
I00
sg38
I01
sg39
I01
sg40
I01
sg33
I01
sasI140
(lp459
I00
a(dp460
g4
I30
sg5
I20
sg6
I00
sg7
I00
sg8
I00
sg9
I1
sg10
I8
sg11
I1
sg12
I10
sg13
F0.17999999999999999
sg14
F0.070000000000000007
sg15
g43
sg17
I0
sg18
I47
sg19
g20
sg21
I01
sg22
I25
sa(dp461
g24
I25
sg25
g26
sg35
I200
sg36
I00
sg37
I01
sg38
I01
sg39
I00
sg40
I01
sg33
I01
sasI141
(lp462
I00
a(dp463
g4
I30
sg5
I6
sg6
I00
sg7
I00
sg8
I00
sg9
I2
sg10
I8
sg11
I1
sg12
I25
sg13
F0.11
sg14
F0.070000000000000007
sg15
g43
sg17
I0
sg18
I34
sg19
g20
sg21
I01
sg22
I32
sa(dp464
g24
I25
sg25
g26
sg35
I200
sg36
I00
sg37
I01
sg38
I01
sg39
I00
sg40
I01
sg33
I01
sasI142
(lp465
I00
a(dp466
g4
I30
sg5
I14
sg6
I00
sg7
I00
sg8
I00
sg9
I2
sg10
I8
sg11
I1
sg12
I24
sg13
F0.28000000000000003
sg14
F0.070000000000000007
sg15
g16
sg17
I0
sg18
I24
sg19
g20
sg21
I01
sg22
I48
sa(dp467
g24
I25
sg25
g26
sg35
I200
sg36
I00
sg37
I00
sg38
I01
sg39
I00
sg40
I01
sg33
I01
sasI143
(lp468
I00
a(dp469
g4
I30
sg5
I11
sg6
I00
sg7
I00
sg8
I00
sg9
I1
sg10
I8
sg11
I1
sg12
I17
sg13
F0.20999999999999999
sg14
F0.070000000000000007
sg15
g16
sg17
I0
sg18
I40
sg19
g20
sg21
I01
sg22
I118
sa(dp470
g24
I25
sg25
g26
sg35
I200
sg36
I00
sg37
I00
sg38
I01
sg39
I01
sg40
I01
sg33
I01
sasI144
(lp471
I00
a(dp472
g4
I30
sg5
I6
sg6
I00
sg7
I00
sg8
I00
sg9
I1
sg10
I8
sg11
I1
sg12
I10
sg13
F0.32000000000000001
sg14
F0.070000000000000007
sg15
g43
sg17
I0
sg18
I11
sg19
g20
sg21
I01
sg22
I139
sa(dp473
g24
I25
sg25
g26
sg35
I200
sg36
I00
sg37
I01
sg38
I01
sg39
I00
sg40
I01
sg33
I01
sasI145
(lp474
I00
a(dp475
g4
I30
sg5
I25
sg6
I00
sg7
I00
sg8
I00
sg9
I2
sg10
I8
sg11
I1
sg12
I25
sg13
F0.17000000000000001
sg14
F0.070000000000000007
sg15
g43
sg17
I0
sg18
I14
sg19
g20
sg21
I01
sg22
I128
sa(dp476
g24
I25
sg25
g26
sg35
I200
sg36
I00
sg37
I01
sg38
I01
sg39
I00
sg40
I01
sg33
I01
sasI146
(lp477
I00
a(dp478
g4
I30
sg5
I42
sg6
I00
sg7
I00
sg8
I00
sg9
I2
sg10
I8
sg11
I1
sg12
I42
sg13
F0.34000000000000002
sg14
F0.070000000000000007
sg15
g16
sg17
I0
sg18
I42
sg19
g20
sg21
I01
sg22
I55
sa(dp479
g24
I25
sg25
g26
sg35
I200
sg36
I00
sg37
I00
sg38
I01
sg39
I01
sg40
I01
sg33
I01
sasI147
(lp480
I00
a(dp481
g4
I30
sg5
I19
sg6
I00
sg7
I00
sg8
I00
sg9
I2
sg10
I8
sg11
I1
sg12
I26
sg13
F0.16
sg14
F0.070000000000000007
sg15
g16
sg17
I0
sg18
I43
sg19
g20
sg21
I01
sg22
I28
sa(dp482
g24
I25
sg25
g26
sg35
I200
sg36
I00
sg37
I00
sg38
I01
sg39
I01
sg40
I01
sg33
I01
sasI148
(lp483
I00
a(dp484
g4
I30
sg5
I6
sg6
I00
sg7
I00
sg8
I00
sg9
I1
sg10
I8
sg11
I1
sg12
I25
sg13
F0.20000000000000001
sg14
F0.070000000000000007
sg15
g43
sg17
I0
sg18
I14
sg19
g20
sg21
I01
sg22
I40
sa(dp485
g24
I25
sg25
g26
sg35
I200
sg36
I00
sg37
I00
sg38
I01
sg39
I00
sg40
I01
sg33
I01
sasI149
(lp486
I00
a(dp487
g4
I30
sg5
I17
sg6
I00
sg7
I00
sg8
I00
sg9
I2
sg10
I8
sg11
I1
sg12
I16
sg13
F0.14000000000000001
sg14
F0.070000000000000007
sg15
g43
sg17
I0
sg18
I14
sg19
g20
sg21
I01
sg22
I95
sa(dp488
g24
I25
sg25
g26
sg35
I200
sg36
I00
sg37
I01
sg38
I01
sg39
I00
sg40
I01
sg33
I01
sasI150
(lp489
I00
a(dp490
g4
I30
sg5
I27
sg6
I00
sg7
I00
sg8
I00
sg9
I2
sg10
I8
sg11
I1
sg12
I91
sg13
F0.12
sg14
F0.070000000000000007
sg15
g43
sg17
I0
sg18
I21
sg19
g20
sg21
I01
sg22
I118
sa(dp491
g24
I25
sg25
g26
sg35
I200
sg36
I00
sg37
I00
sg38
I01
sg39
I01
sg40
I01
sg33
I01
sasI151
(lp492
I00
a(dp493
g4
I30
sg5
I11
sg6
I00
sg7
I00
sg8
I00
sg9
I2
sg10
I8
sg11
I1
sg12
I81
sg13
F0.31
sg14
F0.070000000000000007
sg15
g43
sg17
I0
sg18
I21
sg19
g20
sg21
I01
sg22
I122
sa(dp494
g24
I25
sg25
g26
sg35
I200
sg36
I00
sg37
I01
sg38
I01
sg39
I00
sg40
I01
sg33
I01
sasI152
(lp495
I00
a(dp496
g4
I30
sg5
I49
sg6
I00
sg7
I00
sg8
I00
sg9
I2
sg10
I8
sg11
I1
sg12
I92
sg13
F0.23000000000000001
sg14
F0.070000000000000007
sg15
g16
sg17
I0
sg18
I88
sg19
g20
sg21
I01
sg22
I117
sa(dp497
g24
I25
sg25
g26
sg35
I200
sg36
I00
sg37
I00
sg38
I01
sg39
I00
sg40
I01
sg33
I01
sasI153
(lp498
I00
a(dp499
g4
I30
sg5
I5
sg6
I00
sg7
I00
sg8
I00
sg9
I2
sg10
I8
sg11
I1
sg12
I32
sg13
F0.45000000000000001
sg14
F0.070000000000000007
sg15
g43
sg17
I0
sg18
I50
sg19
g20
sg21
I01
sg22
I27
sa(dp500
g24
I25
sg25
g26
sg35
I200
sg36
I00
sg37
I01
sg38
I01
sg39
I00
sg40
I01
sg33
I01
sasI154
(lp501
I00
a(dp502
g4
I30
sg5
I47
sg6
I00
sg7
I00
sg8
I00
sg9
I2
sg10
I8
sg11
I1
sg12
I23
sg13
F0.27000000000000002
sg14
F0.070000000000000007
sg15
g16
sg17
I0
sg18
I48
sg19
g20
sg21
I01
sg22
I73
sa(dp503
g24
I25
sg25
g26
sg35
I200
sg36
I00
sg37
I00
sg38
I01
sg39
I01
sg40
I01
sg33
I01
sasI155
(lp504
I00
a(dp505
g4
I30
sg5
I15
sg6
I00
sg7
I00
sg8
I00
sg9
I1
sg10
I8
sg11
I1
sg12
I17
sg13
F0.26000000000000001
sg14
F0.070000000000000007
sg15
g16
sg17
I0
sg18
I28
sg19
g20
sg21
I01
sg22
I103
sa(dp506
g24
I25
sg25
g26
sg35
I200
sg36
I00
sg37
I00
sg38
I01
sg39
I00
sg40
I01
sg33
I01
sasI156
(lp507
I00
a(dp508
g4
I30
sg5
I33
sg6
I00
sg7
I00
sg8
I00
sg9
I2
sg10
I8
sg11
I1
sg12
I14
sg13
F0.44
sg14
F0.070000000000000007
sg15
g16
sg17
I0
sg18
I71
sg19
g20
sg21
I01
sg22
I62
sa(dp509
g24
I25
sg25
g26
sg35
I200
sg36
I00
sg37
I00
sg38
I01
sg39
I00
sg40
I01
sg33
I01
sasI157
(lp510
I00
a(dp511
g4
I30
sg5
I20
sg6
I00
sg7
I00
sg8
I00
sg9
I1
sg10
I8
sg11
I1
sg12
I10
sg13
F0.19
sg14
F0.070000000000000007
sg15
g16
sg17
I0
sg18
I51
sg19
g20
sg21
I01
sg22
I56
sa(dp512
g24
I25
sg25
g26
sg35
I200
sg36
I00
sg37
I00
sg38
I01
sg39
I01
sg40
I01
sg33
I01
sasI158
(lp513
I00
a(dp514
g4
I30
sg5
I41
sg6
I00
sg7
I00
sg8
I00
sg9
I2
sg10
I8
sg11
I1
sg12
I21
sg13
F0.26000000000000001
sg14
F0.070000000000000007
sg15
g43
sg17
I0
sg18
I12
sg19
g20
sg21
I01
sg22
I62
sa(dp515
g24
I25
sg25
g26
sg35
I200
sg36
I00
sg37
I01
sg38
I01
sg39
I01
sg40
I01
sg33
I01
sasI159
(lp516
I00
a(dp517
g4
I30
sg5
I34
sg6
I00
sg7
I00
sg8
I00
sg9
I2
sg10
I8
sg11
I1
sg12
I15
sg13
F0.20999999999999999
sg14
F0.070000000000000007
sg15
g16
sg17
I0
sg18
I44
sg19
g20
sg21
I01
sg22
I24
sa(dp518
g24
I25
sg25
g26
sg35
I200
sg36
I00
sg37
I00
sg38
I01
sg39
I01
sg40
I01
sg33
I01
sasI160
(lp519
I00
a(dp520
g4
I30
sg5
I6
sg6
I00
sg7
I00
sg8
I00
sg9
I2
sg10
I8
sg11
I1
sg12
I89
sg13
F0.19
sg14
F0.070000000000000007
sg15
g16
sg17
I0
sg18
I11
sg19
g20
sg21
I01
sg22
I106
sa(dp521
g24
I25
sg25
g26
sg35
I200
sg36
I00
sg37
I01
sg38
I01
sg39
I01
sg40
I01
sg33
I01
sasI161
(lp522
I00
a(dp523
g4
I30
sg5
I6
sg6
I00
sg7
I00
sg8
I00
sg9
I1
sg10
I8
sg11
I1
sg12
I66
sg13
F0.40000000000000002
sg14
F0.070000000000000007
sg15
g43
sg17
I0
sg18
I13
sg19
g20
sg21
I01
sg22
I25
sa(dp524
g24
I25
sg25
g26
sg35
I200
sg36
I00
sg37
I01
sg38
I01
sg39
I00
sg40
I01
sg33
I01
sasI162
(lp525
I00
a(dp526
g4
I30
sg5
I18
sg6
I00
sg7
I00
sg8
I00
sg9
I2
sg10
I8
sg11
I1
sg12
I85
sg13
F0.29999999999999999
sg14
F0.070000000000000007
sg15
g43
sg17
I0
sg18
I30
sg19
g20
sg21
I01
sg22
I113
sa(dp527
g24
I25
sg25
g26
sg35
I200
sg36
I00
sg37
I01
sg38
I01
sg39
I00
sg40
I01
sg33
I01
sasI163
(lp528
I00
a(dp529
g4
I30
sg5
I5
sg6
I00
sg7
I00
sg8
I00
sg9
I1
sg10
I8
sg11
I1
sg12
I16
sg13
F0.17000000000000001
sg14
F0.070000000000000007
sg15
g16
sg17
I0
sg18
I68
sg19
g20
sg21
I01
sg22
I24
sa(dp530
g24
I25
sg25
g26
sg35
I200
sg36
I00
sg37
I00
sg38
I01
sg39
I00
sg40
I01
sg33
I01
sasI164
(lp531
I00
a(dp532
g4
I30
sg5
I5
sg6
I00
sg7
I00
sg8
I00
sg9
I2
sg10
I8
sg11
I1
sg12
I24
sg13
F0.17999999999999999
sg14
F0.070000000000000007
sg15
g43
sg17
I0
sg18
I16
sg19
g20
sg21
I01
sg22
I39
sa(dp533
g24
I25
sg25
g26
sg35
I200
sg36
I00
sg37
I00
sg38
I01
sg39
I01
sg40
I01
sg33
I01
sasI165
(lp534
I00
a(dp535
g4
I30
sg5
I15
sg6
I00
sg7
I00
sg8
I00
sg9
I2
sg10
I8
sg11
I1
sg12
I13
sg13
F0.19
sg14
F0.070000000000000007
sg15
g43
sg17
I0
sg18
I22
sg19
g20
sg21
I01
sg22
I89
sa(dp536
g24
I25
sg25
g26
sg35
I200
sg36
I00
sg37
I00
sg38
I01
sg39
I01
sg40
I01
sg33
I01
sasI166
(lp537
I00
a(dp538
g4
I30
sg5
I22
sg6
I00
sg7
I00
sg8
I00
sg9
I1
sg10
I8
sg11
I1
sg12
I22
sg13
F0.20000000000000001
sg14
F0.070000000000000007
sg15
g16
sg17
I0
sg18
I82
sg19
g20
sg21
I01
sg22
I51
sa(dp539
g24
I25
sg25
g26
sg35
I200
sg36
I00
sg37
I00
sg38
I01
sg39
I00
sg40
I01
sg33
I01
sasI167
(lp540
I00
a(dp541
g4
I30
sg5
I15
sg6
I00
sg7
I00
sg8
I00
sg9
I1
sg10
I8
sg11
I1
sg12
I17
sg13
F0.17000000000000001
sg14
F0.070000000000000007
sg15
g16
sg17
I0
sg18
I27
sg19
g20
sg21
I01
sg22
I114
sa(dp542
g24
I25
sg25
g26
sg35
I200
sg36
I00
sg37
I01
sg38
I01
sg39
I00
sg40
I01
sg33
I01
sasI168
(lp543
I00
a(dp544
g4
I30
sg5
I12
sg6
I00
sg7
I00
sg8
I00
sg9
I2
sg10
I8
sg11
I1
sg12
I94
sg13
F0.47999999999999998
sg14
F0.070000000000000007
sg15
g16
sg17
I0
sg18
I32
sg19
g20
sg21
I01
sg22
I24
sa(dp545
g24
I25
sg25
g26
sg35
I200
sg36
I00
sg37
I00
sg38
I01
sg39
I00
sg40
I01
sg33
I01
sasI169
(lp546
I00
a(dp547
g4
I30
sg5
I15
sg6
I00
sg7
I00
sg8
I00
sg9
I2
sg10
I8
sg11
I1
sg12
I20
sg13
F0.12
sg14
F0.070000000000000007
sg15
g16
sg17
I0
sg18
I48
sg19
g20
sg21
I01
sg22
I55
sa(dp548
g24
I25
sg25
g26
sg35
I200
sg36
I00
sg37
I00
sg38
I01
sg39
I01
sg40
I01
sg33
I01
sasI170
(lp549
I00
a(dp550
g4
I30
sg5
I18
sg6
I00
sg7
I00
sg8
I00
sg9
I1
sg10
I8
sg11
I1
sg12
I21
sg13
F0.14000000000000001
sg14
F0.070000000000000007
sg15
g16
sg17
I0
sg18
I12
sg19
g20
sg21
I01
sg22
I145
sa(dp551
g24
I25
sg25
g26
sg35
I200
sg36
I00
sg37
I01
sg38
I01
sg39
I00
sg40
I01
sg33
I01
sasI171
(lp552
I00
a(dp553
g4
I30
sg5
I5
sg6
I00
sg7
I00
sg8
I00
sg9
I2
sg10
I8
sg11
I1
sg12
I40
sg13
F0.12
sg14
F0.070000000000000007
sg15
g16
sg17
I0
sg18
I10
sg19
g20
sg21
I01
sg22
I32
sa(dp554
g24
I25
sg25
g26
sg35
I200
sg36
I00
sg37
I00
sg38
I01
sg39
I01
sg40
I01
sg33
I01
sasI172
(lp555
I00
a(dp556
g4
I30
sg5
I5
sg6
I00
sg7
I00
sg8
I00
sg9
I1
sg10
I8
sg11
I1
sg12
I15
sg13
F0.11
sg14
F0.070000000000000007
sg15
g43
sg17
I0
sg18
I70
sg19
g20
sg21
I01
sg22
I29
sa(dp557
g24
I25
sg25
g26
sg35
I200
sg36
I00
sg37
I01
sg38
I01
sg39
I00
sg40
I01
sg33
I01
sasI173
(lp558
I00
a(dp559
g4
I30
sg5
I13
sg6
I00
sg7
I00
sg8
I00
sg9
I2
sg10
I8
sg11
I1
sg12
I18
sg13
F0.27000000000000002
sg14
F0.070000000000000007
sg15
g16
sg17
I0
sg18
I58
sg19
g20
sg21
I01
sg22
I101
sa(dp560
g24
I25
sg25
g26
sg35
I200
sg36
I00
sg37
I00
sg38
I01
sg39
I00
sg40
I01
sg33
I01
sasI174
(lp561
I00
a(dp562
g4
I30
sg5
I21
sg6
I00
sg7
I00
sg8
I00
sg9
I1
sg10
I8
sg11
I1
sg12
I51
sg13
F0.46000000000000002
sg14
F0.070000000000000007
sg15
g43
sg17
I0
sg18
I12
sg19
g20
sg21
I01
sg22
I78
sa(dp563
g24
I25
sg25
g26
sg35
I200
sg36
I00
sg37
I00
sg38
I01
sg39
I00
sg40
I01
sg33
I01
sasI175
(lp564
I00
a(dp565
g4
I30
sg5
I11
sg6
I00
sg7
I00
sg8
I00
sg9
I1
sg10
I8
sg11
I1
sg12
I32
sg13
F0.14000000000000001
sg14
F0.070000000000000007
sg15
g43
sg17
I0
sg18
I45
sg19
g20
sg21
I01
sg22
I75
sa(dp566
g24
I25
sg25
g26
sg35
I200
sg36
I00
sg37
I00
sg38
I01
sg39
I01
sg40
I01
sg33
I01
sasI176
(lp567
I00
a(dp568
g4
I30
sg5
I39
sg6
I00
sg7
I00
sg8
I00
sg9
I1
sg10
I8
sg11
I1
sg12
I26
sg13
F0.17000000000000001
sg14
F0.070000000000000007
sg15
g16
sg17
I0
sg18
I28
sg19
g20
sg21
I01
sg22
I25
sa(dp569
g24
I25
sg25
g26
sg35
I200
sg36
I00
sg37
I01
sg38
I01
sg39
I00
sg40
I01
sg33
I01
sasI177
(lp570
I00
a(dp571
g4
I30
sg5
I8
sg6
I00
sg7
I00
sg8
I00
sg9
I2
sg10
I8
sg11
I1
sg12
I10
sg13
F0.45000000000000001
sg14
F0.070000000000000007
sg15
g16
sg17
I0
sg18
I30
sg19
g20
sg21
I01
sg22
I104
sa(dp572
g24
I25
sg25
g26
sg35
I200
sg36
I00
sg37
I01
sg38
I01
sg39
I01
sg40
I01
sg33
I01
sasI178
(lp573
I00
a(dp574
g4
I30
sg5
I13
sg6
I00
sg7
I00
sg8
I00
sg9
I1
sg10
I8
sg11
I1
sg12
I16
sg13
F0.20999999999999999
sg14
F0.070000000000000007
sg15
g16
sg17
I0
sg18
I17
sg19
g20
sg21
I01
sg22
I93
sa(dp575
g24
I25
sg25
g26
sg35
I200
sg36
I00
sg37
I00
sg38
I01
sg39
I00
sg40
I01
sg33
I01
sasI179
(lp576
I00
a(dp577
g4
I30
sg5
I46
sg6
I00
sg7
I00
sg8
I00
sg9
I2
sg10
I8
sg11
I1
sg12
I32
sg13
F0.16
sg14
F0.070000000000000007
sg15
g43
sg17
I0
sg18
I12
sg19
g20
sg21
I01
sg22
I130
sa(dp578
g24
I25
sg25
g26
sg35
I200
sg36
I00
sg37
I01
sg38
I01
sg39
I00
sg40
I01
sg33
I01
sasI180
(lp579
I00
a(dp580
g4
I30
sg5
I37
sg6
I00
sg7
I00
sg8
I00
sg9
I1
sg10
I8
sg11
I1
sg12
I47
sg13
F0.20999999999999999
sg14
F0.070000000000000007
sg15
g43
sg17
I0
sg18
I58
sg19
g20
sg21
I01
sg22
I21
sa(dp581
g24
I25
sg25
g26
sg35
I200
sg36
I00
sg37
I01
sg38
I01
sg39
I01
sg40
I01
sg33
I01
sasI181
(lp582
I00
a(dp583
g4
I30
sg5
I31
sg6
I00
sg7
I00
sg8
I00
sg9
I2
sg10
I8
sg11
I1
sg12
I33
sg13
F0.29999999999999999
sg14
F0.070000000000000007
sg15
g43
sg17
I0
sg18
I77
sg19
g20
sg21
I01
sg22
I97
sa(dp584
g24
I25
sg25
g26
sg35
I200
sg36
I00
sg37
I00
sg38
I01
sg39
I01
sg40
I01
sg33
I01
sasI182
(lp585
I00
a(dp586
g4
I30
sg5
I19
sg6
I00
sg7
I00
sg8
I00
sg9
I2
sg10
I8
sg11
I1
sg12
I79
sg13
F0.27000000000000002
sg14
F0.070000000000000007
sg15
g16
sg17
I0
sg18
I43
sg19
g20
sg21
I01
sg22
I84
sa(dp587
g24
I25
sg25
g26
sg35
I200
sg36
I00
sg37
I01
sg38
I01
sg39
I01
sg40
I01
sg33
I01
sasI183
(lp588
I00
a(dp589
g4
I30
sg5
I40
sg6
I00
sg7
I00
sg8
I00
sg9
I1
sg10
I8
sg11
I1
sg12
I11
sg13
F0.14000000000000001
sg14
F0.070000000000000007
sg15
g43
sg17
I0
sg18
I35
sg19
g20
sg21
I01
sg22
I32
sa(dp590
g24
I25
sg25
g26
sg35
I200
sg36
I00
sg37
I00
sg38
I01
sg39
I01
sg40
I01
sg33
I01
sasI184
(lp591
I00
a(dp592
g4
I30
sg5
I24
sg6
I00
sg7
I00
sg8
I00
sg9
I2
sg10
I8
sg11
I1
sg12
I44
sg13
F0.20000000000000001
sg14
F0.070000000000000007
sg15
g43
sg17
I0
sg18
I57
sg19
g20
sg21
I01
sg22
I31
sa(dp593
g24
I25
sg25
g26
sg35
I200
sg36
I00
sg37
I01
sg38
I01
sg39
I00
sg40
I01
sg33
I01
sasI185
(lp594
I00
a(dp595
g4
I30
sg5
I7
sg6
I00
sg7
I00
sg8
I00
sg9
I2
sg10
I8
sg11
I1
sg12
I27
sg13
F0.20000000000000001
sg14
F0.070000000000000007
sg15
g43
sg17
I0
sg18
I22
sg19
g20
sg21
I01
sg22
I79
sa(dp596
g24
I25
sg25
g26
sg35
I200
sg36
I00
sg37
I01
sg38
I01
sg39
I00
sg40
I01
sg33
I01
sasI186
(lp597
I00
a(dp598
g4
I30
sg5
I28
sg6
I00
sg7
I00
sg8
I00
sg9
I2
sg10
I8
sg11
I1
sg12
I29
sg13
F0.19
sg14
F0.070000000000000007
sg15
g43
sg17
I0
sg18
I89
sg19
g20
sg21
I01
sg22
I26
sa(dp599
g24
I25
sg25
g26
sg35
I200
sg36
I00
sg37
I00
sg38
I01
sg39
I00
sg40
I01
sg33
I01
sasI187
(lp600
I00
a(dp601
g4
I30
sg5
I8
sg6
I00
sg7
I00
sg8
I00
sg9
I1
sg10
I8
sg11
I1
sg12
I25
sg13
F0.40999999999999998
sg14
F0.070000000000000007
sg15
g43
sg17
I0
sg18
I38
sg19
g20
sg21
I01
sg22
I20
sa(dp602
g24
I25
sg25
g26
sg35
I200
sg36
I00
sg37
I00
sg38
I01
sg39
I01
sg40
I01
sg33
I01
sasI188
(lp603
I00
a(dp604
g4
I30
sg5
I21
sg6
I00
sg7
I00
sg8
I00
sg9
I2
sg10
I8
sg11
I1
sg12
I11
sg13
F0.23999999999999999
sg14
F0.070000000000000007
sg15
g16
sg17
I0
sg18
I23
sg19
g20
sg21
I01
sg22
I26
sa(dp605
g24
I25
sg25
g26
sg35
I200
sg36
I00
sg37
I01
sg38
I01
sg39
I01
sg40
I01
sg33
I01
sasI189
(lp606
I00
a(dp607
g4
I30
sg5
I28
sg6
I00
sg7
I00
sg8
I00
sg9
I2
sg10
I8
sg11
I1
sg12
I17
sg13
F0.34000000000000002
sg14
F0.070000000000000007
sg15
g16
sg17
I0
sg18
I55
sg19
g20
sg21
I01
sg22
I46
sa(dp608
g24
I25
sg25
g26
sg35
I200
sg36
I00
sg37
I00
sg38
I01
sg39
I01
sg40
I01
sg33
I01
sasI190
(lp609
I00
a(dp610
g4
I30
sg5
I7
sg6
I00
sg7
I00
sg8
I00
sg9
I1
sg10
I8
sg11
I1
sg12
I68
sg13
F0.16
sg14
F0.070000000000000007
sg15
g16
sg17
I0
sg18
I39
sg19
g20
sg21
I01
sg22
I56
sa(dp611
g24
I25
sg25
g26
sg35
I200
sg36
I00
sg37
I00
sg38
I01
sg39
I01
sg40
I01
sg33
I01
sasI191
(lp612
I00
a(dp613
g4
I30
sg5
I33
sg6
I00
sg7
I00
sg8
I00
sg9
I2
sg10
I8
sg11
I1
sg12
I42
sg13
F0.13
sg14
F0.070000000000000007
sg15
g16
sg17
I0
sg18
I12
sg19
g20
sg21
I01
sg22
I39
sa(dp614
g24
I25
sg25
g26
sg35
I200
sg36
I00
sg37
I00
sg38
I01
sg39
I01
sg40
I01
sg33
I01
sasI192
(lp615
I00
a(dp616
g4
I30
sg5
I10
sg6
I00
sg7
I00
sg8
I00
sg9
I2
sg10
I8
sg11
I1
sg12
I46
sg13
F0.20000000000000001
sg14
F0.070000000000000007
sg15
g43
sg17
I0
sg18
I10
sg19
g20
sg21
I01
sg22
I52
sa(dp617
g24
I25
sg25
g26
sg35
I200
sg36
I00
sg37
I00
sg38
I01
sg39
I00
sg40
I01
sg33
I01
sasI193
(lp618
I00
a(dp619
g4
I30
sg5
I13
sg6
I00
sg7
I00
sg8
I00
sg9
I1
sg10
I8
sg11
I1
sg12
I22
sg13
F0.19
sg14
F0.070000000000000007
sg15
g16
sg17
I0
sg18
I18
sg19
g20
sg21
I01
sg22
I25
sa(dp620
g24
I25
sg25
g26
sg35
I200
sg36
I00
sg37
I01
sg38
I01
sg39
I00
sg40
I01
sg33
I01
sasI194
(lp621
I00
a(dp622
g4
I30
sg5
I17
sg6
I00
sg7
I00
sg8
I00
sg9
I1
sg10
I8
sg11
I1
sg12
I31
sg13
F0.13
sg14
F0.070000000000000007
sg15
g16
sg17
I0
sg18
I35
sg19
g20
sg21
I01
sg22
I105
sa(dp623
g24
I25
sg25
g26
sg35
I200
sg36
I00
sg37
I01
sg38
I01
sg39
I00
sg40
I01
sg33
I01
sasI195
(lp624
I00
a(dp625
g4
I30
sg5
I49
sg6
I00
sg7
I00
sg8
I00
sg9
I2
sg10
I8
sg11
I1
sg12
I11
sg13
F0.35999999999999999
sg14
F0.070000000000000007
sg15
g43
sg17
I0
sg18
I26
sg19
g20
sg21
I01
sg22
I40
sa(dp626
g24
I25
sg25
g26
sg35
I200
sg36
I00
sg37
I00
sg38
I01
sg39
I00
sg40
I01
sg33
I01
sasI196
(lp627
I00
a(dp628
g4
I30
sg5
I15
sg6
I00
sg7
I00
sg8
I00
sg9
I2
sg10
I8
sg11
I1
sg12
I36
sg13
F0.17000000000000001
sg14
F0.070000000000000007
sg15
g43
sg17
I0
sg18
I60
sg19
g20
sg21
I01
sg22
I65
sa(dp629
g24
I25
sg25
g26
sg35
I200
sg36
I00
sg37
I00
sg38
I01
sg39
I00
sg40
I01
sg33
I01
sasI197
(lp630
I00
a(dp631
g4
I30
sg5
I12
sg6
I00
sg7
I00
sg8
I00
sg9
I2
sg10
I8
sg11
I1
sg12
I18
sg13
F0.17999999999999999
sg14
F0.070000000000000007
sg15
g43
sg17
I0
sg18
I55
sg19
g20
sg21
I01
sg22
I138
sa(dp632
g24
I25
sg25
g26
sg35
I200
sg36
I00
sg37
I00
sg38
I01
sg39
I01
sg40
I01
sg33
I01
sasI198
(lp633
I00
a(dp634
g4
I30
sg5
I8
sg6
I00
sg7
I00
sg8
I00
sg9
I2
sg10
I8
sg11
I1
sg12
I46
sg13
F0.16
sg14
F0.070000000000000007
sg15
g43
sg17
I0
sg18
I96
sg19
g20
sg21
I01
sg22
I111
sa(dp635
g24
I25
sg25
g26
sg35
I200
sg36
I00
sg37
I00
sg38
I01
sg39
I01
sg40
I01
sg33
I01
sasI199
(lp636
I00
a(dp637
g4
I30
sg5
I25
sg6
I00
sg7
I00
sg8
I00
sg9
I1
sg10
I8
sg11
I1
sg12
I19
sg13
F0.27000000000000002
sg14
F0.070000000000000007
sg15
g43
sg17
I0
sg18
I10
sg19
g20
sg21
I01
sg22
I37
sa(dp638
g24
I25
sg25
g26
sg35
I200
sg36
I00
sg37
I00
sg38
I01
sg39
I00
sg40
I01
sg33
I01
sasI200
(lp639
I00
a(dp640
g4
I30
sg5
I11
sg6
I00
sg7
I00
sg8
I00
sg9
I1
sg10
I8
sg11
I1
sg12
I25
sg13
F0.23999999999999999
sg14
F0.070000000000000007
sg15
g16
sg17
I0
sg18
I25
sg19
g20
sg21
I01
sg22
I56
sa(dp641
g24
I25
sg25
g26
sg35
I200
sg36
I00
sg37
I00
sg38
I01
sg39
I00
sg40
I01
sg33
I01
sasI201
(lp642
I00
a(dp643
g4
I30
sg5
I8
sg6
I00
sg7
I00
sg8
I00
sg9
I2
sg10
I8
sg11
I1
sg12
I68
sg13
F0.11
sg14
F0.070000000000000007
sg15
g16
sg17
I0
sg18
I49
sg19
g20
sg21
I01
sg22
I28
sa(dp644
g24
I25
sg25
g26
sg35
I200
sg36
I00
sg37
I00
sg38
I01
sg39
I01
sg40
I01
sg33
I01
sasI202
(lp645
I01
a(dp646
g4
I30
sg5
I10
sg6
I00
sg7
I00
sg8
I00
sg9
I2
sg10
I8
sg11
I1
sg12
I51
sg13
F0.11
sg14
F0.070000000000000007
sg15
g43
sg17
I0
sg18
I95
sg19
g20
sg21
I01
sg22
I75
sa(dp647
g24
I25
sg25
g26
sg35
I200
sg36
I00
sg37
I01
sg38
I01
sg39
I00
sg40
I01
sg33
I01
sasI203
(lp648
I00
a(dp649
g4
I30
sg5
I30
sg6
I00
sg7
I00
sg8
I00
sg9
I2
sg10
I8
sg11
I1
sg12
I20
sg13
F0.14999999999999999
sg14
F0.070000000000000007
sg15
g16
sg17
I0
sg18
I38
sg19
g20
sg21
I01
sg22
I66
sa(dp650
g24
I25
sg25
g26
sg35
I200
sg36
I00
sg37
I01
sg38
I01
sg39
I01
sg40
I01
sg33
I01
sasI204
(lp651
I00
a(dp652
g4
I30
sg5
I11
sg6
I00
sg7
I00
sg8
I00
sg9
I1
sg10
I8
sg11
I1
sg12
I24
sg13
F0.37
sg14
F0.070000000000000007
sg15
g43
sg17
I0
sg18
I17
sg19
g20
sg21
I01
sg22
I25
sa(dp653
g24
I25
sg25
g26
sg35
I200
sg36
I00
sg37
I00
sg38
I01
sg39
I01
sg40
I01
sg33
I01
sasI205
(lp654
I00
a(dp655
g4
I30
sg5
I45
sg6
I00
sg7
I00
sg8
I00
sg9
I1
sg10
I8
sg11
I1
sg12
I13
sg13
F0.23000000000000001
sg14
F0.070000000000000007
sg15
g16
sg17
I0
sg18
I56
sg19
g20
sg21
I01
sg22
I123
sa(dp656
g24
I25
sg25
g26
sg35
I200
sg36
I00
sg37
I01
sg38
I01
sg39
I01
sg40
I01
sg33
I01
sasI206
(lp657
I00
a(dp658
g4
I30
sg5
I43
sg6
I00
sg7
I00
sg8
I00
sg9
I1
sg10
I8
sg11
I1
sg12
I22
sg13
F0.40000000000000002
sg14
F0.070000000000000007
sg15
g16
sg17
I0
sg18
I51
sg19
g20
sg21
I01
sg22
I51
sa(dp659
g24
I25
sg25
g26
sg35
I200
sg36
I00
sg37
I01
sg38
I01
sg39
I01
sg40
I01
sg33
I01
sasI207
(lp660
I00
a(dp661
g4
I30
sg5
I17
sg6
I00
sg7
I00
sg8
I00
sg9
I1
sg10
I8
sg11
I1
sg12
I66
sg13
F0.14999999999999999
sg14
F0.070000000000000007
sg15
g16
sg17
I0
sg18
I10
sg19
g20
sg21
I01
sg22
I26
sa(dp662
g24
I25
sg25
g26
sg35
I200
sg36
I00
sg37
I00
sg38
I01
sg39
I00
sg40
I01
sg33
I01
sasI208
(lp663
I00
a(dp664
g4
I30
sg5
I18
sg6
I00
sg7
I00
sg8
I00
sg9
I2
sg10
I8
sg11
I1
sg12
I17
sg13
F0.13
sg14
F0.070000000000000007
sg15
g43
sg17
I0
sg18
I38
sg19
g20
sg21
I01
sg22
I32
sa(dp665
g24
I25
sg25
g26
sg35
I200
sg36
I00
sg37
I00
sg38
I01
sg39
I01
sg40
I01
sg33
I01
sasI209
(lp666
I00
a(dp667
g4
I30
sg5
I27
sg6
I00
sg7
I00
sg8
I00
sg9
I1
sg10
I8
sg11
I1
sg12
I11
sg13
F0.39000000000000001
sg14
F0.070000000000000007
sg15
g43
sg17
I0
sg18
I61
sg19
g20
sg21
I01
sg22
I99
sa(dp668
g24
I25
sg25
g26
sg35
I200
sg36
I00
sg37
I01
sg38
I01
sg39
I00
sg40
I01
sg33
I01
sasI210
(lp669
I01
a(dp670
g4
I30
sg5
I15
sg6
I00
sg7
I00
sg8
I00
sg9
I1
sg10
I8
sg11
I1
sg12
I66
sg13
F0.10000000000000001
sg14
F0.070000000000000007
sg15
g16
sg17
I0
sg18
I12
sg19
g20
sg21
I01
sg22
I58
sa(dp671
g24
I25
sg25
g26
sg35
I200
sg36
I00
sg37
I00
sg38
I01
sg39
I00
sg40
I01
sg33
I01
sasI211
(lp672
I00
a(dp673
g4
I30
sg5
I14
sg6
I00
sg7
I00
sg8
I00
sg9
I2
sg10
I8
sg11
I1
sg12
I24
sg13
F0.17000000000000001
sg14
F0.070000000000000007
sg15
g16
sg17
I0
sg18
I25
sg19
g20
sg21
I01
sg22
I89
sa(dp674
g24
I25
sg25
g26
sg35
I200
sg36
I00
sg37
I01
sg38
I01
sg39
I00
sg40
I01
sg33
I01
sasI212
(lp675
I00
a(dp676
g4
I30
sg5
I8
sg6
I00
sg7
I00
sg8
I00
sg9
I1
sg10
I8
sg11
I1
sg12
I11
sg13
F0.23000000000000001
sg14
F0.070000000000000007
sg15
g16
sg17
I0
sg18
I71
sg19
g20
sg21
I01
sg22
I32
sa(dp677
g24
I25
sg25
g26
sg35
I200
sg36
I00
sg37
I00
sg38
I01
sg39
I01
sg40
I01
sg33
I01
sasI213
(lp678
I00
a(dp679
g4
I30
sg5
I6
sg6
I00
sg7
I00
sg8
I00
sg9
I2
sg10
I8
sg11
I1
sg12
I14
sg13
F0.10000000000000001
sg14
F0.070000000000000007
sg15
g43
sg17
I0
sg18
I32
sg19
g20
sg21
I01
sg22
I92
sa(dp680
g24
I25
sg25
g26
sg35
I200
sg36
I00
sg37
I00
sg38
I01
sg39
I01
sg40
I01
sg33
I01
sasI214
(lp681
I00
a(dp682
g4
I30
sg5
I24
sg6
I00
sg7
I00
sg8
I00
sg9
I1
sg10
I8
sg11
I1
sg12
I68
sg13
F0.33000000000000002
sg14
F0.070000000000000007
sg15
g16
sg17
I0
sg18
I30
sg19
g20
sg21
I01
sg22
I54
sa(dp683
g24
I25
sg25
g26
sg35
I200
sg36
I00
sg37
I01
sg38
I01
sg39
I01
sg40
I01
sg33
I01
sasI215
(lp684
I00
a(dp685
g4
I30
sg5
I14
sg6
I00
sg7
I00
sg8
I00
sg9
I2
sg10
I8
sg11
I1
sg12
I22
sg13
F0.42999999999999999
sg14
F0.070000000000000007
sg15
g16
sg17
I0
sg18
I64
sg19
g20
sg21
I01
sg22
I48
sa(dp686
g24
I25
sg25
g26
sg35
I200
sg36
I00
sg37
I00
sg38
I01
sg39
I01
sg40
I01
sg33
I01
sasI216
(lp687
I00
a(dp688
g4
I30
sg5
I15
sg6
I00
sg7
I00
sg8
I00
sg9
I1
sg10
I8
sg11
I1
sg12
I15
sg13
F0.39000000000000001
sg14
F0.070000000000000007
sg15
g43
sg17
I0
sg18
I57
sg19
g20
sg21
I01
sg22
I81
sa(dp689
g24
I25
sg25
g26
sg35
I200
sg36
I00
sg37
I00
sg38
I01
sg39
I00
sg40
I01
sg33
I01
sasI217
(lp690
I00
a(dp691
g4
I30
sg5
I16
sg6
I00
sg7
I00
sg8
I00
sg9
I1
sg10
I8
sg11
I1
sg12
I67
sg13
F0.23000000000000001
sg14
F0.070000000000000007
sg15
g43
sg17
I0
sg18
I59
sg19
g20
sg21
I01
sg22
I101
sa(dp692
g24
I25
sg25
g26
sg35
I200
sg36
I00
sg37
I01
sg38
I01
sg39
I01
sg40
I01
sg33
I01
sasI218
(lp693
I00
a(dp694
g4
I30
sg5
I22
sg6
I00
sg7
I00
sg8
I00
sg9
I1
sg10
I8
sg11
I1
sg12
I28
sg13
F0.47999999999999998
sg14
F0.070000000000000007
sg15
g16
sg17
I0
sg18
I53
sg19
g20
sg21
I01
sg22
I50
sa(dp695
g24
I25
sg25
g26
sg35
I200
sg36
I00
sg37
I01
sg38
I01
sg39
I01
sg40
I01
sg33
I01
sasI219
(lp696
I00
a(dp697
g4
I30
sg5
I31
sg6
I00
sg7
I00
sg8
I00
sg9
I1
sg10
I8
sg11
I1
sg12
I15
sg13
F0.45000000000000001
sg14
F0.070000000000000007
sg15
g16
sg17
I0
sg18
I74
sg19
g20
sg21
I01
sg22
I33
sa(dp698
g24
I25
sg25
g26
sg35
I200
sg36
I00
sg37
I01
sg38
I01
sg39
I00
sg40
I01
sg33
I01
sasI220
(lp699
I00
a(dp700
g4
I30
sg5
I5
sg6
I00
sg7
I00
sg8
I00
sg9
I2
sg10
I8
sg11
I1
sg12
I84
sg13
F0.27000000000000002
sg14
F0.070000000000000007
sg15
g43
sg17
I0
sg18
I10
sg19
g20
sg21
I01
sg22
I102
sa(dp701
g24
I25
sg25
g26
sg35
I200
sg36
I00
sg37
I00
sg38
I01
sg39
I01
sg40
I01
sg33
I01
sasI221
(lp702
I00
a(dp703
g4
I30
sg5
I15
sg6
I00
sg7
I00
sg8
I00
sg9
I2
sg10
I8
sg11
I1
sg12
I60
sg13
F0.26000000000000001
sg14
F0.070000000000000007
sg15
g16
sg17
I0
sg18
I22
sg19
g20
sg21
I01
sg22
I44
sa(dp704
g24
I25
sg25
g26
sg35
I200
sg36
I00
sg37
I01
sg38
I01
sg39
I00
sg40
I01
sg33
I01
sasI222
(lp705
I00
a(dp706
g4
I30
sg5
I11
sg6
I00
sg7
I00
sg8
I00
sg9
I1
sg10
I8
sg11
I1
sg12
I15
sg13
F0.14000000000000001
sg14
F0.070000000000000007
sg15
g16
sg17
I0
sg18
I83
sg19
g20
sg21
I01
sg22
I58
sa(dp707
g24
I25
sg25
g26
sg35
I200
sg36
I00
sg37
I00
sg38
I01
sg39
I00
sg40
I01
sg33
I01
sasI223
(lp708
I00
a(dp709
g4
I30
sg5
I19
sg6
I00
sg7
I00
sg8
I00
sg9
I2
sg10
I8
sg11
I1
sg12
I11
sg13
F0.42999999999999999
sg14
F0.070000000000000007
sg15
g43
sg17
I0
sg18
I72
sg19
g20
sg21
I01
sg22
I55
sa(dp710
g24
I25
sg25
g26
sg35
I200
sg36
I00
sg37
I00
sg38
I01
sg39
I01
sg40
I01
sg33
I01
sasI224
(lp711
I00
a(dp712
g4
I30
sg5
I15
sg6
I00
sg7
I00
sg8
I00
sg9
I2
sg10
I8
sg11
I1
sg12
I84
sg13
F0.44
sg14
F0.070000000000000007
sg15
g16
sg17
I0
sg18
I21
sg19
g20
sg21
I01
sg22
I130
sa(dp713
g24
I25
sg25
g26
sg35
I200
sg36
I00
sg37
I01
sg38
I01
sg39
I00
sg40
I01
sg33
I01
sasI225
(lp714
I00
a(dp715
g4
I30
sg5
I47
sg6
I00
sg7
I00
sg8
I00
sg9
I1
sg10
I8
sg11
I1
sg12
I40
sg13
F0.47999999999999998
sg14
F0.070000000000000007
sg15
g43
sg17
I0
sg18
I18
sg19
g20
sg21
I01
sg22
I26
sa(dp716
g24
I25
sg25
g26
sg35
I200
sg36
I00
sg37
I01
sg38
I01
sg39
I00
sg40
I01
sg33
I01
sasI226
(lp717
I00
a(dp718
g4
I30
sg5
I7
sg6
I00
sg7
I00
sg8
I00
sg9
I1
sg10
I8
sg11
I1
sg12
I40
sg13
F0.32000000000000001
sg14
F0.070000000000000007
sg15
g16
sg17
I0
sg18
I18
sg19
g20
sg21
I01
sg22
I101
sa(dp719
g24
I25
sg25
g26
sg35
I200
sg36
I00
sg37
I00
sg38
I01
sg39
I01
sg40
I01
sg33
I01
sasI227
(lp720
I00
a(dp721
g4
I30
sg5
I24
sg6
I00
sg7
I00
sg8
I00
sg9
I2
sg10
I8
sg11
I1
sg12
I59
sg13
F0.12
sg14
F0.070000000000000007
sg15
g43
sg17
I0
sg18
I59
sg19
g20
sg21
I01
sg22
I93
sa(dp722
g24
I25
sg25
g26
sg35
I200
sg36
I00
sg37
I01
sg38
I01
sg39
I00
sg40
I01
sg33
I01
sasI228
(lp723
I00
a(dp724
g4
I30
sg5
I6
sg6
I00
sg7
I00
sg8
I00
sg9
I2
sg10
I8
sg11
I1
sg12
I43
sg13
F0.34999999999999998
sg14
F0.070000000000000007
sg15
g43
sg17
I0
sg18
I18
sg19
g20
sg21
I01
sg22
I79
sa(dp725
g24
I25
sg25
g26
sg35
I200
sg36
I00
sg37
I01
sg38
I01
sg39
I00
sg40
I01
sg33
I01
sasI229
(lp726
I00
a(dp727
g4
I30
sg5
I5
sg6
I00
sg7
I00
sg8
I00
sg9
I2
sg10
I8
sg11
I1
sg12
I24
sg13
F0.12
sg14
F0.070000000000000007
sg15
g43
sg17
I0
sg18
I13
sg19
g20
sg21
I01
sg22
I21
sa(dp728
g24
I25
sg25
g26
sg35
I200
sg36
I00
sg37
I01
sg38
I01
sg39
I00
sg40
I01
sg33
I01
sasI230
(lp729
I00
a(dp730
g4
I30
sg5
I6
sg6
I00
sg7
I00
sg8
I00
sg9
I1
sg10
I8
sg11
I1
sg12
I11
sg13
F0.48999999999999999
sg14
F0.070000000000000007
sg15
g16
sg17
I0
sg18
I37
sg19
g20
sg21
I01
sg22
I104
sa(dp731
g24
I25
sg25
g26
sg35
I200
sg36
I00
sg37
I01
sg38
I01
sg39
I00
sg40
I01
sg33
I01
sasI231
(lp732
I00
a(dp733
g4
I30
sg5
I12
sg6
I00
sg7
I00
sg8
I00
sg9
I2
sg10
I8
sg11
I1
sg12
I77
sg13
F0.19
sg14
F0.070000000000000007
sg15
g43
sg17
I0
sg18
I50
sg19
g20
sg21
I01
sg22
I66
sa(dp734
g24
I25
sg25
g26
sg35
I200
sg36
I00
sg37
I01
sg38
I01
sg39
I00
sg40
I01
sg33
I01
sasI232
(lp735
I00
a(dp736
g4
I30
sg5
I37
sg6
I00
sg7
I00
sg8
I00
sg9
I2
sg10
I8
sg11
I1
sg12
I16
sg13
F0.12
sg14
F0.070000000000000007
sg15
g16
sg17
I0
sg18
I87
sg19
g20
sg21
I01
sg22
I107
sa(dp737
g24
I25
sg25
g26
sg35
I200
sg36
I00
sg37
I00
sg38
I01
sg39
I00
sg40
I01
sg33
I01
sasI233
(lp738
I00
a(dp739
g4
I30
sg5
I8
sg6
I00
sg7
I00
sg8
I00
sg9
I2
sg10
I8
sg11
I1
sg12
I11
sg13
F0.28000000000000003
sg14
F0.070000000000000007
sg15
g16
sg17
I0
sg18
I10
sg19
g20
sg21
I01
sg22
I35
sa(dp740
g24
I25
sg25
g26
sg35
I200
sg36
I00
sg37
I01
sg38
I01
sg39
I01
sg40
I01
sg33
I01
sasI234
(lp741
I00
a(dp742
g4
I30
sg5
I29
sg6
I00
sg7
I00
sg8
I00
sg9
I1
sg10
I8
sg11
I1
sg12
I13
sg13
F0.45000000000000001
sg14
F0.070000000000000007
sg15
g43
sg17
I0
sg18
I32
sg19
g20
sg21
I01
sg22
I35
sa(dp743
g24
I25
sg25
g26
sg35
I200
sg36
I00
sg37
I01
sg38
I01
sg39
I00
sg40
I01
sg33
I01
sasI235
(lp744
I00
a(dp745
g4
I30
sg5
I18
sg6
I00
sg7
I00
sg8
I00
sg9
I1
sg10
I8
sg11
I1
sg12
I21
sg13
F0.14999999999999999
sg14
F0.070000000000000007
sg15
g16
sg17
I0
sg18
I23
sg19
g20
sg21
I01
sg22
I26
sa(dp746
g24
I25
sg25
g26
sg35
I200
sg36
I00
sg37
I01
sg38
I01
sg39
I00
sg40
I01
sg33
I01
sasI236
(lp747
I00
a(dp748
g4
I30
sg5
I12
sg6
I00
sg7
I00
sg8
I00
sg9
I1
sg10
I8
sg11
I1
sg12
I11
sg13
F0.20000000000000001
sg14
F0.070000000000000007
sg15
g16
sg17
I0
sg18
I30
sg19
g20
sg21
I01
sg22
I37
sa(dp749
g24
I25
sg25
g26
sg35
I200
sg36
I00
sg37
I00
sg38
I01
sg39
I00
sg40
I01
sg33
I01
sasI237
(lp750
I00
a(dp751
g4
I30
sg5
I7
sg6
I00
sg7
I00
sg8
I00
sg9
I2
sg10
I8
sg11
I1
sg12
I36
sg13
F0.19
sg14
F0.070000000000000007
sg15
g16
sg17
I0
sg18
I14
sg19
g20
sg21
I01
sg22
I56
sa(dp752
g24
I25
sg25
g26
sg35
I200
sg36
I00
sg37
I00
sg38
I01
sg39
I00
sg40
I01
sg33
I01
sasI238
(lp753
I00
a(dp754
g4
I30
sg5
I23
sg6
I00
sg7
I00
sg8
I00
sg9
I2
sg10
I8
sg11
I1
sg12
I55
sg13
F0.37
sg14
F0.070000000000000007
sg15
g43
sg17
I0
sg18
I25
sg19
g20
sg21
I01
sg22
I40
sa(dp755
g24
I25
sg25
g26
sg35
I200
sg36
I00
sg37
I01
sg38
I01
sg39
I01
sg40
I01
sg33
I01
sasI239
(lp756
I00
a(dp757
g4
I30
sg5
I5
sg6
I00
sg7
I00
sg8
I00
sg9
I1
sg10
I8
sg11
I1
sg12
I32
sg13
F0.17000000000000001
sg14
F0.070000000000000007
sg15
g16
sg17
I0
sg18
I94
sg19
g20
sg21
I01
sg22
I95
sa(dp758
g24
I25
sg25
g26
sg35
I200
sg36
I00
sg37
I01
sg38
I01
sg39
I01
sg40
I01
sg33
I01
sasI240
(lp759
I00
a(dp760
g4
I30
sg5
I20
sg6
I00
sg7
I00
sg8
I00
sg9
I1
sg10
I8
sg11
I1
sg12
I10
sg13
F0.12
sg14
F0.070000000000000007
sg15
g43
sg17
I0
sg18
I33
sg19
g20
sg21
I01
sg22
I48
sa(dp761
g24
I25
sg25
g26
sg35
I200
sg36
I00
sg37
I01
sg38
I01
sg39
I00
sg40
I01
sg33
I01
sasI241
(lp762
I00
a(dp763
g4
I30
sg5
I15
sg6
I00
sg7
I00
sg8
I00
sg9
I1
sg10
I8
sg11
I1
sg12
I44
sg13
F0.10000000000000001
sg14
F0.070000000000000007
sg15
g43
sg17
I0
sg18
I88
sg19
g20
sg21
I01
sg22
I34
sa(dp764
g24
I25
sg25
g26
sg35
I200
sg36
I00
sg37
I00
sg38
I01
sg39
I00
sg40
I01
sg33
I01
sasI242
(lp765
I00
a(dp766
g4
I30
sg5
I24
sg6
I00
sg7
I00
sg8
I00
sg9
I2
sg10
I8
sg11
I1
sg12
I11
sg13
F0.13
sg14
F0.070000000000000007
sg15
g43
sg17
I0
sg18
I60
sg19
g20
sg21
I01
sg22
I119
sa(dp767
g24
I25
sg25
g26
sg35
I200
sg36
I00
sg37
I00
sg38
I01
sg39
I00
sg40
I01
sg33
I01
sasI243
(lp768
I00
a(dp769
g4
I30
sg5
I12
sg6
I00
sg7
I00
sg8
I00
sg9
I2
sg10
I8
sg11
I1
sg12
I81
sg13
F0.22
sg14
F0.070000000000000007
sg15
g16
sg17
I0
sg18
I75
sg19
g20
sg21
I01
sg22
I27
sa(dp770
g24
I25
sg25
g26
sg35
I200
sg36
I00
sg37
I00
sg38
I01
sg39
I00
sg40
I01
sg33
I01
sasI244
(lp771
I00
a(dp772
g4
I30
sg5
I7
sg6
I00
sg7
I00
sg8
I00
sg9
I2
sg10
I8
sg11
I1
sg12
I36
sg13
F0.47999999999999998
sg14
F0.070000000000000007
sg15
g16
sg17
I0
sg18
I37
sg19
g20
sg21
I01
sg22
I142
sa(dp773
g24
I25
sg25
g26
sg35
I200
sg36
I00
sg37
I00
sg38
I01
sg39
I00
sg40
I01
sg33
I01
sasI245
(lp774
I00
a(dp775
g4
I30
sg5
I11
sg6
I00
sg7
I00
sg8
I00
sg9
I2
sg10
I8
sg11
I1
sg12
I34
sg13
F0.46999999999999997
sg14
F0.070000000000000007
sg15
g16
sg17
I0
sg18
I16
sg19
g20
sg21
I01
sg22
I44
sa(dp776
g24
I25
sg25
g26
sg35
I200
sg36
I00
sg37
I00
sg38
I01
sg39
I00
sg40
I01
sg33
I01
sasI246
(lp777
I00
a(dp778
g4
I30
sg5
I10
sg6
I00
sg7
I00
sg8
I00
sg9
I2
sg10
I8
sg11
I1
sg12
I57
sg13
F0.13
sg14
F0.070000000000000007
sg15
g43
sg17
I0
sg18
I20
sg19
g20
sg21
I01
sg22
I32
sa(dp779
g24
I25
sg25
g26
sg35
I200
sg36
I00
sg37
I00
sg38
I01
sg39
I00
sg40
I01
sg33
I01
sasI247
(lp780
I00
a(dp781
g4
I30
sg5
I41
sg6
I00
sg7
I00
sg8
I00
sg9
I2
sg10
I8
sg11
I1
sg12
I40
sg13
F0.26000000000000001
sg14
F0.070000000000000007
sg15
g16
sg17
I0
sg18
I49
sg19
g20
sg21
I01
sg22
I25
sa(dp782
g24
I25
sg25
g26
sg35
I200
sg36
I00
sg37
I01
sg38
I01
sg39
I01
sg40
I01
sg33
I01
sasI248
(lp783
I00
a(dp784
g4
I30
sg5
I12
sg6
I00
sg7
I00
sg8
I00
sg9
I1
sg10
I8
sg11
I1
sg12
I53
sg13
F0.19
sg14
F0.070000000000000007
sg15
g43
sg17
I0
sg18
I22
sg19
g20
sg21
I01
sg22
I30
sa(dp785
g24
I25
sg25
g26
sg35
I200
sg36
I00
sg37
I00
sg38
I01
sg39
I00
sg40
I01
sg33
I01
sasI249
(lp786
I00
a(dp787
g4
I30
sg5
I18
sg6
I00
sg7
I00
sg8
I00
sg9
I1
sg10
I8
sg11
I1
sg12
I26
sg13
F0.29999999999999999
sg14
F0.070000000000000007
sg15
g16
sg17
I0
sg18
I31
sg19
g20
sg21
I01
sg22
I27
sa(dp788
g24
I25
sg25
g26
sg35
I200
sg36
I00
sg37
I00
sg38
I01
sg39
I00
sg40
I01
sg33
I01
sasI250
(lp789
I00
a(dp790
g4
I30
sg5
I12
sg6
I00
sg7
I00
sg8
I00
sg9
I2
sg10
I8
sg11
I1
sg12
I96
sg13
F0.11
sg14
F0.070000000000000007
sg15
g43
sg17
I0
sg18
I13
sg19
g20
sg21
I01
sg22
I116
sa(dp791
g24
I25
sg25
g26
sg35
I200
sg36
I00
sg37
I00
sg38
I01
sg39
I00
sg40
I01
sg33
I01
sasI251
(lp792
I00
a(dp793
g4
I30
sg5
I39
sg6
I00
sg7
I00
sg8
I00
sg9
I2
sg10
I8
sg11
I1
sg12
I47
sg13
F0.14000000000000001
sg14
F0.070000000000000007
sg15
g43
sg17
I0
sg18
I30
sg19
g20
sg21
I01
sg22
I37
sa(dp794
g24
I25
sg25
g26
sg35
I200
sg36
I00
sg37
I00
sg38
I01
sg39
I00
sg40
I01
sg33
I01
sasI252
(lp795
I00
a(dp796
g4
I30
sg5
I48
sg6
I00
sg7
I00
sg8
I00
sg9
I2
sg10
I8
sg11
I1
sg12
I54
sg13
F0.17000000000000001
sg14
F0.070000000000000007
sg15
g43
sg17
I0
sg18
I38
sg19
g20
sg21
I01
sg22
I24
sa(dp797
g24
I25
sg25
g26
sg35
I200
sg36
I00
sg37
I00
sg38
I01
sg39
I01
sg40
I01
sg33
I01
sasI253
(lp798
I00
a(dp799
g4
I30
sg5
I30
sg6
I00
sg7
I00
sg8
I00
sg9
I1
sg10
I8
sg11
I1
sg12
I38
sg13
F0.12
sg14
F0.070000000000000007
sg15
g43
sg17
I0
sg18
I53
sg19
g20
sg21
I01
sg22
I20
sa(dp800
g24
I25
sg25
g26
sg35
I200
sg36
I00
sg37
I00
sg38
I01
sg39
I01
sg40
I01
sg33
I01
sasI254
(lp801
I00
a(dp802
g4
I30
sg5
I41
sg6
I00
sg7
I00
sg8
I00
sg9
I2
sg10
I8
sg11
I1
sg12
I19
sg13
F0.14000000000000001
sg14
F0.070000000000000007
sg15
g43
sg17
I0
sg18
I73
sg19
g20
sg21
I01
sg22
I133
sa(dp803
g24
I25
sg25
g26
sg35
I200
sg36
I00
sg37
I01
sg38
I01
sg39
I00
sg40
I01
sg33
I01
sasI255
(lp804
I01
a(dp805
g4
I30
sg5
I8
sg6
I00
sg7
I00
sg8
I00
sg9
I1
sg10
I8
sg11
I1
sg12
I18
sg13
F0.33000000000000002
sg14
F0.070000000000000007
sg15
g16
sg17
I0
sg18
I20
sg19
g20
sg21
I01
sg22
I25
sa(dp806
g24
I25
sg25
g26
sg35
I200
sg36
I00
sg37
I00
sg38
I01
sg39
I00
sg40
I01
sg33
I01
sasI256
(lp807
I00
a(dp808
g4
I30
sg5
I7
sg6
I00
sg7
I00
sg8
I00
sg9
I1
sg10
I8
sg11
I1
sg12
I30
sg13
F0.23999999999999999
sg14
F0.070000000000000007
sg15
g43
sg17
I0
sg18
I10
sg19
g20
sg21
I01
sg22
I142
sa(dp809
g24
I25
sg25
g26
sg35
I200
sg36
I00
sg37
I01
sg38
I01
sg39
I00
sg40
I01
sg33
I01
sasI257
(lp810
I00
a(dp811
g4
I30
sg5
I25
sg6
I00
sg7
I00
sg8
I00
sg9
I1
sg10
I8
sg11
I1
sg12
I54
sg13
F0.35999999999999999
sg14
F0.070000000000000007
sg15
g43
sg17
I0
sg18
I73
sg19
g20
sg21
I01
sg22
I122
sa(dp812
g24
I25
sg25
g26
sg35
I200
sg36
I00
sg37
I01
sg38
I01
sg39
I01
sg40
I01
sg33
I01
sasI258
(lp813
I00
a(dp814
g4
I30
sg5
I5
sg6
I00
sg7
I00
sg8
I00
sg9
I1
sg10
I8
sg11
I1
sg12
I20
sg13
F0.11
sg14
F0.070000000000000007
sg15
g16
sg17
I0
sg18
I30
sg19
g20
sg21
I01
sg22
I64
sa(dp815
g24
I25
sg25
g26
sg35
I200
sg36
I00
sg37
I01
sg38
I01
sg39
I01
sg40
I01
sg33
I01
sasI259
(lp816
I00
a(dp817
g4
I30
sg5
I8
sg6
I00
sg7
I00
sg8
I00
sg9
I1
sg10
I8
sg11
I1
sg12
I15
sg13
F0.29999999999999999
sg14
F0.070000000000000007
sg15
g43
sg17
I0
sg18
I54
sg19
g20
sg21
I01
sg22
I118
sa(dp818
g24
I25
sg25
g26
sg35
I200
sg36
I00
sg37
I00
sg38
I01
sg39
I01
sg40
I01
sg33
I01
sasI260
(lp819
I00
a(dp820
g4
I30
sg5
I8
sg6
I00
sg7
I00
sg8
I00
sg9
I2
sg10
I8
sg11
I1
sg12
I89
sg13
F0.17999999999999999
sg14
F0.070000000000000007
sg15
g43
sg17
I0
sg18
I11
sg19
g20
sg21
I01
sg22
I140
sa(dp821
g24
I25
sg25
g26
sg35
I200
sg36
I00
sg37
I00
sg38
I01
sg39
I01
sg40
I01
sg33
I01
sasI261
(lp822
I00
a(dp823
g4
I30
sg5
I41
sg6
I00
sg7
I00
sg8
I00
sg9
I2
sg10
I8
sg11
I1
sg12
I34
sg13
F0.41999999999999998
sg14
F0.070000000000000007
sg15
g16
sg17
I0
sg18
I26
sg19
g20
sg21
I01
sg22
I84
sa(dp824
g24
I25
sg25
g26
sg35
I200
sg36
I00
sg37
I01
sg38
I01
sg39
I01
sg40
I01
sg33
I01
sasI262
(lp825
I00
a(dp826
g4
I30
sg5
I10
sg6
I00
sg7
I00
sg8
I00
sg9
I1
sg10
I8
sg11
I1
sg12
I54
sg13
F0.40000000000000002
sg14
F0.070000000000000007
sg15
g43
sg17
I0
sg18
I22
sg19
g20
sg21
I01
sg22
I48
sa(dp827
g24
I25
sg25
g26
sg35
I200
sg36
I00
sg37
I00
sg38
I01
sg39
I01
sg40
I01
sg33
I01
sasI263
(lp828
I00
a(dp829
g4
I30
sg5
I7
sg6
I00
sg7
I00
sg8
I00
sg9
I1
sg10
I8
sg11
I1
sg12
I37
sg13
F0.23000000000000001
sg14
F0.070000000000000007
sg15
g16
sg17
I0
sg18
I41
sg19
g20
sg21
I01
sg22
I59
sa(dp830
g24
I25
sg25
g26
sg35
I200
sg36
I00
sg37
I01
sg38
I01
sg39
I01
sg40
I01
sg33
I01
sasI264
(lp831
I00
a(dp832
g4
I30
sg5
I17
sg6
I00
sg7
I00
sg8
I00
sg9
I1
sg10
I8
sg11
I1
sg12
I14
sg13
F0.33000000000000002
sg14
F0.070000000000000007
sg15
g16
sg17
I0
sg18
I47
sg19
g20
sg21
I01
sg22
I23
sa(dp833
g24
I25
sg25
g26
sg35
I200
sg36
I00
sg37
I00
sg38
I01
sg39
I01
sg40
I01
sg33
I01
sasI265
(lp834
I00
a(dp835
g4
I30
sg5
I38
sg6
I00
sg7
I00
sg8
I00
sg9
I2
sg10
I8
sg11
I1
sg12
I12
sg13
F0.14000000000000001
sg14
F0.070000000000000007
sg15
g43
sg17
I0
sg18
I33
sg19
g20
sg21
I01
sg22
I45
sa(dp836
g24
I25
sg25
g26
sg35
I200
sg36
I00
sg37
I01
sg38
I01
sg39
I01
sg40
I01
sg33
I01
sasI266
(lp837
I00
a(dp838
g4
I30
sg5
I18
sg6
I00
sg7
I00
sg8
I00
sg9
I1
sg10
I8
sg11
I1
sg12
I43
sg13
F0.19
sg14
F0.070000000000000007
sg15
g43
sg17
I0
sg18
I27
sg19
g20
sg21
I01
sg22
I29
sa(dp839
g24
I25
sg25
g26
sg35
I200
sg36
I00
sg37
I00
sg38
I01
sg39
I00
sg40
I01
sg33
I01
sasI267
(lp840
I00
a(dp841
g4
I30
sg5
I5
sg6
I00
sg7
I00
sg8
I00
sg9
I2
sg10
I8
sg11
I1
sg12
I44
sg13
F0.14000000000000001
sg14
F0.070000000000000007
sg15
g16
sg17
I0
sg18
I58
sg19
g20
sg21
I01
sg22
I67
sa(dp842
g24
I25
sg25
g26
sg35
I200
sg36
I00
sg37
I00
sg38
I01
sg39
I01
sg40
I01
sg33
I01
sasI268
(lp843
I00
a(dp844
g4
I30
sg5
I5
sg6
I00
sg7
I00
sg8
I00
sg9
I1
sg10
I8
sg11
I1
sg12
I68
sg13
F0.26000000000000001
sg14
F0.070000000000000007
sg15
g16
sg17
I0
sg18
I29
sg19
g20
sg21
I01
sg22
I30
sa(dp845
g24
I25
sg25
g26
sg35
I200
sg36
I00
sg37
I00
sg38
I01
sg39
I01
sg40
I01
sg33
I01
sasI269
(lp846
I00
a(dp847
g4
I30
sg5
I25
sg6
I00
sg7
I00
sg8
I00
sg9
I2
sg10
I8
sg11
I1
sg12
I31
sg13
F0.12
sg14
F0.070000000000000007
sg15
g43
sg17
I0
sg18
I12
sg19
g20
sg21
I01
sg22
I76
sa(dp848
g24
I25
sg25
g26
sg35
I200
sg36
I00
sg37
I01
sg38
I01
sg39
I00
sg40
I01
sg33
I01
sasI270
(lp849
I00
a(dp850
g4
I30
sg5
I41
sg6
I00
sg7
I00
sg8
I00
sg9
I2
sg10
I8
sg11
I1
sg12
I32
sg13
F0.16
sg14
F0.070000000000000007
sg15
g16
sg17
I0
sg18
I10
sg19
g20
sg21
I01
sg22
I26
sa(dp851
g24
I25
sg25
g26
sg35
I200
sg36
I00
sg37
I01
sg38
I01
sg39
I00
sg40
I01
sg33
I01
sasI271
(lp852
I00
a(dp853
g4
I30
sg5
I10
sg6
I00
sg7
I00
sg8
I00
sg9
I2
sg10
I8
sg11
I1
sg12
I15
sg13
F0.37
sg14
F0.070000000000000007
sg15
g43
sg17
I0
sg18
I22
sg19
g20
sg21
I01
sg22
I55
sa(dp854
g24
I25
sg25
g26
sg35
I200
sg36
I00
sg37
I01
sg38
I01
sg39
I00
sg40
I01
sg33
I01
sasI272
(lp855
I00
a(dp856
g4
I30
sg5
I11
sg6
I00
sg7
I00
sg8
I00
sg9
I2
sg10
I8
sg11
I1
sg12
I45
sg13
F0.16
sg14
F0.070000000000000007
sg15
g16
sg17
I0
sg18
I27
sg19
g20
sg21
I01
sg22
I86
sa(dp857
g24
I25
sg25
g26
sg35
I200
sg36
I00
sg37
I01
sg38
I01
sg39
I00
sg40
I01
sg33
I01
sasI273
(lp858
I00
a(dp859
g4
I30
sg5
I7
sg6
I00
sg7
I00
sg8
I00
sg9
I1
sg10
I8
sg11
I1
sg12
I87
sg13
F0.14000000000000001
sg14
F0.070000000000000007
sg15
g43
sg17
I0
sg18
I18
sg19
g20
sg21
I01
sg22
I27
sa(dp860
g24
I25
sg25
g26
sg35
I200
sg36
I00
sg37
I00
sg38
I01
sg39
I00
sg40
I01
sg33
I01
sasI274
(lp861
I00
a(dp862
g4
I30
sg5
I34
sg6
I00
sg7
I00
sg8
I00
sg9
I2
sg10
I8
sg11
I1
sg12
I23
sg13
F0.11
sg14
F0.070000000000000007
sg15
g16
sg17
I0
sg18
I29
sg19
g20
sg21
I01
sg22
I132
sa(dp863
g24
I25
sg25
g26
sg35
I200
sg36
I00
sg37
I01
sg38
I01
sg39
I01
sg40
I01
sg33
I01
sasI275
(lp864
I00
a(dp865
g4
I30
sg5
I36
sg6
I00
sg7
I00
sg8
I00
sg9
I2
sg10
I8
sg11
I1
sg12
I18
sg13
F0.20999999999999999
sg14
F0.070000000000000007
sg15
g43
sg17
I0
sg18
I38
sg19
g20
sg21
I01
sg22
I21
sa(dp866
g24
I25
sg25
g26
sg35
I200
sg36
I00
sg37
I00
sg38
I01
sg39
I00
sg40
I01
sg33
I01
sasI276
(lp867
I00
a(dp868
g4
I30
sg5
I21
sg6
I00
sg7
I00
sg8
I00
sg9
I2
sg10
I8
sg11
I1
sg12
I32
sg13
F0.32000000000000001
sg14
F0.070000000000000007
sg15
g43
sg17
I0
sg18
I38
sg19
g20
sg21
I01
sg22
I27
sa(dp869
g24
I25
sg25
g26
sg35
I200
sg36
I00
sg37
I00
sg38
I01
sg39
I00
sg40
I01
sg33
I01
sasI277
(lp870
I00
a(dp871
g4
I30
sg5
I6
sg6
I00
sg7
I00
sg8
I00
sg9
I1
sg10
I8
sg11
I1
sg12
I43
sg13
F0.13
sg14
F0.070000000000000007
sg15
g43
sg17
I0
sg18
I58
sg19
g20
sg21
I01
sg22
I20
sa(dp872
g24
I25
sg25
g26
sg35
I200
sg36
I00
sg37
I00
sg38
I01
sg39
I00
sg40
I01
sg33
I01
sasI278
(lp873
I00
a(dp874
g4
I30
sg5
I5
sg6
I00
sg7
I00
sg8
I00
sg9
I2
sg10
I8
sg11
I1
sg12
I60
sg13
F0.20999999999999999
sg14
F0.070000000000000007
sg15
g16
sg17
I0
sg18
I18
sg19
g20
sg21
I01
sg22
I69
sa(dp875
g24
I25
sg25
g26
sg35
I200
sg36
I00
sg37
I00
sg38
I01
sg39
I00
sg40
I01
sg33
I01
sasI279
(lp876
I00
a(dp877
g4
I30
sg5
I47
sg6
I00
sg7
I00
sg8
I00
sg9
I1
sg10
I8
sg11
I1
sg12
I24
sg13
F0.28000000000000003
sg14
F0.070000000000000007
sg15
g16
sg17
I0
sg18
I21
sg19
g20
sg21
I01
sg22
I26
sa(dp878
g24
I25
sg25
g26
sg35
I200
sg36
I00
sg37
I01
sg38
I01
sg39
I01
sg40
I01
sg33
I01
sasI280
(lp879
I00
a(dp880
g4
I30
sg5
I19
sg6
I00
sg7
I00
sg8
I00
sg9
I2
sg10
I8
sg11
I1
sg12
I20
sg13
F0.14000000000000001
sg14
F0.070000000000000007
sg15
g16
sg17
I0
sg18
I74
sg19
g20
sg21
I01
sg22
I95
sa(dp881
g24
I25
sg25
g26
sg35
I200
sg36
I00
sg37
I01
sg38
I01
sg39
I00
sg40
I01
sg33
I01
sasI281
(lp882
I00
a(dp883
g4
I30
sg5
I47
sg6
I00
sg7
I00
sg8
I00
sg9
I2
sg10
I8
sg11
I1
sg12
I97
sg13
F0.28999999999999998
sg14
F0.070000000000000007
sg15
g43
sg17
I0
sg18
I51
sg19
g20
sg21
I01
sg22
I56
sa(dp884
g24
I25
sg25
g26
sg35
I200
sg36
I00
sg37
I01
sg38
I01
sg39
I01
sg40
I01
sg33
I01
sasI282
(lp885
I00
a(dp886
g4
I30
sg5
I8
sg6
I00
sg7
I00
sg8
I00
sg9
I1
sg10
I8
sg11
I1
sg12
I23
sg13
F0.16
sg14
F0.070000000000000007
sg15
g43
sg17
I0
sg18
I80
sg19
g20
sg21
I01
sg22
I71
sa(dp887
g24
I25
sg25
g26
sg35
I200
sg36
I00
sg37
I00
sg38
I01
sg39
I01
sg40
I01
sg33
I01
sasI283
(lp888
I00
a(dp889
g4
I30
sg5
I29
sg6
I00
sg7
I00
sg8
I00
sg9
I2
sg10
I8
sg11
I1
sg12
I40
sg13
F0.20000000000000001
sg14
F0.070000000000000007
sg15
g16
sg17
I0
sg18
I41
sg19
g20
sg21
I01
sg22
I22
sa(dp890
g24
I25
sg25
g26
sg35
I200
sg36
I00
sg37
I01
sg38
I01
sg39
I00
sg40
I01
sg33
I01
sasI284
(lp891
I00
a(dp892
g4
I30
sg5
I6
sg6
I00
sg7
I00
sg8
I00
sg9
I2
sg10
I8
sg11
I1
sg12
I29
sg13
F0.22
sg14
F0.070000000000000007
sg15
g16
sg17
I0
sg18
I18
sg19
g20
sg21
I01
sg22
I20
sa(dp893
g24
I25
sg25
g26
sg35
I200
sg36
I00
sg37
I01
sg38
I01
sg39
I01
sg40
I01
sg33
I01
sasI285
(lp894
I00
a(dp895
g4
I30
sg5
I7
sg6
I00
sg7
I00
sg8
I00
sg9
I1
sg10
I8
sg11
I1
sg12
I72
sg13
F0.31
sg14
F0.070000000000000007
sg15
g16
sg17
I0
sg18
I21
sg19
g20
sg21
I01
sg22
I135
sa(dp896
g24
I25
sg25
g26
sg35
I200
sg36
I00
sg37
I01
sg38
I01
sg39
I01
sg40
I01
sg33
I01
sasI286
(lp897
I00
a(dp898
g4
I30
sg5
I41
sg6
I00
sg7
I00
sg8
I00
sg9
I1
sg10
I8
sg11
I1
sg12
I43
sg13
F0.12
sg14
F0.070000000000000007
sg15
g16
sg17
I0
sg18
I60
sg19
g20
sg21
I01
sg22
I70
sa(dp899
g24
I25
sg25
g26
sg35
I200
sg36
I00
sg37
I00
sg38
I01
sg39
I00
sg40
I01
sg33
I01
sasI287
(lp900
I00
a(dp901
g4
I30
sg5
I24
sg6
I00
sg7
I00
sg8
I00
sg9
I2
sg10
I8
sg11
I1
sg12
I38
sg13
F0.19
sg14
F0.070000000000000007
sg15
g16
sg17
I0
sg18
I70
sg19
g20
sg21
I01
sg22
I48
sa(dp902
g24
I25
sg25
g26
sg35
I200
sg36
I00
sg37
I01
sg38
I01
sg39
I00
sg40
I01
sg33
I01
sasI288
(lp903
I00
a(dp904
g4
I30
sg5
I44
sg6
I00
sg7
I00
sg8
I00
sg9
I2
sg10
I8
sg11
I1
sg12
I17
sg13
F0.28999999999999998
sg14
F0.070000000000000007
sg15
g43
sg17
I0
sg18
I50
sg19
g20
sg21
I01
sg22
I24
sa(dp905
g24
I25
sg25
g26
sg35
I200
sg36
I00
sg37
I01
sg38
I01
sg39
I01
sg40
I01
sg33
I01
sasI289
(lp906
I00
a(dp907
g4
I30
sg5
I19
sg6
I00
sg7
I00
sg8
I00
sg9
I1
sg10
I8
sg11
I1
sg12
I47
sg13
F0.25
sg14
F0.070000000000000007
sg15
g16
sg17
I0
sg18
I33
sg19
g20
sg21
I01
sg22
I108
sa(dp908
g24
I25
sg25
g26
sg35
I200
sg36
I00
sg37
I01
sg38
I01
sg39
I01
sg40
I01
sg33
I01
sasI290
(lp909
I00
a(dp910
g4
I30
sg5
I14
sg6
I00
sg7
I00
sg8
I00
sg9
I2
sg10
I8
sg11
I1
sg12
I28
sg13
F0.28999999999999998
sg14
F0.070000000000000007
sg15
g16
sg17
I0
sg18
I23
sg19
g20
sg21
I01
sg22
I91
sa(dp911
g24
I25
sg25
g26
sg35
I200
sg36
I00
sg37
I01
sg38
I01
sg39
I00
sg40
I01
sg33
I01
sasI291
(lp912
I00
a(dp913
g4
I30
sg5
I6
sg6
I00
sg7
I00
sg8
I00
sg9
I2
sg10
I8
sg11
I1
sg12
I60
sg13
F0.12
sg14
F0.070000000000000007
sg15
g43
sg17
I0
sg18
I20
sg19
g20
sg21
I01
sg22
I24
sa(dp914
g24
I25
sg25
g26
sg35
I200
sg36
I00
sg37
I00
sg38
I01
sg39
I01
sg40
I01
sg33
I01
sasI292
(lp915
I00
a(dp916
g4
I30
sg5
I8
sg6
I00
sg7
I00
sg8
I00
sg9
I1
sg10
I8
sg11
I1
sg12
I14
sg13
F0.20000000000000001
sg14
F0.070000000000000007
sg15
g43
sg17
I0
sg18
I48
sg19
g20
sg21
I01
sg22
I88
sa(dp917
g24
I25
sg25
g26
sg35
I200
sg36
I00
sg37
I01
sg38
I01
sg39
I00
sg40
I01
sg33
I01
sasI293
(lp918
I00
a(dp919
g4
I30
sg5
I18
sg6
I00
sg7
I00
sg8
I00
sg9
I2
sg10
I8
sg11
I1
sg12
I20
sg13
F0.12
sg14
F0.070000000000000007
sg15
g43
sg17
I0
sg18
I10
sg19
g20
sg21
I01
sg22
I82
sa(dp920
g24
I25
sg25
g26
sg35
I200
sg36
I00
sg37
I01
sg38
I01
sg39
I01
sg40
I01
sg33
I01
sasI294
(lp921
I00
a(dp922
g4
I30
sg5
I14
sg6
I00
sg7
I00
sg8
I00
sg9
I2
sg10
I8
sg11
I1
sg12
I26
sg13
F0.17999999999999999
sg14
F0.070000000000000007
sg15
g43
sg17
I0
sg18
I36
sg19
g20
sg21
I01
sg22
I43
sa(dp923
g24
I25
sg25
g26
sg35
I200
sg36
I00
sg37
I00
sg38
I01
sg39
I00
sg40
I01
sg33
I01
sasI295
(lp924
I00
a(dp925
g4
I30
sg5
I9
sg6
I00
sg7
I00
sg8
I00
sg9
I2
sg10
I8
sg11
I1
sg12
I54
sg13
F0.39000000000000001
sg14
F0.070000000000000007
sg15
g43
sg17
I0
sg18
I29
sg19
g20
sg21
I01
sg22
I67
sa(dp926
g24
I25
sg25
g26
sg35
I200
sg36
I00
sg37
I01
sg38
I01
sg39
I00
sg40
I01
sg33
I01
sasI296
(lp927
I00
a(dp928
g4
I30
sg5
I7
sg6
I00
sg7
I00
sg8
I00
sg9
I1
sg10
I8
sg11
I1
sg12
I10
sg13
F0.17000000000000001
sg14
F0.070000000000000007
sg15
g43
sg17
I0
sg18
I79
sg19
g20
sg21
I01
sg22
I34
sa(dp929
g24
I25
sg25
g26
sg35
I200
sg36
I00
sg37
I00
sg38
I01
sg39
I00
sg40
I01
sg33
I01
sasI297
(lp930
I00
a(dp931
g4
I30
sg5
I5
sg6
I00
sg7
I00
sg8
I00
sg9
I2
sg10
I8
sg11
I1
sg12
I15
sg13
F0.37
sg14
F0.070000000000000007
sg15
g16
sg17
I0
sg18
I53
sg19
g20
sg21
I01
sg22
I78
sa(dp932
g24
I25
sg25
g26
sg35
I200
sg36
I00
sg37
I00
sg38
I01
sg39
I00
sg40
I01
sg33
I01
sasI298
(lp933
I00
a(dp934
g4
I30
sg5
I5
sg6
I00
sg7
I00
sg8
I00
sg9
I1
sg10
I8
sg11
I1
sg12
I27
sg13
F0.46000000000000002
sg14
F0.070000000000000007
sg15
g16
sg17
I0
sg18
I29
sg19
g20
sg21
I01
sg22
I60
sa(dp935
g24
I25
sg25
g26
sg35
I200
sg36
I00
sg37
I01
sg38
I01
sg39
I00
sg40
I01
sg33
I01
sasI299
(lp936
I00
a(dp937
g4
I30
sg5
I22
sg6
I00
sg7
I00
sg8
I00
sg9
I1
sg10
I8
sg11
I1
sg12
I25
sg13
F0.45000000000000001
sg14
F0.070000000000000007
sg15
g43
sg17
I0
sg18
I49
sg19
g20
sg21
I01
sg22
I147
sa(dp938
g24
I25
sg25
g26
sg35
I200
sg36
I00
sg37
I01
sg38
I01
sg39
I01
sg40
I01
sg33
I01
sasI300
(lp939
I00
a(dp940
g4
I30
sg5
I27
sg6
I00
sg7
I00
sg8
I00
sg9
I2
sg10
I8
sg11
I1
sg12
I67
sg13
F0.27000000000000002
sg14
F0.070000000000000007
sg15
g43
sg17
I0
sg18
I10
sg19
g20
sg21
I01
sg22
I52
sa(dp941
g24
I25
sg25
g26
sg35
I200
sg36
I00
sg37
I01
sg38
I01
sg39
I00
sg40
I01
sg33
I01
sasI301
(lp942
I00
a(dp943
g4
I30
sg5
I25
sg6
I00
sg7
I00
sg8
I00
sg9
I1
sg10
I8
sg11
I1
sg12
I43
sg13
F0.17000000000000001
sg14
F0.070000000000000007
sg15
g16
sg17
I0
sg18
I10
sg19
g20
sg21
I01
sg22
I82
sa(dp944
g24
I25
sg25
g26
sg35
I200
sg36
I00
sg37
I00
sg38
I01
sg39
I00
sg40
I01
sg33
I01
sasI302
(lp945
I00
a(dp946
g4
I30
sg5
I9
sg6
I00
sg7
I00
sg8
I00
sg9
I2
sg10
I8
sg11
I1
sg12
I43
sg13
F0.27000000000000002
sg14
F0.070000000000000007
sg15
g43
sg17
I0
sg18
I35
sg19
g20
sg21
I01
sg22
I94
sa(dp947
g24
I25
sg25
g26
sg35
I200
sg36
I00
sg37
I00
sg38
I01
sg39
I01
sg40
I01
sg33
I01
sasI303
(lp948
I00
a(dp949
g4
I30
sg5
I46
sg6
I00
sg7
I00
sg8
I00
sg9
I2
sg10
I8
sg11
I1
sg12
I68
sg13
F0.48999999999999999
sg14
F0.070000000000000007
sg15
g43
sg17
I0
sg18
I94
sg19
g20
sg21
I01
sg22
I47
sa(dp950
g24
I25
sg25
g26
sg35
I200
sg36
I00
sg37
I01
sg38
I01
sg39
I00
sg40
I01
sg33
I01
sasI304
(lp951
I00
a(dp952
g4
I30
sg5
I13
sg6
I00
sg7
I00
sg8
I00
sg9
I1
sg10
I8
sg11
I1
sg12
I10
sg13
F0.13
sg14
F0.070000000000000007
sg15
g43
sg17
I0
sg18
I44
sg19
g20
sg21
I01
sg22
I42
sa(dp953
g24
I25
sg25
g26
sg35
I200
sg36
I00
sg37
I01
sg38
I01
sg39
I01
sg40
I01
sg33
I01
sasI305
(lp954
I00
a(dp955
g4
I30
sg5
I10
sg6
I00
sg7
I00
sg8
I00
sg9
I1
sg10
I8
sg11
I1
sg12
I66
sg13
F0.13
sg14
F0.070000000000000007
sg15
g16
sg17
I0
sg18
I42
sg19
g20
sg21
I01
sg22
I31
sa(dp956
g24
I25
sg25
g26
sg35
I200
sg36
I00
sg37
I01
sg38
I01
sg39
I01
sg40
I01
sg33
I01
sasI306
(lp957
I00
a(dp958
g4
I30
sg5
I5
sg6
I00
sg7
I00
sg8
I00
sg9
I2
sg10
I8
sg11
I1
sg12
I97
sg13
F0.28999999999999998
sg14
F0.070000000000000007
sg15
g43
sg17
I0
sg18
I15
sg19
g20
sg21
I01
sg22
I133
sa(dp959
g24
I25
sg25
g26
sg35
I200
sg36
I00
sg37
I01
sg38
I01
sg39
I01
sg40
I01
sg33
I01
sasI307
(lp960
I00
a(dp961
g4
I30
sg5
I13
sg6
I00
sg7
I00
sg8
I00
sg9
I1
sg10
I8
sg11
I1
sg12
I78
sg13
F0.22
sg14
F0.070000000000000007
sg15
g43
sg17
I0
sg18
I10
sg19
g20
sg21
I01
sg22
I35
sa(dp962
g24
I25
sg25
g26
sg35
I200
sg36
I00
sg37
I00
sg38
I01
sg39
I01
sg40
I01
sg33
I01
sasI308
(lp963
I00
a(dp964
g4
I30
sg5
I31
sg6
I00
sg7
I00
sg8
I00
sg9
I1
sg10
I8
sg11
I1
sg12
I21
sg13
F0.37
sg14
F0.070000000000000007
sg15
g16
sg17
I0
sg18
I10
sg19
g20
sg21
I01
sg22
I35
sa(dp965
g24
I25
sg25
g26
sg35
I200
sg36
I00
sg37
I00
sg38
I01
sg39
I01
sg40
I01
sg33
I01
sasI309
(lp966
I00
a(dp967
g4
I30
sg5
I8
sg6
I00
sg7
I00
sg8
I00
sg9
I2
sg10
I8
sg11
I1
sg12
I16
sg13
F0.23999999999999999
sg14
F0.070000000000000007
sg15
g43
sg17
I0
sg18
I43
sg19
g20
sg21
I01
sg22
I106
sa(dp968
g24
I25
sg25
g26
sg35
I200
sg36
I00
sg37
I01
sg38
I01
sg39
I01
sg40
I01
sg33
I01
sasI310
(lp969
I00
a(dp970
g4
I30
sg5
I11
sg6
I00
sg7
I00
sg8
I00
sg9
I2
sg10
I8
sg11
I1
sg12
I11
sg13
F0.11
sg14
F0.070000000000000007
sg15
g16
sg17
I0
sg18
I11
sg19
g20
sg21
I01
sg22
I129
sa(dp971
g24
I25
sg25
g26
sg35
I200
sg36
I00
sg37
I01
sg38
I01
sg39
I00
sg40
I01
sg33
I01
sasI311
(lp972
I00
a(dp973
g4
I30
sg5
I6
sg6
I00
sg7
I00
sg8
I00
sg9
I1
sg10
I8
sg11
I1
sg12
I11
sg13
F0.35999999999999999
sg14
F0.070000000000000007
sg15
g43
sg17
I0
sg18
I36
sg19
g20
sg21
I01
sg22
I23
sa(dp974
g24
I25
sg25
g26
sg35
I200
sg36
I00
sg37
I01
sg38
I01
sg39
I00
sg40
I01
sg33
I01
sasI312
(lp975
I00
a(dp976
g4
I30
sg5
I42
sg6
I00
sg7
I00
sg8
I00
sg9
I2
sg10
I8
sg11
I1
sg12
I27
sg13
F0.32000000000000001
sg14
F0.070000000000000007
sg15
g16
sg17
I0
sg18
I13
sg19
g20
sg21
I01
sg22
I104
sa(dp977
g24
I25
sg25
g26
sg35
I200
sg36
I00
sg37
I00
sg38
I01
sg39
I00
sg40
I01
sg33
I01
sasI313
(lp978
I00
a(dp979
g4
I30
sg5
I11
sg6
I00
sg7
I00
sg8
I00
sg9
I1
sg10
I8
sg11
I1
sg12
I32
sg13
F0.11
sg14
F0.070000000000000007
sg15
g43
sg17
I0
sg18
I32
sg19
g20
sg21
I01
sg22
I26
sa(dp980
g24
I25
sg25
g26
sg35
I200
sg36
I00
sg37
I01
sg38
I01
sg39
I00
sg40
I01
sg33
I01
sasI314
(lp981
I00
a(dp982
g4
I30
sg5
I49
sg6
I00
sg7
I00
sg8
I00
sg9
I2
sg10
I8
sg11
I1
sg12
I49
sg13
F0.17000000000000001
sg14
F0.070000000000000007
sg15
g43
sg17
I0
sg18
I33
sg19
g20
sg21
I01
sg22
I86
sa(dp983
g24
I25
sg25
g26
sg35
I200
sg36
I00
sg37
I01
sg38
I01
sg39
I00
sg40
I01
sg33
I01
sasI315
(lp984
I00
a(dp985
g4
I30
sg5
I7
sg6
I00
sg7
I00
sg8
I00
sg9
I1
sg10
I8
sg11
I1
sg12
I19
sg13
F0.17999999999999999
sg14
F0.070000000000000007
sg15
g16
sg17
I0
sg18
I59
sg19
g20
sg21
I01
sg22
I80
sa(dp986
g24
I25
sg25
g26
sg35
I200
sg36
I00
sg37
I01
sg38
I01
sg39
I01
sg40
I01
sg33
I01
sasI316
(lp987
I00
a(dp988
g4
I30
sg5
I27
sg6
I00
sg7
I00
sg8
I00
sg9
I1
sg10
I8
sg11
I1
sg12
I13
sg13
F0.12
sg14
F0.070000000000000007
sg15
g43
sg17
I0
sg18
I44
sg19
g20
sg21
I01
sg22
I26
sa(dp989
g24
I25
sg25
g26
sg35
I200
sg36
I00
sg37
I01
sg38
I01
sg39
I01
sg40
I01
sg33
I01
sasI317
(lp990
I00
a(dp991
g4
I30
sg5
I32
sg6
I00
sg7
I00
sg8
I00
sg9
I1
sg10
I8
sg11
I1
sg12
I65
sg13
F0.28999999999999998
sg14
F0.070000000000000007
sg15
g43
sg17
I0
sg18
I14
sg19
g20
sg21
I01
sg22
I140
sa(dp992
g24
I25
sg25
g26
sg35
I200
sg36
I00
sg37
I01
sg38
I01
sg39
I00
sg40
I01
sg33
I01
sasI318
(lp993
I00
a(dp994
g4
I30
sg5
I6
sg6
I00
sg7
I00
sg8
I00
sg9
I1
sg10
I8
sg11
I1
sg12
I46
sg13
F0.12
sg14
F0.070000000000000007
sg15
g16
sg17
I0
sg18
I15
sg19
g20
sg21
I01
sg22
I98
sa(dp995
g24
I25
sg25
g26
sg35
I200
sg36
I00
sg37
I00
sg38
I01
sg39
I00
sg40
I01
sg33
I01
sasI319
(lp996
I00
a(dp997
g4
I30
sg5
I29
sg6
I00
sg7
I00
sg8
I00
sg9
I1
sg10
I8
sg11
I1
sg12
I21
sg13
F0.11
sg14
F0.070000000000000007
sg15
g43
sg17
I0
sg18
I36
sg19
g20
sg21
I01
sg22
I137
sa(dp998
g24
I25
sg25
g26
sg35
I200
sg36
I00
sg37
I01
sg38
I01
sg39
I00
sg40
I01
sg33
I01
sasI320
(lp999
I00
a(dp1000
g4
I30
sg5
I31
sg6
I00
sg7
I00
sg8
I00
sg9
I2
sg10
I8
sg11
I1
sg12
I52
sg13
F0.47999999999999998
sg14
F0.070000000000000007
sg15
g43
sg17
I0
sg18
I11
sg19
g20
sg21
I01
sg22
I34
sa(dp1001
g24
I25
sg25
g26
sg35
I200
sg36
I00
sg37
I01
sg38
I01
sg39
I00
sg40
I01
sg33
I01
sasI321
(lp1002
I00
a(dp1003
g4
I30
sg5
I8
sg6
I00
sg7
I00
sg8
I00
sg9
I1
sg10
I8
sg11
I1
sg12
I51
sg13
F0.40000000000000002
sg14
F0.070000000000000007
sg15
g43
sg17
I0
sg18
I85
sg19
g20
sg21
I01
sg22
I78
sa(dp1004
g24
I25
sg25
g26
sg35
I200
sg36
I00
sg37
I00
sg38
I01
sg39
I00
sg40
I01
sg33
I01
sasI322
(lp1005
I00
a(dp1006
g4
I30
sg5
I7
sg6
I00
sg7
I00
sg8
I00
sg9
I2
sg10
I8
sg11
I1
sg12
I25
sg13
F0.26000000000000001
sg14
F0.070000000000000007
sg15
g16
sg17
I0
sg18
I36
sg19
g20
sg21
I01
sg22
I71
sa(dp1007
g24
I25
sg25
g26
sg35
I200
sg36
I00
sg37
I01
sg38
I01
sg39
I00
sg40
I01
sg33
I01
sasI323
(lp1008
I00
a(dp1009
g4
I30
sg5
I20
sg6
I00
sg7
I00
sg8
I00
sg9
I1
sg10
I8
sg11
I1
sg12
I35
sg13
F0.14999999999999999
sg14
F0.070000000000000007
sg15
g16
sg17
I0
sg18
I77
sg19
g20
sg21
I01
sg22
I21
sa(dp1010
g24
I25
sg25
g26
sg35
I200
sg36
I00
sg37
I00
sg38
I01
sg39
I00
sg40
I01
sg33
I01
sasI324
(lp1011
I00
a(dp1012
g4
I30
sg5
I38
sg6
I00
sg7
I00
sg8
I00
sg9
I1
sg10
I8
sg11
I1
sg12
I41
sg13
F0.20999999999999999
sg14
F0.070000000000000007
sg15
g16
sg17
I0
sg18
I35
sg19
g20
sg21
I01
sg22
I91
sa(dp1013
g24
I25
sg25
g26
sg35
I200
sg36
I00
sg37
I01
sg38
I01
sg39
I00
sg40
I01
sg33
I01
sasI325
(lp1014
I00
a(dp1015
g4
I30
sg5
I5
sg6
I00
sg7
I00
sg8
I00
sg9
I2
sg10
I8
sg11
I1
sg12
I52
sg13
F0.42999999999999999
sg14
F0.070000000000000007
sg15
g16
sg17
I0
sg18
I30
sg19
g20
sg21
I01
sg22
I94
sa(dp1016
g24
I25
sg25
g26
sg35
I200
sg36
I00
sg37
I00
sg38
I01
sg39
I00
sg40
I01
sg33
I01
sasI326
(lp1017
I00
a(dp1018
g4
I30
sg5
I21
sg6
I00
sg7
I00
sg8
I00
sg9
I1
sg10
I8
sg11
I1
sg12
I73
sg13
F0.10000000000000001
sg14
F0.070000000000000007
sg15
g43
sg17
I0
sg18
I58
sg19
g20
sg21
I01
sg22
I86
sa(dp1019
g24
I25
sg25
g26
sg35
I200
sg36
I00
sg37
I01
sg38
I01
sg39
I00
sg40
I01
sg33
I01
sasI327
(lp1020
I00
a(dp1021
g4
I30
sg5
I7
sg6
I00
sg7
I00
sg8
I00
sg9
I2
sg10
I8
sg11
I1
sg12
I54
sg13
F0.38
sg14
F0.070000000000000007
sg15
g16
sg17
I0
sg18
I99
sg19
g20
sg21
I01
sg22
I44
sa(dp1022
g24
I25
sg25
g26
sg35
I200
sg36
I00
sg37
I01
sg38
I01
sg39
I01
sg40
I01
sg33
I01
sasI328
(lp1023
I00
a(dp1024
g4
I30
sg5
I40
sg6
I00
sg7
I00
sg8
I00
sg9
I1
sg10
I8
sg11
I1
sg12
I12
sg13
F0.33000000000000002
sg14
F0.070000000000000007
sg15
g16
sg17
I0
sg18
I81
sg19
g20
sg21
I01
sg22
I130
sa(dp1025
g24
I25
sg25
g26
sg35
I200
sg36
I00
sg37
I01
sg38
I01
sg39
I01
sg40
I01
sg33
I01
sasI329
(lp1026
I00
a(dp1027
g4
I30
sg5
I13
sg6
I00
sg7
I00
sg8
I00
sg9
I1
sg10
I8
sg11
I1
sg12
I17
sg13
F0.20999999999999999
sg14
F0.070000000000000007
sg15
g43
sg17
I0
sg18
I26
sg19
g20
sg21
I01
sg22
I123
sa(dp1028
g24
I25
sg25
g26
sg35
I200
sg36
I00
sg37
I01
sg38
I01
sg39
I01
sg40
I01
sg33
I01
sasI330
(lp1029
I00
a(dp1030
g4
I30
sg5
I5
sg6
I00
sg7
I00
sg8
I00
sg9
I2
sg10
I8
sg11
I1
sg12
I26
sg13
F0.22
sg14
F0.070000000000000007
sg15
g43
sg17
I0
sg18
I32
sg19
g20
sg21
I01
sg22
I68
sa(dp1031
g24
I25
sg25
g26
sg35
I200
sg36
I00
sg37
I00
sg38
I01
sg39
I00
sg40
I01
sg33
I01
sasI331
(lp1032
I00
a(dp1033
g4
I30
sg5
I12
sg6
I00
sg7
I00
sg8
I00
sg9
I1
sg10
I8
sg11
I1
sg12
I10
sg13
F0.31
sg14
F0.070000000000000007
sg15
g16
sg17
I0
sg18
I62
sg19
g20
sg21
I01
sg22
I139
sa(dp1034
g24
I25
sg25
g26
sg35
I200
sg36
I00
sg37
I00
sg38
I01
sg39
I00
sg40
I01
sg33
I01
sasI332
(lp1035
I00
a(dp1036
g4
I30
sg5
I14
sg6
I00
sg7
I00
sg8
I00
sg9
I1
sg10
I8
sg11
I1
sg12
I29
sg13
F0.31
sg14
F0.070000000000000007
sg15
g16
sg17
I0
sg18
I55
sg19
g20
sg21
I01
sg22
I40
sa(dp1037
g24
I25
sg25
g26
sg35
I200
sg36
I00
sg37
I01
sg38
I01
sg39
I00
sg40
I01
sg33
I01
sasI333
(lp1038
I00
a(dp1039
g4
I30
sg5
I10
sg6
I00
sg7
I00
sg8
I00
sg9
I1
sg10
I8
sg11
I1
sg12
I28
sg13
F0.35999999999999999
sg14
F0.070000000000000007
sg15
g16
sg17
I0
sg18
I12
sg19
g20
sg21
I01
sg22
I40
sa(dp1040
g24
I25
sg25
g26
sg35
I200
sg36
I00
sg37
I01
sg38
I01
sg39
I00
sg40
I01
sg33
I01
sasI334
(lp1041
I00
a(dp1042
g4
I30
sg5
I24
sg6
I00
sg7
I00
sg8
I00
sg9
I2
sg10
I8
sg11
I1
sg12
I30
sg13
F0.39000000000000001
sg14
F0.070000000000000007
sg15
g16
sg17
I0
sg18
I60
sg19
g20
sg21
I01
sg22
I48
sa(dp1043
g24
I25
sg25
g26
sg35
I200
sg36
I00
sg37
I00
sg38
I01
sg39
I00
sg40
I01
sg33
I01
sasI335
(lp1044
I00
a(dp1045
g4
I30
sg5
I11
sg6
I00
sg7
I00
sg8
I00
sg9
I1
sg10
I8
sg11
I1
sg12
I78
sg13
F0.23999999999999999
sg14
F0.070000000000000007
sg15
g43
sg17
I0
sg18
I24
sg19
g20
sg21
I01
sg22
I95
sa(dp1046
g24
I25
sg25
g26
sg35
I200
sg36
I00
sg37
I00
sg38
I01
sg39
I00
sg40
I01
sg33
I01
sasI336
(lp1047
I00
a(dp1048
g4
I30
sg5
I42
sg6
I00
sg7
I00
sg8
I00
sg9
I1
sg10
I8
sg11
I1
sg12
I37
sg13
F0.20999999999999999
sg14
F0.070000000000000007
sg15
g16
sg17
I0
sg18
I10
sg19
g20
sg21
I01
sg22
I26
sa(dp1049
g24
I25
sg25
g26
sg35
I200
sg36
I00
sg37
I00
sg38
I01
sg39
I00
sg40
I01
sg33
I01
sasI337
(lp1050
I00
a(dp1051
g4
I30
sg5
I6
sg6
I00
sg7
I00
sg8
I00
sg9
I1
sg10
I8
sg11
I1
sg12
I23
sg13
F0.20999999999999999
sg14
F0.070000000000000007
sg15
g16
sg17
I0
sg18
I13
sg19
g20
sg21
I01
sg22
I62
sa(dp1052
g24
I25
sg25
g26
sg35
I200
sg36
I00
sg37
I00
sg38
I01
sg39
I00
sg40
I01
sg33
I01
sasI338
(lp1053
I00
a(dp1054
g4
I30
sg5
I22
sg6
I00
sg7
I00
sg8
I00
sg9
I1
sg10
I8
sg11
I1
sg12
I45
sg13
F0.34999999999999998
sg14
F0.070000000000000007
sg15
g43
sg17
I0
sg18
I23
sg19
g20
sg21
I01
sg22
I24
sa(dp1055
g24
I25
sg25
g26
sg35
I200
sg36
I00
sg37
I01
sg38
I01
sg39
I01
sg40
I01
sg33
I01
sasI339
(lp1056
I00
a(dp1057
g4
I30
sg5
I9
sg6
I00
sg7
I00
sg8
I00
sg9
I2
sg10
I8
sg11
I1
sg12
I13
sg13
F0.41999999999999998
sg14
F0.070000000000000007
sg15
g16
sg17
I0
sg18
I46
sg19
g20
sg21
I01
sg22
I46
sa(dp1058
g24
I25
sg25
g26
sg35
I200
sg36
I00
sg37
I00
sg38
I01
sg39
I00
sg40
I01
sg33
I01
sasI340
(lp1059
I00
a(dp1060
g4
I30
sg5
I5
sg6
I00
sg7
I00
sg8
I00
sg9
I1
sg10
I8
sg11
I1
sg12
I64
sg13
F0.16
sg14
F0.070000000000000007
sg15
g16
sg17
I0
sg18
I20
sg19
g20
sg21
I01
sg22
I29
sa(dp1061
g24
I25
sg25
g26
sg35
I200
sg36
I00
sg37
I00
sg38
I01
sg39
I01
sg40
I01
sg33
I01
sasI341
(lp1062
I00
a(dp1063
g4
I30
sg5
I31
sg6
I00
sg7
I00
sg8
I00
sg9
I1
sg10
I8
sg11
I1
sg12
I27
sg13
F0.26000000000000001
sg14
F0.070000000000000007
sg15
g16
sg17
I0
sg18
I12
sg19
g20
sg21
I01
sg22
I82
sa(dp1064
g24
I25
sg25
g26
sg35
I200
sg36
I00
sg37
I01
sg38
I01
sg39
I01
sg40
I01
sg33
I01
sasI342
(lp1065
I00
a(dp1066
g4
I30
sg5
I11
sg6
I00
sg7
I00
sg8
I00
sg9
I1
sg10
I8
sg11
I1
sg12
I57
sg13
F0.17999999999999999
sg14
F0.070000000000000007
sg15
g43
sg17
I0
sg18
I13
sg19
g20
sg21
I01
sg22
I34
sa(dp1067
g24
I25
sg25
g26
sg35
I200
sg36
I00
sg37
I00
sg38
I01
sg39
I00
sg40
I01
sg33
I01
sasI343
(lp1068
I00
a(dp1069
g4
I30
sg5
I22
sg6
I00
sg7
I00
sg8
I00
sg9
I1
sg10
I8
sg11
I1
sg12
I29
sg13
F0.25
sg14
F0.070000000000000007
sg15
g43
sg17
I0
sg18
I14
sg19
g20
sg21
I01
sg22
I29
sa(dp1070
g24
I25
sg25
g26
sg35
I200
sg36
I00
sg37
I00
sg38
I01
sg39
I00
sg40
I01
sg33
I01
sasI344
(lp1071
I00
a(dp1072
g4
I30
sg5
I6
sg6
I00
sg7
I00
sg8
I00
sg9
I2
sg10
I8
sg11
I1
sg12
I46
sg13
F0.20999999999999999
sg14
F0.070000000000000007
sg15
g16
sg17
I0
sg18
I12
sg19
g20
sg21
I01
sg22
I121
sa(dp1073
g24
I25
sg25
g26
sg35
I200
sg36
I00
sg37
I01
sg38
I01
sg39
I01
sg40
I01
sg33
I01
sasI345
(lp1074
I00
a(dp1075
g4
I30
sg5
I34
sg6
I00
sg7
I00
sg8
I00
sg9
I1
sg10
I8
sg11
I1
sg12
I38
sg13
F0.11
sg14
F0.070000000000000007
sg15
g43
sg17
I0
sg18
I12
sg19
g20
sg21
I01
sg22
I71
sa(dp1076
g24
I25
sg25
g26
sg35
I200
sg36
I00
sg37
I01
sg38
I01
sg39
I00
sg40
I01
sg33
I01
sasI346
(lp1077
I00
a(dp1078
g4
I30
sg5
I39
sg6
I00
sg7
I00
sg8
I00
sg9
I2
sg10
I8
sg11
I1
sg12
I42
sg13
F0.34000000000000002
sg14
F0.070000000000000007
sg15
g43
sg17
I0
sg18
I50
sg19
g20
sg21
I01
sg22
I105
sa(dp1079
g24
I25
sg25
g26
sg35
I200
sg36
I00
sg37
I00
sg38
I01
sg39
I01
sg40
I01
sg33
I01
sasI347
(lp1080
I00
a(dp1081
g4
I30
sg5
I7
sg6
I00
sg7
I00
sg8
I00
sg9
I1
sg10
I8
sg11
I1
sg12
I79
sg13
F0.23000000000000001
sg14
F0.070000000000000007
sg15
g43
sg17
I0
sg18
I16
sg19
g20
sg21
I01
sg22
I28
sa(dp1082
g24
I25
sg25
g26
sg35
I200
sg36
I00
sg37
I00
sg38
I01
sg39
I00
sg40
I01
sg33
I01
sasI348
(lp1083
I00
a(dp1084
g4
I30
sg5
I6
sg6
I00
sg7
I00
sg8
I00
sg9
I1
sg10
I8
sg11
I1
sg12
I28
sg13
F0.5
sg14
F0.070000000000000007
sg15
g43
sg17
I0
sg18
I62
sg19
g20
sg21
I01
sg22
I75
sa(dp1085
g24
I25
sg25
g26
sg35
I200
sg36
I00
sg37
I01
sg38
I01
sg39
I01
sg40
I01
sg33
I01
sasI349
(lp1086
I00
a(dp1087
g4
I30
sg5
I5
sg6
I00
sg7
I00
sg8
I00
sg9
I1
sg10
I8
sg11
I1
sg12
I56
sg13
F0.12
sg14
F0.070000000000000007
sg15
g43
sg17
I0
sg18
I27
sg19
g20
sg21
I01
sg22
I130
sa(dp1088
g24
I25
sg25
g26
sg35
I200
sg36
I00
sg37
I01
sg38
I01
sg39
I01
sg40
I01
sg33
I01
sasI350
(lp1089
I00
a(dp1090
g4
I30
sg5
I22
sg6
I00
sg7
I00
sg8
I00
sg9
I2
sg10
I8
sg11
I1
sg12
I30
sg13
F0.28000000000000003
sg14
F0.070000000000000007
sg15
g43
sg17
I0
sg18
I38
sg19
g20
sg21
I01
sg22
I60
sa(dp1091
g24
I25
sg25
g26
sg35
I200
sg36
I00
sg37
I01
sg38
I01
sg39
I00
sg40
I01
sg33
I01
sasI351
(lp1092
I00
a(dp1093
g4
I30
sg5
I20
sg6
I00
sg7
I00
sg8
I00
sg9
I2
sg10
I8
sg11
I1
sg12
I35
sg13
F0.14000000000000001
sg14
F0.070000000000000007
sg15
g43
sg17
I0
sg18
I15
sg19
g20
sg21
I01
sg22
I36
sa(dp1094
g24
I25
sg25
g26
sg35
I200
sg36
I00
sg37
I01
sg38
I01
sg39
I01
sg40
I01
sg33
I01
sasI352
(lp1095
I00
a(dp1096
g4
I30
sg5
I16
sg6
I00
sg7
I00
sg8
I00
sg9
I2
sg10
I8
sg11
I1
sg12
I45
sg13
F0.23999999999999999
sg14
F0.070000000000000007
sg15
g43
sg17
I0
sg18
I40
sg19
g20
sg21
I01
sg22
I22
sa(dp1097
g24
I25
sg25
g26
sg35
I200
sg36
I00
sg37
I00
sg38
I01
sg39
I01
sg40
I01
sg33
I01
sasI353
(lp1098
I00
a(dp1099
g4
I30
sg5
I10
sg6
I00
sg7
I00
sg8
I00
sg9
I2
sg10
I8
sg11
I1
sg12
I10
sg13
F0.33000000000000002
sg14
F0.070000000000000007
sg15
g16
sg17
I0
sg18
I33
sg19
g20
sg21
I01
sg22
I31
sa(dp1100
g24
I25
sg25
g26
sg35
I200
sg36
I00
sg37
I01
sg38
I01
sg39
I00
sg40
I01
sg33
I01
sasI354
(lp1101
I00
a(dp1102
g4
I30
sg5
I5
sg6
I00
sg7
I00
sg8
I00
sg9
I2
sg10
I8
sg11
I1
sg12
I80
sg13
F0.11
sg14
F0.070000000000000007
sg15
g16
sg17
I0
sg18
I74
sg19
g20
sg21
I01
sg22
I62
sa(dp1103
g24
I25
sg25
g26
sg35
I200
sg36
I00
sg37
I00
sg38
I01
sg39
I00
sg40
I01
sg33
I01
sasI355
(lp1104
I00
a(dp1105
g4
I30
sg5
I26
sg6
I00
sg7
I00
sg8
I00
sg9
I2
sg10
I8
sg11
I1
sg12
I44
sg13
F0.19
sg14
F0.070000000000000007
sg15
g43
sg17
I0
sg18
I22
sg19
g20
sg21
I01
sg22
I92
sa(dp1106
g24
I25
sg25
g26
sg35
I200
sg36
I00
sg37
I01
sg38
I01
sg39
I00
sg40
I01
sg33
I01
sasI356
(lp1107
I00
a(dp1108
g4
I30
sg5
I12
sg6
I00
sg7
I00
sg8
I00
sg9
I2
sg10
I8
sg11
I1
sg12
I76
sg13
F0.25
sg14
F0.070000000000000007
sg15
g16
sg17
I0
sg18
I54
sg19
g20
sg21
I01
sg22
I46
sa(dp1109
g24
I25
sg25
g26
sg35
I200
sg36
I00
sg37
I00
sg38
I01
sg39
I01
sg40
I01
sg33
I01
sasI357
(lp1110
I00
a(dp1111
g4
I30
sg5
I21
sg6
I00
sg7
I00
sg8
I00
sg9
I1
sg10
I8
sg11
I1
sg12
I19
sg13
F0.17000000000000001
sg14
F0.070000000000000007
sg15
g43
sg17
I0
sg18
I77
sg19
g20
sg21
I01
sg22
I22
sa(dp1112
g24
I25
sg25
g26
sg35
I200
sg36
I00
sg37
I01
sg38
I01
sg39
I00
sg40
I01
sg33
I01
sasI358
(lp1113
I00
a(dp1114
g4
I30
sg5
I10
sg6
I00
sg7
I00
sg8
I00
sg9
I1
sg10
I8
sg11
I1
sg12
I34
sg13
F0.20000000000000001
sg14
F0.070000000000000007
sg15
g16
sg17
I0
sg18
I74
sg19
g20
sg21
I01
sg22
I45
sa(dp1115
g24
I25
sg25
g26
sg35
I200
sg36
I00
sg37
I01
sg38
I01
sg39
I01
sg40
I01
sg33
I01
sasI359
(lp1116
I00
a(dp1117
g4
I30
sg5
I9
sg6
I00
sg7
I00
sg8
I00
sg9
I1
sg10
I8
sg11
I1
sg12
I29
sg13
F0.42999999999999999
sg14
F0.070000000000000007
sg15
g43
sg17
I0
sg18
I16
sg19
g20
sg21
I01
sg22
I121
sa(dp1118
g24
I25
sg25
g26
sg35
I200
sg36
I00
sg37
I00
sg38
I01
sg39
I01
sg40
I01
sg33
I01
sasI360
(lp1119
I00
a(dp1120
g4
I30
sg5
I32
sg6
I00
sg7
I00
sg8
I00
sg9
I1
sg10
I8
sg11
I1
sg12
I89
sg13
F0.22
sg14
F0.070000000000000007
sg15
g16
sg17
I0
sg18
I92
sg19
g20
sg21
I01
sg22
I112
sa(dp1121
g24
I25
sg25
g26
sg35
I200
sg36
I00
sg37
I01
sg38
I01
sg39
I00
sg40
I01
sg33
I01
sasI361
(lp1122
I00
a(dp1123
g4
I30
sg5
I9
sg6
I00
sg7
I00
sg8
I00
sg9
I1
sg10
I8
sg11
I1
sg12
I45
sg13
F0.40000000000000002
sg14
F0.070000000000000007
sg15
g43
sg17
I0
sg18
I14
sg19
g20
sg21
I01
sg22
I115
sa(dp1124
g24
I25
sg25
g26
sg35
I200
sg36
I00
sg37
I01
sg38
I01
sg39
I00
sg40
I01
sg33
I01
sasI362
(lp1125
I00
a(dp1126
g4
I30
sg5
I34
sg6
I00
sg7
I00
sg8
I00
sg9
I2
sg10
I8
sg11
I1
sg12
I12
sg13
F0.33000000000000002
sg14
F0.070000000000000007
sg15
g16
sg17
I0
sg18
I10
sg19
g20
sg21
I01
sg22
I28
sa(dp1127
g24
I25
sg25
g26
sg35
I200
sg36
I00
sg37
I00
sg38
I01
sg39
I01
sg40
I01
sg33
I01
sasI363
(lp1128
I00
a(dp1129
g4
I30
sg5
I18
sg6
I00
sg7
I00
sg8
I00
sg9
I1
sg10
I8
sg11
I1
sg12
I30
sg13
F0.12
sg14
F0.070000000000000007
sg15
g43
sg17
I0
sg18
I23
sg19
g20
sg21
I01
sg22
I26
sa(dp1130
g24
I25
sg25
g26
sg35
I200
sg36
I00
sg37
I01
sg38
I01
sg39
I00
sg40
I01
sg33
I01
sasI364
(lp1131
I00
a(dp1132
g4
I30
sg5
I19
sg6
I00
sg7
I00
sg8
I00
sg9
I1
sg10
I8
sg11
I1
sg12
I69
sg13
F0.13
sg14
F0.070000000000000007
sg15
g16
sg17
I0
sg18
I19
sg19
g20
sg21
I01
sg22
I31
sa(dp1133
g24
I25
sg25
g26
sg35
I200
sg36
I00
sg37
I00
sg38
I01
sg39
I00
sg40
I01
sg33
I01
sasI365
(lp1134
I00
a(dp1135
g4
I30
sg5
I42
sg6
I00
sg7
I00
sg8
I00
sg9
I2
sg10
I8
sg11
I1
sg12
I27
sg13
F0.17000000000000001
sg14
F0.070000000000000007
sg15
g16
sg17
I0
sg18
I62
sg19
g20
sg21
I01
sg22
I26
sa(dp1136
g24
I25
sg25
g26
sg35
I200
sg36
I00
sg37
I00
sg38
I01
sg39
I00
sg40
I01
sg33
I01
sasI366
(lp1137
I00
a(dp1138
g4
I30
sg5
I5
sg6
I00
sg7
I00
sg8
I00
sg9
I2
sg10
I8
sg11
I1
sg12
I84
sg13
F0.35999999999999999
sg14
F0.070000000000000007
sg15
g16
sg17
I0
sg18
I76
sg19
g20
sg21
I01
sg22
I44
sa(dp1139
g24
I25
sg25
g26
sg35
I200
sg36
I00
sg37
I01
sg38
I01
sg39
I01
sg40
I01
sg33
I01
sasI367
(lp1140
I00
a(dp1141
g4
I30
sg5
I8
sg6
I00
sg7
I00
sg8
I00
sg9
I2
sg10
I8
sg11
I1
sg12
I95
sg13
F0.17000000000000001
sg14
F0.070000000000000007
sg15
g43
sg17
I0
sg18
I11
sg19
g20
sg21
I01
sg22
I54
sa(dp1142
g24
I25
sg25
g26
sg35
I200
sg36
I00
sg37
I01
sg38
I01
sg39
I00
sg40
I01
sg33
I01
sasI368
(lp1143
I00
a(dp1144
g4
I30
sg5
I21
sg6
I00
sg7
I00
sg8
I00
sg9
I2
sg10
I8
sg11
I1
sg12
I21
sg13
F0.5
sg14
F0.070000000000000007
sg15
g43
sg17
I0
sg18
I54
sg19
g20
sg21
I01
sg22
I102
sa(dp1145
g24
I25
sg25
g26
sg35
I200
sg36
I00
sg37
I00
sg38
I01
sg39
I00
sg40
I01
sg33
I01
sasI369
(lp1146
I00
a(dp1147
g4
I30
sg5
I32
sg6
I00
sg7
I00
sg8
I00
sg9
I2
sg10
I8
sg11
I1
sg12
I10
sg13
F0.19
sg14
F0.070000000000000007
sg15
g16
sg17
I0
sg18
I19
sg19
g20
sg21
I01
sg22
I98
sa(dp1148
g24
I25
sg25
g26
sg35
I200
sg36
I00
sg37
I01
sg38
I01
sg39
I00
sg40
I01
sg33
I01
sasI370
(lp1149
I00
a(dp1150
g4
I30
sg5
I10
sg6
I00
sg7
I00
sg8
I00
sg9
I2
sg10
I8
sg11
I1
sg12
I40
sg13
F0.20000000000000001
sg14
F0.070000000000000007
sg15
g43
sg17
I0
sg18
I30
sg19
g20
sg21
I01
sg22
I104
sa(dp1151
g24
I25
sg25
g26
sg35
I200
sg36
I00
sg37
I01
sg38
I01
sg39
I01
sg40
I01
sg33
I01
sasI371
(lp1152
I00
a(dp1153
g4
I30
sg5
I44
sg6
I00
sg7
I00
sg8
I00
sg9
I2
sg10
I8
sg11
I1
sg12
I57
sg13
F0.20000000000000001
sg14
F0.070000000000000007
sg15
g43
sg17
I0
sg18
I14
sg19
g20
sg21
I01
sg22
I111
sa(dp1154
g24
I25
sg25
g26
sg35
I200
sg36
I00
sg37
I00
sg38
I01
sg39
I00
sg40
I01
sg33
I01
sasI372
(lp1155
I00
a(dp1156
g4
I30
sg5
I6
sg6
I00
sg7
I00
sg8
I00
sg9
I1
sg10
I8
sg11
I1
sg12
I85
sg13
F0.12
sg14
F0.070000000000000007
sg15
g16
sg17
I0
sg18
I91
sg19
g20
sg21
I01
sg22
I72
sa(dp1157
g24
I25
sg25
g26
sg35
I200
sg36
I00
sg37
I00
sg38
I01
sg39
I00
sg40
I01
sg33
I01
sasI373
(lp1158
I00
a(dp1159
g4
I30
sg5
I6
sg6
I00
sg7
I00
sg8
I00
sg9
I1
sg10
I8
sg11
I1
sg12
I45
sg13
F0.47999999999999998
sg14
F0.070000000000000007
sg15
g16
sg17
I0
sg18
I80
sg19
g20
sg21
I01
sg22
I24
sa(dp1160
g24
I25
sg25
g26
sg35
I200
sg36
I00
sg37
I01
sg38
I01
sg39
I00
sg40
I01
sg33
I01
sasI374
(lp1161
I00
a(dp1162
g4
I30
sg5
I19
sg6
I00
sg7
I00
sg8
I00
sg9
I2
sg10
I8
sg11
I1
sg12
I10
sg13
F0.47999999999999998
sg14
F0.070000000000000007
sg15
g16
sg17
I0
sg18
I33
sg19
g20
sg21
I01
sg22
I34
sa(dp1163
g24
I25
sg25
g26
sg35
I200
sg36
I00
sg37
I00
sg38
I01
sg39
I01
sg40
I01
sg33
I01
sasI375
(lp1164
I00
a(dp1165
g4
I30
sg5
I27
sg6
I00
sg7
I00
sg8
I00
sg9
I2
sg10
I8
sg11
I1
sg12
I24
sg13
F0.26000000000000001
sg14
F0.070000000000000007
sg15
g16
sg17
I0
sg18
I33
sg19
g20
sg21
I01
sg22
I116
sa(dp1166
g24
I25
sg25
g26
sg35
I200
sg36
I00
sg37
I01
sg38
I01
sg39
I00
sg40
I01
sg33
I01
sasI376
(lp1167
I00
a(dp1168
g4
I30
sg5
I18
sg6
I00
sg7
I00
sg8
I00
sg9
I2
sg10
I8
sg11
I1
sg12
I19
sg13
F0.32000000000000001
sg14
F0.070000000000000007
sg15
g16
sg17
I0
sg18
I14
sg19
g20
sg21
I01
sg22
I136
sa(dp1169
g24
I25
sg25
g26
sg35
I200
sg36
I00
sg37
I01
sg38
I01
sg39
I00
sg40
I01
sg33
I01
sasI377
(lp1170
I00
a(dp1171
g4
I30
sg5
I10
sg6
I00
sg7
I00
sg8
I00
sg9
I1
sg10
I8
sg11
I1
sg12
I73
sg13
F0.38
sg14
F0.070000000000000007
sg15
g16
sg17
I0
sg18
I99
sg19
g20
sg21
I01
sg22
I42
sa(dp1172
g24
I25
sg25
g26
sg35
I200
sg36
I00
sg37
I00
sg38
I01
sg39
I00
sg40
I01
sg33
I01
sasI378
(lp1173
I01
a(dp1174
g4
I30
sg5
I42
sg6
I00
sg7
I00
sg8
I00
sg9
I1
sg10
I8
sg11
I1
sg12
I34
sg13
F0.25
sg14
F0.070000000000000007
sg15
g16
sg17
I0
sg18
I11
sg19
g20
sg21
I01
sg22
I105
sa(dp1175
g24
I25
sg25
g26
sg35
I200
sg36
I00
sg37
I00
sg38
I01
sg39
I00
sg40
I01
sg33
I01
sasI379
(lp1176
I00
a(dp1177
g4
I30
sg5
I31
sg6
I00
sg7
I00
sg8
I00
sg9
I2
sg10
I8
sg11
I1
sg12
I40
sg13
F0.13
sg14
F0.070000000000000007
sg15
g43
sg17
I0
sg18
I64
sg19
g20
sg21
I01
sg22
I84
sa(dp1178
g24
I25
sg25
g26
sg35
I200
sg36
I00
sg37
I01
sg38
I01
sg39
I00
sg40
I01
sg33
I01
sasI380
(lp1179
I00
a(dp1180
g4
I30
sg5
I17
sg6
I00
sg7
I00
sg8
I00
sg9
I1
sg10
I8
sg11
I1
sg12
I15
sg13
F0.11
sg14
F0.070000000000000007
sg15
g16
sg17
I0
sg18
I10
sg19
g20
sg21
I01
sg22
I33
sa(dp1181
g24
I25
sg25
g26
sg35
I200
sg36
I00
sg37
I00
sg38
I01
sg39
I00
sg40
I01
sg33
I01
sasI381
(lp1182
I00
a(dp1183
g4
I30
sg5
I49
sg6
I00
sg7
I00
sg8
I00
sg9
I2
sg10
I8
sg11
I1
sg12
I61
sg13
F0.23999999999999999
sg14
F0.070000000000000007
sg15
g16
sg17
I0
sg18
I23
sg19
g20
sg21
I01
sg22
I63
sa(dp1184
g24
I25
sg25
g26
sg35
I200
sg36
I00
sg37
I00
sg38
I01
sg39
I00
sg40
I01
sg33
I01
sasI382
(lp1185
I00
a(dp1186
g4
I30
sg5
I30
sg6
I00
sg7
I00
sg8
I00
sg9
I2
sg10
I8
sg11
I1
sg12
I11
sg13
F0.19
sg14
F0.070000000000000007
sg15
g43
sg17
I0
sg18
I10
sg19
g20
sg21
I01
sg22
I121
sa(dp1187
g24
I25
sg25
g26
sg35
I200
sg36
I00
sg37
I01
sg38
I01
sg39
I00
sg40
I01
sg33
I01
sasI383
(lp1188
I00
a(dp1189
g4
I30
sg5
I18
sg6
I00
sg7
I00
sg8
I00
sg9
I2
sg10
I8
sg11
I1
sg12
I39
sg13
F0.38
sg14
F0.070000000000000007
sg15
g16
sg17
I0
sg18
I52
sg19
g20
sg21
I01
sg22
I24
sa(dp1190
g24
I25
sg25
g26
sg35
I200
sg36
I00
sg37
I01
sg38
I01
sg39
I01
sg40
I01
sg33
I01
sasI384
(lp1191
I00
a(dp1192
g4
I30
sg5
I14
sg6
I00
sg7
I00
sg8
I00
sg9
I2
sg10
I8
sg11
I1
sg12
I34
sg13
F0.25
sg14
F0.070000000000000007
sg15
g43
sg17
I0
sg18
I14
sg19
g20
sg21
I01
sg22
I47
sa(dp1193
g24
I25
sg25
g26
sg35
I200
sg36
I00
sg37
I01
sg38
I01
sg39
I01
sg40
I01
sg33
I01
sasI385
(lp1194
I00
a(dp1195
g4
I30
sg5
I12
sg6
I00
sg7
I00
sg8
I00
sg9
I2
sg10
I8
sg11
I1
sg12
I12
sg13
F0.28999999999999998
sg14
F0.070000000000000007
sg15
g43
sg17
I0
sg18
I54
sg19
g20
sg21
I01
sg22
I24
sa(dp1196
g24
I25
sg25
g26
sg35
I200
sg36
I00
sg37
I00
sg38
I01
sg39
I01
sg40
I01
sg33
I01
sasI386
(lp1197
I00
a(dp1198
g4
I30
sg5
I12
sg6
I00
sg7
I00
sg8
I00
sg9
I2
sg10
I8
sg11
I1
sg12
I83
sg13
F0.23000000000000001
sg14
F0.070000000000000007
sg15
g43
sg17
I0
sg18
I42
sg19
g20
sg21
I01
sg22
I28
sa(dp1199
g24
I25
sg25
g26
sg35
I200
sg36
I00
sg37
I00
sg38
I01
sg39
I00
sg40
I01
sg33
I01
sasI387
(lp1200
I00
a(dp1201
g4
I30
sg5
I16
sg6
I00
sg7
I00
sg8
I00
sg9
I1
sg10
I8
sg11
I1
sg12
I28
sg13
F0.14000000000000001
sg14
F0.070000000000000007
sg15
g43
sg17
I0
sg18
I68
sg19
g20
sg21
I01
sg22
I46
sa(dp1202
g24
I25
sg25
g26
sg35
I200
sg36
I00
sg37
I01
sg38
I01
sg39
I01
sg40
I01
sg33
I01
sasI388
(lp1203
I00
a(dp1204
g4
I30
sg5
I28
sg6
I00
sg7
I00
sg8
I00
sg9
I1
sg10
I8
sg11
I1
sg12
I37
sg13
F0.13
sg14
F0.070000000000000007
sg15
g16
sg17
I0
sg18
I20
sg19
g20
sg21
I01
sg22
I25
sa(dp1205
g24
I25
sg25
g26
sg35
I200
sg36
I00
sg37
I01
sg38
I01
sg39
I01
sg40
I01
sg33
I01
sasI389
(lp1206
I00
a(dp1207
g4
I30
sg5
I28
sg6
I00
sg7
I00
sg8
I00
sg9
I2
sg10
I8
sg11
I1
sg12
I61
sg13
F0.22
sg14
F0.070000000000000007
sg15
g43
sg17
I0
sg18
I72
sg19
g20
sg21
I01
sg22
I101
sa(dp1208
g24
I25
sg25
g26
sg35
I200
sg36
I00
sg37
I01
sg38
I01
sg39
I01
sg40
I01
sg33
I01
sasI390
(lp1209
I00
a(dp1210
g4
I30
sg5
I13
sg6
I00
sg7
I00
sg8
I00
sg9
I2
sg10
I8
sg11
I1
sg12
I43
sg13
F0.44
sg14
F0.070000000000000007
sg15
g43
sg17
I0
sg18
I65
sg19
g20
sg21
I01
sg22
I61
sa(dp1211
g24
I25
sg25
g26
sg35
I200
sg36
I00
sg37
I01
sg38
I01
sg39
I01
sg40
I01
sg33
I01
sasI391
(lp1212
I01
a(dp1213
g4
I30
sg5
I26
sg6
I00
sg7
I00
sg8
I00
sg9
I1
sg10
I8
sg11
I1
sg12
I10
sg13
F0.13
sg14
F0.070000000000000007
sg15
g43
sg17
I0
sg18
I14
sg19
g20
sg21
I01
sg22
I31
sa(dp1214
g24
I25
sg25
g26
sg35
I200
sg36
I00
sg37
I00
sg38
I01
sg39
I00
sg40
I01
sg33
I01
sasI392
(lp1215
I00
a(dp1216
g4
I30
sg5
I30
sg6
I00
sg7
I00
sg8
I00
sg9
I1
sg10
I8
sg11
I1
sg12
I23
sg13
F0.34000000000000002
sg14
F0.070000000000000007
sg15
g43
sg17
I0
sg18
I18
sg19
g20
sg21
I01
sg22
I57
sa(dp1217
g24
I25
sg25
g26
sg35
I200
sg36
I00
sg37
I01
sg38
I01
sg39
I01
sg40
I01
sg33
I01
sasI393
(lp1218
I00
a(dp1219
g4
I30
sg5
I30
sg6
I00
sg7
I00
sg8
I00
sg9
I1
sg10
I8
sg11
I1
sg12
I38
sg13
F0.34000000000000002
sg14
F0.070000000000000007
sg15
g43
sg17
I0
sg18
I59
sg19
g20
sg21
I01
sg22
I68
sa(dp1220
g24
I25
sg25
g26
sg35
I200
sg36
I00
sg37
I00
sg38
I01
sg39
I00
sg40
I01
sg33
I01
sasI394
(lp1221
I00
a(dp1222
g4
I30
sg5
I11
sg6
I00
sg7
I00
sg8
I00
sg9
I1
sg10
I8
sg11
I1
sg12
I22
sg13
F0.31
sg14
F0.070000000000000007
sg15
g16
sg17
I0
sg18
I99
sg19
g20
sg21
I01
sg22
I34
sa(dp1223
g24
I25
sg25
g26
sg35
I200
sg36
I00
sg37
I01
sg38
I01
sg39
I01
sg40
I01
sg33
I01
sasI395
(lp1224
I00
a(dp1225
g4
I30
sg5
I7
sg6
I00
sg7
I00
sg8
I00
sg9
I2
sg10
I8
sg11
I1
sg12
I14
sg13
F0.14999999999999999
sg14
F0.070000000000000007
sg15
g16
sg17
I0
sg18
I34
sg19
g20
sg21
I01
sg22
I106
sa(dp1226
g24
I25
sg25
g26
sg35
I200
sg36
I00
sg37
I01
sg38
I01
sg39
I00
sg40
I01
sg33
I01
sasI396
(lp1227
I00
a(dp1228
g4
I30
sg5
I5
sg6
I00
sg7
I00
sg8
I00
sg9
I1
sg10
I8
sg11
I1
sg12
I15
sg13
F0.37
sg14
F0.070000000000000007
sg15
g16
sg17
I0
sg18
I12
sg19
g20
sg21
I01
sg22
I58
sa(dp1229
g24
I25
sg25
g26
sg35
I200
sg36
I00
sg37
I00
sg38
I01
sg39
I01
sg40
I01
sg33
I01
sasI397
(lp1230
I00
a(dp1231
g4
I30
sg5
I13
sg6
I00
sg7
I00
sg8
I00
sg9
I2
sg10
I8
sg11
I1
sg12
I19
sg13
F0.35999999999999999
sg14
F0.070000000000000007
sg15
g43
sg17
I0
sg18
I15
sg19
g20
sg21
I01
sg22
I54
sa(dp1232
g24
I25
sg25
g26
sg35
I200
sg36
I00
sg37
I01
sg38
I01
sg39
I00
sg40
I01
sg33
I01
sasI398
(lp1233
I00
a(dp1234
g4
I30
sg5
I9
sg6
I00
sg7
I00
sg8
I00
sg9
I1
sg10
I8
sg11
I1
sg12
I48
sg13
F0.23999999999999999
sg14
F0.070000000000000007
sg15
g43
sg17
I0
sg18
I70
sg19
g20
sg21
I01
sg22
I53
sa(dp1235
g24
I25
sg25
g26
sg35
I200
sg36
I00
sg37
I01
sg38
I01
sg39
I00
sg40
I01
sg33
I01
sasI399
(lp1236
I00
a(dp1237
g4
I30
sg5
I10
sg6
I00
sg7
I00
sg8
I00
sg9
I2
sg10
I8
sg11
I1
sg12
I29
sg13
F0.48999999999999999
sg14
F0.070000000000000007
sg15
g43
sg17
I0
sg18
I12
sg19
g20
sg21
I01
sg22
I34
sa(dp1238
g24
I25
sg25
g26
sg35
I200
sg36
I00
sg37
I01
sg38
I01
sg39
I00
sg40
I01
sg33
I01
sasI400
(lp1239
I00
a(dp1240
g4
I30
sg5
I12
sg6
I00
sg7
I00
sg8
I00
sg9
I1
sg10
I8
sg11
I1
sg12
I13
sg13
F0.17000000000000001
sg14
F0.070000000000000007
sg15
g16
sg17
I0
sg18
I66
sg19
g20
sg21
I01
sg22
I93
sa(dp1241
g24
I25
sg25
g26
sg35
I200
sg36
I00
sg37
I01
sg38
I01
sg39
I00
sg40
I01
sg33
I01
sasI401
(lp1242
I00
a(dp1243
g4
I30
sg5
I5
sg6
I00
sg7
I00
sg8
I00
sg9
I2
sg10
I8
sg11
I1
sg12
I12
sg13
F0.16
sg14
F0.070000000000000007
sg15
g16
sg17
I0
sg18
I24
sg19
g20
sg21
I01
sg22
I66
sa(dp1244
g24
I25
sg25
g26
sg35
I200
sg36
I00
sg37
I00
sg38
I01
sg39
I00
sg40
I01
sg33
I01
sasI402
(lp1245
I00
a(dp1246
g4
I30
sg5
I40
sg6
I00
sg7
I00
sg8
I00
sg9
I1
sg10
I8
sg11
I1
sg12
I33
sg13
F0.33000000000000002
sg14
F0.070000000000000007
sg15
g43
sg17
I0
sg18
I25
sg19
g20
sg21
I01
sg22
I144
sa(dp1247
g24
I25
sg25
g26
sg35
I200
sg36
I00
sg37
I01
sg38
I01
sg39
I00
sg40
I01
sg33
I01
sasI403
(lp1248
I00
a(dp1249
g4
I30
sg5
I44
sg6
I00
sg7
I00
sg8
I00
sg9
I1
sg10
I8
sg11
I1
sg12
I32
sg13
F0.17999999999999999
sg14
F0.070000000000000007
sg15
g43
sg17
I0
sg18
I13
sg19
g20
sg21
I01
sg22
I74
sa(dp1250
g24
I25
sg25
g26
sg35
I200
sg36
I00
sg37
I00
sg38
I01
sg39
I01
sg40
I01
sg33
I01
sasI404
(lp1251
I00
a(dp1252
g4
I30
sg5
I46
sg6
I00
sg7
I00
sg8
I00
sg9
I2
sg10
I8
sg11
I1
sg12
I14
sg13
F0.10000000000000001
sg14
F0.070000000000000007
sg15
g16
sg17
I0
sg18
I45
sg19
g20
sg21
I01
sg22
I117
sa(dp1253
g24
I25
sg25
g26
sg35
I200
sg36
I00
sg37
I01
sg38
I01
sg39
I00
sg40
I01
sg33
I01
sasI405
(lp1254
I00
a(dp1255
g4
I30
sg5
I38
sg6
I00
sg7
I00
sg8
I00
sg9
I2
sg10
I8
sg11
I1
sg12
I33
sg13
F0.29999999999999999
sg14
F0.070000000000000007
sg15
g43
sg17
I0
sg18
I12
sg19
g20
sg21
I01
sg22
I87
sa(dp1256
g24
I25
sg25
g26
sg35
I200
sg36
I00
sg37
I01
sg38
I01
sg39
I00
sg40
I01
sg33
I01
sasI406
(lp1257
I00
a(dp1258
g4
I30
sg5
I6
sg6
I00
sg7
I00
sg8
I00
sg9
I1
sg10
I8
sg11
I1
sg12
I51
sg13
F0.14999999999999999
sg14
F0.070000000000000007
sg15
g16
sg17
I0
sg18
I84
sg19
g20
sg21
I01
sg22
I118
sa(dp1259
g24
I25
sg25
g26
sg35
I200
sg36
I00
sg37
I01
sg38
I01
sg39
I00
sg40
I01
sg33
I01
sasI407
(lp1260
I00
a(dp1261
g4
I30
sg5
I27
sg6
I00
sg7
I00
sg8
I00
sg9
I2
sg10
I8
sg11
I1
sg12
I13
sg13
F0.20999999999999999
sg14
F0.070000000000000007
sg15
g43
sg17
I0
sg18
I63
sg19
g20
sg21
I01
sg22
I85
sa(dp1262
g24
I25
sg25
g26
sg35
I200
sg36
I00
sg37
I00
sg38
I01
sg39
I01
sg40
I01
sg33
I01
sasI408
(lp1263
I00
a(dp1264
g4
I30
sg5
I10
sg6
I00
sg7
I00
sg8
I00
sg9
I1
sg10
I8
sg11
I1
sg12
I17
sg13
F0.17000000000000001
sg14
F0.070000000000000007
sg15
g16
sg17
I0
sg18
I22
sg19
g20
sg21
I01
sg22
I146
sa(dp1265
g24
I25
sg25
g26
sg35
I200
sg36
I00
sg37
I01
sg38
I01
sg39
I01
sg40
I01
sg33
I01
sasI409
(lp1266
I00
a(dp1267
g4
I30
sg5
I11
sg6
I00
sg7
I00
sg8
I00
sg9
I2
sg10
I8
sg11
I1
sg12
I20
sg13
F0.25
sg14
F0.070000000000000007
sg15
g16
sg17
I0
sg18
I92
sg19
g20
sg21
I01
sg22
I135
sa(dp1268
g24
I25
sg25
g26
sg35
I200
sg36
I00
sg37
I00
sg38
I01
sg39
I01
sg40
I01
sg33
I01
sasI410
(lp1269
I00
a(dp1270
g4
I30
sg5
I5
sg6
I00
sg7
I00
sg8
I00
sg9
I1
sg10
I8
sg11
I1
sg12
I81
sg13
F0.11
sg14
F0.070000000000000007
sg15
g16
sg17
I0
sg18
I68
sg19
g20
sg21
I01
sg22
I25
sa(dp1271
g24
I25
sg25
g26
sg35
I200
sg36
I00
sg37
I00
sg38
I01
sg39
I01
sg40
I01
sg33
I01
sasI411
(lp1272
I00
a(dp1273
g4
I30
sg5
I18
sg6
I00
sg7
I00
sg8
I00
sg9
I2
sg10
I8
sg11
I1
sg12
I42
sg13
F0.17000000000000001
sg14
F0.070000000000000007
sg15
g43
sg17
I0
sg18
I46
sg19
g20
sg21
I01
sg22
I32
sa(dp1274
g24
I25
sg25
g26
sg35
I200
sg36
I00
sg37
I01
sg38
I01
sg39
I01
sg40
I01
sg33
I01
sasI412
(lp1275
I00
a(dp1276
g4
I30
sg5
I12
sg6
I00
sg7
I00
sg8
I00
sg9
I1
sg10
I8
sg11
I1
sg12
I73
sg13
F0.10000000000000001
sg14
F0.070000000000000007
sg15
g16
sg17
I0
sg18
I81
sg19
g20
sg21
I01
sg22
I71
sa(dp1277
g24
I25
sg25
g26
sg35
I200
sg36
I00
sg37
I00
sg38
I01
sg39
I00
sg40
I01
sg33
I01
sasI413
(lp1278
I00
a(dp1279
g4
I30
sg5
I29
sg6
I00
sg7
I00
sg8
I00
sg9
I2
sg10
I8
sg11
I1
sg12
I20
sg13
F0.22
sg14
F0.070000000000000007
sg15
g43
sg17
I0
sg18
I73
sg19
g20
sg21
I01
sg22
I24
sa(dp1280
g24
I25
sg25
g26
sg35
I200
sg36
I00
sg37
I00
sg38
I01
sg39
I00
sg40
I01
sg33
I01
sasI414
(lp1281
I00
a(dp1282
g4
I30
sg5
I29
sg6
I00
sg7
I00
sg8
I00
sg9
I1
sg10
I8
sg11
I1
sg12
I69
sg13
F0.23000000000000001
sg14
F0.070000000000000007
sg15
g16
sg17
I0
sg18
I84
sg19
g20
sg21
I01
sg22
I145
sa(dp1283
g24
I25
sg25
g26
sg35
I200
sg36
I00
sg37
I01
sg38
I01
sg39
I01
sg40
I01
sg33
I01
sasI415
(lp1284
I00
a(dp1285
g4
I30
sg5
I6
sg6
I00
sg7
I00
sg8
I00
sg9
I2
sg10
I8
sg11
I1
sg12
I53
sg13
F0.26000000000000001
sg14
F0.070000000000000007
sg15
g16
sg17
I0
sg18
I36
sg19
g20
sg21
I01
sg22
I31
sa(dp1286
g24
I25
sg25
g26
sg35
I200
sg36
I00
sg37
I01
sg38
I01
sg39
I01
sg40
I01
sg33
I01
sasI416
(lp1287
I00
a(dp1288
g4
I30
sg5
I20
sg6
I00
sg7
I00
sg8
I00
sg9
I1
sg10
I8
sg11
I1
sg12
I50
sg13
F0.46999999999999997
sg14
F0.070000000000000007
sg15
g43
sg17
I0
sg18
I42
sg19
g20
sg21
I01
sg22
I20
sa(dp1289
g24
I25
sg25
g26
sg35
I200
sg36
I00
sg37
I00
sg38
I01
sg39
I00
sg40
I01
sg33
I01
sasI417
(lp1290
I00
a(dp1291
g4
I30
sg5
I19
sg6
I00
sg7
I00
sg8
I00
sg9
I1
sg10
I8
sg11
I1
sg12
I84
sg13
F0.25
sg14
F0.070000000000000007
sg15
g43
sg17
I0
sg18
I28
sg19
g20
sg21
I01
sg22
I77
sa(dp1292
g24
I25
sg25
g26
sg35
I200
sg36
I00
sg37
I00
sg38
I01
sg39
I00
sg40
I01
sg33
I01
sasI418
(lp1293
I00
a(dp1294
g4
I30
sg5
I18
sg6
I00
sg7
I00
sg8
I00
sg9
I1
sg10
I8
sg11
I1
sg12
I28
sg13
F0.23000000000000001
sg14
F0.070000000000000007
sg15
g43
sg17
I0
sg18
I91
sg19
g20
sg21
I01
sg22
I104
sa(dp1295
g24
I25
sg25
g26
sg35
I200
sg36
I00
sg37
I01
sg38
I01
sg39
I00
sg40
I01
sg33
I01
sasI419
(lp1296
I00
a(dp1297
g4
I30
sg5
I26
sg6
I00
sg7
I00
sg8
I00
sg9
I2
sg10
I8
sg11
I1
sg12
I69
sg13
F0.37
sg14
F0.070000000000000007
sg15
g43
sg17
I0
sg18
I55
sg19
g20
sg21
I01
sg22
I79
sa(dp1298
g24
I25
sg25
g26
sg35
I200
sg36
I00
sg37
I00
sg38
I01
sg39
I01
sg40
I01
sg33
I01
sasI420
(lp1299
I00
a(dp1300
g4
I30
sg5
I18
sg6
I00
sg7
I00
sg8
I00
sg9
I1
sg10
I8
sg11
I1
sg12
I20
sg13
F0.10000000000000001
sg14
F0.070000000000000007
sg15
g43
sg17
I0
sg18
I86
sg19
g20
sg21
I01
sg22
I61
sa(dp1301
g24
I25
sg25
g26
sg35
I200
sg36
I00
sg37
I00
sg38
I01
sg39
I00
sg40
I01
sg33
I01
sasI421
(lp1302
I00
a(dp1303
g4
I30
sg5
I8
sg6
I00
sg7
I00
sg8
I00
sg9
I2
sg10
I8
sg11
I1
sg12
I18
sg13
F0.34999999999999998
sg14
F0.070000000000000007
sg15
g43
sg17
I0
sg18
I32
sg19
g20
sg21
I01
sg22
I54
sa(dp1304
g24
I25
sg25
g26
sg35
I200
sg36
I00
sg37
I01
sg38
I01
sg39
I01
sg40
I01
sg33
I01
sasI422
(lp1305
I01
a(dp1306
g4
I30
sg5
I10
sg6
I00
sg7
I00
sg8
I00
sg9
I1
sg10
I8
sg11
I1
sg12
I39
sg13
F0.26000000000000001
sg14
F0.070000000000000007
sg15
g43
sg17
I0
sg18
I37
sg19
g20
sg21
I01
sg22
I52
sa(dp1307
g24
I25
sg25
g26
sg35
I200
sg36
I00
sg37
I01
sg38
I01
sg39
I01
sg40
I01
sg33
I01
sasI423
(lp1308
I00
a(dp1309
g4
I30
sg5
I9
sg6
I00
sg7
I00
sg8
I00
sg9
I1
sg10
I8
sg11
I1
sg12
I56
sg13
F0.29999999999999999
sg14
F0.070000000000000007
sg15
g16
sg17
I0
sg18
I42
sg19
g20
sg21
I01
sg22
I43
sa(dp1310
g24
I25
sg25
g26
sg35
I200
sg36
I00
sg37
I00
sg38
I01
sg39
I01
sg40
I01
sg33
I01
sasI424
(lp1311
I00
a(dp1312
g4
I30
sg5
I14
sg6
I00
sg7
I00
sg8
I00
sg9
I1
sg10
I8
sg11
I1
sg12
I11
sg13
F0.13
sg14
F0.070000000000000007
sg15
g16
sg17
I0
sg18
I48
sg19
g20
sg21
I01
sg22
I51
sa(dp1313
g24
I25
sg25
g26
sg35
I200
sg36
I00
sg37
I01
sg38
I01
sg39
I00
sg40
I01
sg33
I01
sasI425
(lp1314
I00
a(dp1315
g4
I30
sg5
I23
sg6
I00
sg7
I00
sg8
I00
sg9
I1
sg10
I8
sg11
I1
sg12
I34
sg13
F0.22
sg14
F0.070000000000000007
sg15
g16
sg17
I0
sg18
I19
sg19
g20
sg21
I01
sg22
I22
sa(dp1316
g24
I25
sg25
g26
sg35
I200
sg36
I00
sg37
I00
sg38
I01
sg39
I00
sg40
I01
sg33
I01
sasI426
(lp1317
I00
a(dp1318
g4
I30
sg5
I5
sg6
I00
sg7
I00
sg8
I00
sg9
I1
sg10
I8
sg11
I1
sg12
I67
sg13
F0.37
sg14
F0.070000000000000007
sg15
g43
sg17
I0
sg18
I67
sg19
g20
sg21
I01
sg22
I70
sa(dp1319
g24
I25
sg25
g26
sg35
I200
sg36
I00
sg37
I01
sg38
I01
sg39
I00
sg40
I01
sg33
I01
sasI427
(lp1320
I00
a(dp1321
g4
I30
sg5
I5
sg6
I00
sg7
I00
sg8
I00
sg9
I1
sg10
I8
sg11
I1
sg12
I74
sg13
F0.14999999999999999
sg14
F0.070000000000000007
sg15
g16
sg17
I0
sg18
I22
sg19
g20
sg21
I01
sg22
I34
sa(dp1322
g24
I25
sg25
g26
sg35
I200
sg36
I00
sg37
I01
sg38
I01
sg39
I01
sg40
I01
sg33
I01
sasI428
(lp1323
I00
a(dp1324
g4
I30
sg5
I34
sg6
I00
sg7
I00
sg8
I00
sg9
I2
sg10
I8
sg11
I1
sg12
I17
sg13
F0.20999999999999999
sg14
F0.070000000000000007
sg15
g16
sg17
I0
sg18
I47
sg19
g20
sg21
I01
sg22
I114
sa(dp1325
g24
I25
sg25
g26
sg35
I200
sg36
I00
sg37
I00
sg38
I01
sg39
I01
sg40
I01
sg33
I01
sasI429
(lp1326
I00
a(dp1327
g4
I30
sg5
I18
sg6
I00
sg7
I00
sg8
I00
sg9
I2
sg10
I8
sg11
I1
sg12
I26
sg13
F0.10000000000000001
sg14
F0.070000000000000007
sg15
g16
sg17
I0
sg18
I13
sg19
g20
sg21
I01
sg22
I88
sa(dp1328
g24
I25
sg25
g26
sg35
I200
sg36
I00
sg37
I01
sg38
I01
sg39
I00
sg40
I01
sg33
I01
sasI430
(lp1329
I00
a(dp1330
g4
I30
sg5
I15
sg6
I00
sg7
I00
sg8
I00
sg9
I1
sg10
I8
sg11
I1
sg12
I33
sg13
F0.11
sg14
F0.070000000000000007
sg15
g16
sg17
I0
sg18
I21
sg19
g20
sg21
I01
sg22
I22
sa(dp1331
g24
I25
sg25
g26
sg35
I200
sg36
I00
sg37
I00
sg38
I01
sg39
I00
sg40
I01
sg33
I01
sasI431
(lp1332
I00
a(dp1333
g4
I30
sg5
I5
sg6
I00
sg7
I00
sg8
I00
sg9
I1
sg10
I8
sg11
I1
sg12
I36
sg13
F0.33000000000000002
sg14
F0.070000000000000007
sg15
g43
sg17
I0
sg18
I15
sg19
g20
sg21
I01
sg22
I43
sa(dp1334
g24
I25
sg25
g26
sg35
I200
sg36
I00
sg37
I00
sg38
I01
sg39
I00
sg40
I01
sg33
I01
sasI432
(lp1335
I00
a(dp1336
g4
I30
sg5
I25
sg6
I00
sg7
I00
sg8
I00
sg9
I1
sg10
I8
sg11
I1
sg12
I27
sg13
F0.20000000000000001
sg14
F0.070000000000000007
sg15
g43
sg17
I0
sg18
I34
sg19
g20
sg21
I01
sg22
I27
sa(dp1337
g24
I25
sg25
g26
sg35
I200
sg36
I00
sg37
I00
sg38
I01
sg39
I01
sg40
I01
sg33
I01
sasI433
(lp1338
I00
a(dp1339
g4
I30
sg5
I27
sg6
I00
sg7
I00
sg8
I00
sg9
I2
sg10
I8
sg11
I1
sg12
I72
sg13
F0.10000000000000001
sg14
F0.070000000000000007
sg15
g43
sg17
I0
sg18
I16
sg19
g20
sg21
I01
sg22
I110
sa(dp1340
g24
I25
sg25
g26
sg35
I200
sg36
I00
sg37
I01
sg38
I01
sg39
I00
sg40
I01
sg33
I01
sasI434
(lp1341
I00
a(dp1342
g4
I30
sg5
I10
sg6
I00
sg7
I00
sg8
I00
sg9
I2
sg10
I8
sg11
I1
sg12
I86
sg13
F0.35999999999999999
sg14
F0.070000000000000007
sg15
g43
sg17
I0
sg18
I10
sg19
g20
sg21
I01
sg22
I142
sa(dp1343
g24
I25
sg25
g26
sg35
I200
sg36
I00
sg37
I01
sg38
I01
sg39
I01
sg40
I01
sg33
I01
sasI435
(lp1344
I00
a(dp1345
g4
I30
sg5
I12
sg6
I00
sg7
I00
sg8
I00
sg9
I1
sg10
I8
sg11
I1
sg12
I58
sg13
F0.34999999999999998
sg14
F0.070000000000000007
sg15
g16
sg17
I0
sg18
I19
sg19
g20
sg21
I01
sg22
I60
sa(dp1346
g24
I25
sg25
g26
sg35
I200
sg36
I00
sg37
I01
sg38
I01
sg39
I00
sg40
I01
sg33
I01
sasI436
(lp1347
I00
a(dp1348
g4
I30
sg5
I10
sg6
I00
sg7
I00
sg8
I00
sg9
I1
sg10
I8
sg11
I1
sg12
I11
sg13
F0.17999999999999999
sg14
F0.070000000000000007
sg15
g43
sg17
I0
sg18
I47
sg19
g20
sg21
I01
sg22
I94
sa(dp1349
g24
I25
sg25
g26
sg35
I200
sg36
I00
sg37
I00
sg38
I01
sg39
I00
sg40
I01
sg33
I01
sasI437
(lp1350
I00
a(dp1351
g4
I30
sg5
I8
sg6
I00
sg7
I00
sg8
I00
sg9
I2
sg10
I8
sg11
I1
sg12
I32
sg13
F0.45000000000000001
sg14
F0.070000000000000007
sg15
g43
sg17
I0
sg18
I39
sg19
g20
sg21
I01
sg22
I100
sa(dp1352
g24
I25
sg25
g26
sg35
I200
sg36
I00
sg37
I00
sg38
I01
sg39
I01
sg40
I01
sg33
I01
sasI438
(lp1353
I00
a(dp1354
g4
I30
sg5
I6
sg6
I00
sg7
I00
sg8
I00
sg9
I1
sg10
I8
sg11
I1
sg12
I15
sg13
F0.14999999999999999
sg14
F0.070000000000000007
sg15
g16
sg17
I0
sg18
I18
sg19
g20
sg21
I01
sg22
I70
sa(dp1355
g24
I25
sg25
g26
sg35
I200
sg36
I00
sg37
I01
sg38
I01
sg39
I01
sg40
I01
sg33
I01
sasI439
(lp1356
I00
a(dp1357
g4
I30
sg5
I7
sg6
I00
sg7
I00
sg8
I00
sg9
I2
sg10
I8
sg11
I1
sg12
I18
sg13
F0.35999999999999999
sg14
F0.070000000000000007
sg15
g16
sg17
I0
sg18
I12
sg19
g20
sg21
I01
sg22
I112
sa(dp1358
g24
I25
sg25
g26
sg35
I200
sg36
I00
sg37
I01
sg38
I01
sg39
I00
sg40
I01
sg33
I01
sasI440
(lp1359
I00
a(dp1360
g4
I30
sg5
I7
sg6
I00
sg7
I00
sg8
I00
sg9
I1
sg10
I8
sg11
I1
sg12
I38
sg13
F0.28999999999999998
sg14
F0.070000000000000007
sg15
g16
sg17
I0
sg18
I39
sg19
g20
sg21
I01
sg22
I30
sa(dp1361
g24
I25
sg25
g26
sg35
I200
sg36
I00
sg37
I01
sg38
I01
sg39
I01
sg40
I01
sg33
I01
sasI441
(lp1362
I00
a(dp1363
g4
I30
sg5
I46
sg6
I00
sg7
I00
sg8
I00
sg9
I1
sg10
I8
sg11
I1
sg12
I99
sg13
F0.39000000000000001
sg14
F0.070000000000000007
sg15
g43
sg17
I0
sg18
I95
sg19
g20
sg21
I01
sg22
I48
sa(dp1364
g24
I25
sg25
g26
sg35
I200
sg36
I00
sg37
I01
sg38
I01
sg39
I00
sg40
I01
sg33
I01
sasI442
(lp1365
I00
a(dp1366
g4
I30
sg5
I20
sg6
I00
sg7
I00
sg8
I00
sg9
I1
sg10
I8
sg11
I1
sg12
I31
sg13
F0.39000000000000001
sg14
F0.070000000000000007
sg15
g16
sg17
I0
sg18
I87
sg19
g20
sg21
I01
sg22
I115
sa(dp1367
g24
I25
sg25
g26
sg35
I200
sg36
I00
sg37
I01
sg38
I01
sg39
I01
sg40
I01
sg33
I01
sasI443
(lp1368
I00
a(dp1369
g4
I30
sg5
I7
sg6
I00
sg7
I00
sg8
I00
sg9
I2
sg10
I8
sg11
I1
sg12
I14
sg13
F0.27000000000000002
sg14
F0.070000000000000007
sg15
g43
sg17
I0
sg18
I13
sg19
g20
sg21
I01
sg22
I37
sa(dp1370
g24
I25
sg25
g26
sg35
I200
sg36
I00
sg37
I01
sg38
I01
sg39
I01
sg40
I01
sg33
I01
sasI444
(lp1371
I00
a(dp1372
g4
I30
sg5
I40
sg6
I00
sg7
I00
sg8
I00
sg9
I1
sg10
I8
sg11
I1
sg12
I32
sg13
F0.40000000000000002
sg14
F0.070000000000000007
sg15
g43
sg17
I0
sg18
I20
sg19
g20
sg21
I01
sg22
I20
sa(dp1373
g24
I25
sg25
g26
sg35
I200
sg36
I00
sg37
I01
sg38
I01
sg39
I00
sg40
I01
sg33
I01
sasI445
(lp1374
I00
a(dp1375
g4
I30
sg5
I9
sg6
I00
sg7
I00
sg8
I00
sg9
I1
sg10
I8
sg11
I1
sg12
I91
sg13
F0.27000000000000002
sg14
F0.070000000000000007
sg15
g16
sg17
I0
sg18
I72
sg19
g20
sg21
I01
sg22
I81
sa(dp1376
g24
I25
sg25
g26
sg35
I200
sg36
I00
sg37
I00
sg38
I01
sg39
I01
sg40
I01
sg33
I01
sasI446
(lp1377
I00
a(dp1378
g4
I30
sg5
I6
sg6
I00
sg7
I00
sg8
I00
sg9
I2
sg10
I8
sg11
I1
sg12
I35
sg13
F0.25
sg14
F0.070000000000000007
sg15
g16
sg17
I0
sg18
I88
sg19
g20
sg21
I01
sg22
I68
sa(dp1379
g24
I25
sg25
g26
sg35
I200
sg36
I00
sg37
I01
sg38
I01
sg39
I00
sg40
I01
sg33
I01
sasI447
(lp1380
I00
a(dp1381
g4
I30
sg5
I36
sg6
I00
sg7
I00
sg8
I00
sg9
I1
sg10
I8
sg11
I1
sg12
I66
sg13
F0.41999999999999998
sg14
F0.070000000000000007
sg15
g43
sg17
I0
sg18
I30
sg19
g20
sg21
I01
sg22
I105
sa(dp1382
g24
I25
sg25
g26
sg35
I200
sg36
I00
sg37
I01
sg38
I01
sg39
I00
sg40
I01
sg33
I01
sasI448
(lp1383
I00
a(dp1384
g4
I30
sg5
I12
sg6
I00
sg7
I00
sg8
I00
sg9
I1
sg10
I8
sg11
I1
sg12
I19
sg13
F0.35999999999999999
sg14
F0.070000000000000007
sg15
g43
sg17
I0
sg18
I22
sg19
g20
sg21
I01
sg22
I89
sa(dp1385
g24
I25
sg25
g26
sg35
I200
sg36
I00
sg37
I00
sg38
I01
sg39
I01
sg40
I01
sg33
I01
sasI449
(lp1386
I00
a(dp1387
g4
I30
sg5
I34
sg6
I00
sg7
I00
sg8
I00
sg9
I2
sg10
I8
sg11
I1
sg12
I31
sg13
F0.29999999999999999
sg14
F0.070000000000000007
sg15
g43
sg17
I0
sg18
I88
sg19
g20
sg21
I01
sg22
I32
sa(dp1388
g24
I25
sg25
g26
sg35
I200
sg36
I00
sg37
I00
sg38
I01
sg39
I01
sg40
I01
sg33
I01
sasI450
(lp1389
I00
a(dp1390
g4
I30
sg5
I7
sg6
I00
sg7
I00
sg8
I00
sg9
I1
sg10
I8
sg11
I1
sg12
I18
sg13
F0.12
sg14
F0.070000000000000007
sg15
g16
sg17
I0
sg18
I73
sg19
g20
sg21
I01
sg22
I89
sa(dp1391
g24
I25
sg25
g26
sg35
I200
sg36
I00
sg37
I01
sg38
I01
sg39
I01
sg40
I01
sg33
I01
sasI451
(lp1392
I00
a(dp1393
g4
I30
sg5
I37
sg6
I00
sg7
I00
sg8
I00
sg9
I1
sg10
I8
sg11
I1
sg12
I99
sg13
F0.12
sg14
F0.070000000000000007
sg15
g43
sg17
I0
sg18
I14
sg19
g20
sg21
I01
sg22
I40
sa(dp1394
g24
I25
sg25
g26
sg35
I200
sg36
I00
sg37
I01
sg38
I01
sg39
I01
sg40
I01
sg33
I01
sasI452
(lp1395
I00
a(dp1396
g4
I30
sg5
I44
sg6
I00
sg7
I00
sg8
I00
sg9
I2
sg10
I8
sg11
I1
sg12
I39
sg13
F0.17000000000000001
sg14
F0.070000000000000007
sg15
g16
sg17
I0
sg18
I25
sg19
g20
sg21
I01
sg22
I35
sa(dp1397
g24
I25
sg25
g26
sg35
I200
sg36
I00
sg37
I01
sg38
I01
sg39
I01
sg40
I01
sg33
I01
sasI453
(lp1398
I00
a(dp1399
g4
I30
sg5
I18
sg6
I00
sg7
I00
sg8
I00
sg9
I1
sg10
I8
sg11
I1
sg12
I30
sg13
F0.20000000000000001
sg14
F0.070000000000000007
sg15
g16
sg17
I0
sg18
I21
sg19
g20
sg21
I01
sg22
I61
sa(dp1400
g24
I25
sg25
g26
sg35
I200
sg36
I00
sg37
I00
sg38
I01
sg39
I00
sg40
I01
sg33
I01
sasI454
(lp1401
I00
a(dp1402
g4
I30
sg5
I13
sg6
I00
sg7
I00
sg8
I00
sg9
I2
sg10
I8
sg11
I1
sg12
I74
sg13
F0.40999999999999998
sg14
F0.070000000000000007
sg15
g43
sg17
I0
sg18
I39
sg19
g20
sg21
I01
sg22
I25
sa(dp1403
g24
I25
sg25
g26
sg35
I200
sg36
I00
sg37
I00
sg38
I01
sg39
I00
sg40
I01
sg33
I01
sasI455
(lp1404
I00
a(dp1405
g4
I30
sg5
I5
sg6
I00
sg7
I00
sg8
I00
sg9
I2
sg10
I8
sg11
I1
sg12
I64
sg13
F0.10000000000000001
sg14
F0.070000000000000007
sg15
g16
sg17
I0
sg18
I23
sg19
g20
sg21
I01
sg22
I27
sa(dp1406
g24
I25
sg25
g26
sg35
I200
sg36
I00
sg37
I00
sg38
I01
sg39
I00
sg40
I01
sg33
I01
sasI456
(lp1407
I00
a(dp1408
g4
I30
sg5
I12
sg6
I00
sg7
I00
sg8
I00
sg9
I1
sg10
I8
sg11
I1
sg12
I35
sg13
F0.12
sg14
F0.070000000000000007
sg15
g43
sg17
I0
sg18
I51
sg19
g20
sg21
I01
sg22
I101
sa(dp1409
g24
I25
sg25
g26
sg35
I200
sg36
I00
sg37
I01
sg38
I01
sg39
I00
sg40
I01
sg33
I01
sasI457
(lp1410
I00
a(dp1411
g4
I30
sg5
I39
sg6
I00
sg7
I00
sg8
I00
sg9
I2
sg10
I8
sg11
I1
sg12
I25
sg13
F0.14000000000000001
sg14
F0.070000000000000007
sg15
g43
sg17
I0
sg18
I43
sg19
g20
sg21
I01
sg22
I21
sa(dp1412
g24
I25
sg25
g26
sg35
I200
sg36
I00
sg37
I01
sg38
I01
sg39
I01
sg40
I01
sg33
I01
sasI458
(lp1413
I00
a(dp1414
g4
I30
sg5
I42
sg6
I00
sg7
I00
sg8
I00
sg9
I2
sg10
I8
sg11
I1
sg12
I45
sg13
F0.14999999999999999
sg14
F0.070000000000000007
sg15
g43
sg17
I0
sg18
I13
sg19
g20
sg21
I01
sg22
I24
sa(dp1415
g24
I25
sg25
g26
sg35
I200
sg36
I00
sg37
I00
sg38
I01
sg39
I01
sg40
I01
sg33
I01
sasI459
(lp1416
I00
a(dp1417
g4
I30
sg5
I36
sg6
I00
sg7
I00
sg8
I00
sg9
I2
sg10
I8
sg11
I1
sg12
I61
sg13
F0.20000000000000001
sg14
F0.070000000000000007
sg15
g16
sg17
I0
sg18
I33
sg19
g20
sg21
I01
sg22
I48
sa(dp1418
g24
I25
sg25
g26
sg35
I200
sg36
I00
sg37
I00
sg38
I01
sg39
I01
sg40
I01
sg33
I01
sasI460
(lp1419
I00
a(dp1420
g4
I30
sg5
I38
sg6
I00
sg7
I00
sg8
I00
sg9
I1
sg10
I8
sg11
I1
sg12
I31
sg13
F0.23000000000000001
sg14
F0.070000000000000007
sg15
g43
sg17
I0
sg18
I99
sg19
g20
sg21
I01
sg22
I41
sa(dp1421
g24
I25
sg25
g26
sg35
I200
sg36
I00
sg37
I00
sg38
I01
sg39
I01
sg40
I01
sg33
I01
sasI461
(lp1422
I00
a(dp1423
g4
I30
sg5
I13
sg6
I00
sg7
I00
sg8
I00
sg9
I1
sg10
I8
sg11
I1
sg12
I13
sg13
F0.17000000000000001
sg14
F0.070000000000000007
sg15
g16
sg17
I0
sg18
I10
sg19
g20
sg21
I01
sg22
I24
sa(dp1424
g24
I25
sg25
g26
sg35
I200
sg36
I00
sg37
I01
sg38
I01
sg39
I00
sg40
I01
sg33
I01
sasI462
(lp1425
I00
a(dp1426
g4
I30
sg5
I30
sg6
I00
sg7
I00
sg8
I00
sg9
I1
sg10
I8
sg11
I1
sg12
I21
sg13
F0.13
sg14
F0.070000000000000007
sg15
g16
sg17
I0
sg18
I24
sg19
g20
sg21
I01
sg22
I97
sa(dp1427
g24
I25
sg25
g26
sg35
I200
sg36
I00
sg37
I00
sg38
I01
sg39
I01
sg40
I01
sg33
I01
sasI463
(lp1428
I00
a(dp1429
g4
I30
sg5
I14
sg6
I00
sg7
I00
sg8
I00
sg9
I1
sg10
I8
sg11
I1
sg12
I41
sg13
F0.14999999999999999
sg14
F0.070000000000000007
sg15
g43
sg17
I0
sg18
I26
sg19
g20
sg21
I01
sg22
I22
sa(dp1430
g24
I25
sg25
g26
sg35
I200
sg36
I00
sg37
I01
sg38
I01
sg39
I01
sg40
I01
sg33
I01
sasI464
(lp1431
I00
a(dp1432
g4
I30
sg5
I7
sg6
I00
sg7
I00
sg8
I00
sg9
I2
sg10
I8
sg11
I1
sg12
I63
sg13
F0.22
sg14
F0.070000000000000007
sg15
g43
sg17
I0
sg18
I18
sg19
g20
sg21
I01
sg22
I49
sa(dp1433
g24
I25
sg25
g26
sg35
I200
sg36
I00
sg37
I00
sg38
I01
sg39
I00
sg40
I01
sg33
I01
sasI465
(lp1434
I00
a(dp1435
g4
I30
sg5
I13
sg6
I00
sg7
I00
sg8
I00
sg9
I2
sg10
I8
sg11
I1
sg12
I30
sg13
F0.26000000000000001
sg14
F0.070000000000000007
sg15
g16
sg17
I0
sg18
I13
sg19
g20
sg21
I01
sg22
I45
sa(dp1436
g24
I25
sg25
g26
sg35
I200
sg36
I00
sg37
I01
sg38
I01
sg39
I00
sg40
I01
sg33
I01
sasI466
(lp1437
I00
a(dp1438
g4
I30
sg5
I9
sg6
I00
sg7
I00
sg8
I00
sg9
I1
sg10
I8
sg11
I1
sg12
I16
sg13
F0.47999999999999998
sg14
F0.070000000000000007
sg15
g16
sg17
I0
sg18
I74
sg19
g20
sg21
I01
sg22
I112
sa(dp1439
g24
I25
sg25
g26
sg35
I200
sg36
I00
sg37
I01
sg38
I01
sg39
I00
sg40
I01
sg33
I01
sasI467
(lp1440
I00
a(dp1441
g4
I30
sg5
I13
sg6
I00
sg7
I00
sg8
I00
sg9
I1
sg10
I8
sg11
I1
sg12
I35
sg13
F0.35999999999999999
sg14
F0.070000000000000007
sg15
g43
sg17
I0
sg18
I10
sg19
g20
sg21
I01
sg22
I103
sa(dp1442
g24
I25
sg25
g26
sg35
I200
sg36
I00
sg37
I01
sg38
I01
sg39
I01
sg40
I01
sg33
I01
sasI468
(lp1443
I00
a(dp1444
g4
I30
sg5
I14
sg6
I00
sg7
I00
sg8
I00
sg9
I2
sg10
I8
sg11
I1
sg12
I26
sg13
F0.17999999999999999
sg14
F0.070000000000000007
sg15
g43
sg17
I0
sg18
I79
sg19
g20
sg21
I01
sg22
I70
sa(dp1445
g24
I25
sg25
g26
sg35
I200
sg36
I00
sg37
I01
sg38
I01
sg39
I01
sg40
I01
sg33
I01
sasI469
(lp1446
I00
a(dp1447
g4
I30
sg5
I22
sg6
I00
sg7
I00
sg8
I00
sg9
I1
sg10
I8
sg11
I1
sg12
I55
sg13
F0.27000000000000002
sg14
F0.070000000000000007
sg15
g43
sg17
I0
sg18
I46
sg19
g20
sg21
I01
sg22
I22
sa(dp1448
g24
I25
sg25
g26
sg35
I200
sg36
I00
sg37
I00
sg38
I01
sg39
I00
sg40
I01
sg33
I01
sasI470
(lp1449
I00
a(dp1450
g4
I30
sg5
I28
sg6
I00
sg7
I00
sg8
I00
sg9
I1
sg10
I8
sg11
I1
sg12
I19
sg13
F0.19
sg14
F0.070000000000000007
sg15
g16
sg17
I0
sg18
I39
sg19
g20
sg21
I01
sg22
I107
sa(dp1451
g24
I25
sg25
g26
sg35
I200
sg36
I00
sg37
I01
sg38
I01
sg39
I01
sg40
I01
sg33
I01
sasI471
(lp1452
I00
a(dp1453
g4
I30
sg5
I15
sg6
I00
sg7
I00
sg8
I00
sg9
I1
sg10
I8
sg11
I1
sg12
I33
sg13
F0.14000000000000001
sg14
F0.070000000000000007
sg15
g43
sg17
I0
sg18
I18
sg19
g20
sg21
I01
sg22
I32
sa(dp1454
g24
I25
sg25
g26
sg35
I200
sg36
I00
sg37
I01
sg38
I01
sg39
I01
sg40
I01
sg33
I01
sasI472
(lp1455
I00
a(dp1456
g4
I30
sg5
I42
sg6
I00
sg7
I00
sg8
I00
sg9
I1
sg10
I8
sg11
I1
sg12
I99
sg13
F0.40999999999999998
sg14
F0.070000000000000007
sg15
g16
sg17
I0
sg18
I17
sg19
g20
sg21
I01
sg22
I44
sa(dp1457
g24
I25
sg25
g26
sg35
I200
sg36
I00
sg37
I01
sg38
I01
sg39
I00
sg40
I01
sg33
I01
sasI473
(lp1458
I00
a(dp1459
g4
I30
sg5
I32
sg6
I00
sg7
I00
sg8
I00
sg9
I2
sg10
I8
sg11
I1
sg12
I24
sg13
F0.31
sg14
F0.070000000000000007
sg15
g43
sg17
I0
sg18
I35
sg19
g20
sg21
I01
sg22
I33
sa(dp1460
g24
I25
sg25
g26
sg35
I200
sg36
I00
sg37
I00
sg38
I01
sg39
I00
sg40
I01
sg33
I01
sasI474
(lp1461
I00
a(dp1462
g4
I30
sg5
I10
sg6
I00
sg7
I00
sg8
I00
sg9
I1
sg10
I8
sg11
I1
sg12
I63
sg13
F0.26000000000000001
sg14
F0.070000000000000007
sg15
g43
sg17
I0
sg18
I46
sg19
g20
sg21
I01
sg22
I22
sa(dp1463
g24
I25
sg25
g26
sg35
I200
sg36
I00
sg37
I00
sg38
I01
sg39
I00
sg40
I01
sg33
I01
sasI475
(lp1464
I00
a(dp1465
g4
I30
sg5
I9
sg6
I00
sg7
I00
sg8
I00
sg9
I1
sg10
I8
sg11
I1
sg12
I91
sg13
F0.44
sg14
F0.070000000000000007
sg15
g43
sg17
I0
sg18
I17
sg19
g20
sg21
I01
sg22
I109
sa(dp1466
g24
I25
sg25
g26
sg35
I200
sg36
I00
sg37
I01
sg38
I01
sg39
I00
sg40
I01
sg33
I01
sasI476
(lp1467
I00
a(dp1468
g4
I30
sg5
I12
sg6
I00
sg7
I00
sg8
I00
sg9
I1
sg10
I8
sg11
I1
sg12
I69
sg13
F0.38
sg14
F0.070000000000000007
sg15
g43
sg17
I0
sg18
I96
sg19
g20
sg21
I01
sg22
I36
sa(dp1469
g24
I25
sg25
g26
sg35
I200
sg36
I00
sg37
I01
sg38
I01
sg39
I01
sg40
I01
sg33
I01
sasI477
(lp1470
I00
a(dp1471
g4
I30
sg5
I7
sg6
I00
sg7
I00
sg8
I00
sg9
I2
sg10
I8
sg11
I1
sg12
I17
sg13
F0.40000000000000002
sg14
F0.070000000000000007
sg15
g16
sg17
I0
sg18
I62
sg19
g20
sg21
I01
sg22
I133
sa(dp1472
g24
I25
sg25
g26
sg35
I200
sg36
I00
sg37
I00
sg38
I01
sg39
I01
sg40
I01
sg33
I01
sasI478
(lp1473
I00
a(dp1474
g4
I30
sg5
I14
sg6
I00
sg7
I00
sg8
I00
sg9
I2
sg10
I8
sg11
I1
sg12
I64
sg13
F0.28000000000000003
sg14
F0.070000000000000007
sg15
g43
sg17
I0
sg18
I96
sg19
g20
sg21
I01
sg22
I65
sa(dp1475
g24
I25
sg25
g26
sg35
I200
sg36
I00
sg37
I01
sg38
I01
sg39
I01
sg40
I01
sg33
I01
sasI479
(lp1476
I00
a(dp1477
g4
I30
sg5
I20
sg6
I00
sg7
I00
sg8
I00
sg9
I2
sg10
I8
sg11
I1
sg12
I26
sg13
F0.17000000000000001
sg14
F0.070000000000000007
sg15
g43
sg17
I0
sg18
I26
sg19
g20
sg21
I01
sg22
I29
sa(dp1478
g24
I25
sg25
g26
sg35
I200
sg36
I00
sg37
I00
sg38
I01
sg39
I01
sg40
I01
sg33
I01
sasI480
(lp1479
I00
a(dp1480
g4
I30
sg5
I18
sg6
I00
sg7
I00
sg8
I00
sg9
I2
sg10
I8
sg11
I1
sg12
I41
sg13
F0.13
sg14
F0.070000000000000007
sg15
g16
sg17
I0
sg18
I12
sg19
g20
sg21
I01
sg22
I75
sa(dp1481
g24
I25
sg25
g26
sg35
I200
sg36
I00
sg37
I00
sg38
I01
sg39
I01
sg40
I01
sg33
I01
sasI481
(lp1482
I00
a(dp1483
g4
I30
sg5
I6
sg6
I00
sg7
I00
sg8
I00
sg9
I1
sg10
I8
sg11
I1
sg12
I43
sg13
F0.22
sg14
F0.070000000000000007
sg15
g16
sg17
I0
sg18
I56
sg19
g20
sg21
I01
sg22
I39
sa(dp1484
g24
I25
sg25
g26
sg35
I200
sg36
I00
sg37
I01
sg38
I01
sg39
I00
sg40
I01
sg33
I01
sasI482
(lp1485
I00
a(dp1486
g4
I30
sg5
I26
sg6
I00
sg7
I00
sg8
I00
sg9
I2
sg10
I8
sg11
I1
sg12
I24
sg13
F0.23000000000000001
sg14
F0.070000000000000007
sg15
g16
sg17
I0
sg18
I20
sg19
g20
sg21
I01
sg22
I20
sa(dp1487
g24
I25
sg25
g26
sg35
I200
sg36
I00
sg37
I00
sg38
I01
sg39
I00
sg40
I01
sg33
I01
sasI483
(lp1488
I00
a(dp1489
g4
I30
sg5
I22
sg6
I00
sg7
I00
sg8
I00
sg9
I1
sg10
I8
sg11
I1
sg12
I73
sg13
F0.12
sg14
F0.070000000000000007
sg15
g16
sg17
I0
sg18
I25
sg19
g20
sg21
I01
sg22
I21
sa(dp1490
g24
I25
sg25
g26
sg35
I200
sg36
I00
sg37
I01
sg38
I01
sg39
I00
sg40
I01
sg33
I01
sasI484
(lp1491
I00
a(dp1492
g4
I30
sg5
I9
sg6
I00
sg7
I00
sg8
I00
sg9
I2
sg10
I8
sg11
I1
sg12
I30
sg13
F0.20999999999999999
sg14
F0.070000000000000007
sg15
g16
sg17
I0
sg18
I27
sg19
g20
sg21
I01
sg22
I55
sa(dp1493
g24
I25
sg25
g26
sg35
I200
sg36
I00
sg37
I00
sg38
I01
sg39
I00
sg40
I01
sg33
I01
sasI485
(lp1494
I00
a(dp1495
g4
I30
sg5
I16
sg6
I00
sg7
I00
sg8
I00
sg9
I1
sg10
I8
sg11
I1
sg12
I36
sg13
F0.33000000000000002
sg14
F0.070000000000000007
sg15
g43
sg17
I0
sg18
I51
sg19
g20
sg21
I01
sg22
I56
sa(dp1496
g24
I25
sg25
g26
sg35
I200
sg36
I00
sg37
I00
sg38
I01
sg39
I01
sg40
I01
sg33
I01
sasI486
(lp1497
I00
a(dp1498
g4
I30
sg5
I45
sg6
I00
sg7
I00
sg8
I00
sg9
I2
sg10
I8
sg11
I1
sg12
I90
sg13
F0.41999999999999998
sg14
F0.070000000000000007
sg15
g43
sg17
I0
sg18
I78
sg19
g20
sg21
I01
sg22
I22
sa(dp1499
g24
I25
sg25
g26
sg35
I200
sg36
I00
sg37
I01
sg38
I01
sg39
I00
sg40
I01
sg33
I01
sasI487
(lp1500
I00
a(dp1501
g4
I30
sg5
I5
sg6
I00
sg7
I00
sg8
I00
sg9
I1
sg10
I8
sg11
I1
sg12
I51
sg13
F0.13
sg14
F0.070000000000000007
sg15
g16
sg17
I0
sg18
I27
sg19
g20
sg21
I01
sg22
I50
sa(dp1502
g24
I25
sg25
g26
sg35
I200
sg36
I00
sg37
I00
sg38
I01
sg39
I01
sg40
I01
sg33
I01
sasI488
(lp1503
I00
a(dp1504
g4
I30
sg5
I42
sg6
I00
sg7
I00
sg8
I00
sg9
I1
sg10
I8
sg11
I1
sg12
I34
sg13
F0.26000000000000001
sg14
F0.070000000000000007
sg15
g43
sg17
I0
sg18
I15
sg19
g20
sg21
I01
sg22
I125
sa(dp1505
g24
I25
sg25
g26
sg35
I200
sg36
I00
sg37
I00
sg38
I01
sg39
I01
sg40
I01
sg33
I01
sasI489
(lp1506
I00
a(dp1507
g4
I30
sg5
I28
sg6
I00
sg7
I00
sg8
I00
sg9
I1
sg10
I8
sg11
I1
sg12
I40
sg13
F0.46000000000000002
sg14
F0.070000000000000007
sg15
g43
sg17
I0
sg18
I28
sg19
g20
sg21
I01
sg22
I112
sa(dp1508
g24
I25
sg25
g26
sg35
I200
sg36
I00
sg37
I01
sg38
I01
sg39
I01
sg40
I01
sg33
I01
sasI490
(lp1509
I00
a(dp1510
g4
I30
sg5
I21
sg6
I00
sg7
I00
sg8
I00
sg9
I1
sg10
I8
sg11
I1
sg12
I14
sg13
F0.12
sg14
F0.070000000000000007
sg15
g43
sg17
I0
sg18
I66
sg19
g20
sg21
I01
sg22
I26
sa(dp1511
g24
I25
sg25
g26
sg35
I200
sg36
I00
sg37
I01
sg38
I01
sg39
I01
sg40
I01
sg33
I01
sasI491
(lp1512
I00
a(dp1513
g4
I30
sg5
I11
sg6
I00
sg7
I00
sg8
I00
sg9
I1
sg10
I8
sg11
I1
sg12
I77
sg13
F0.23000000000000001
sg14
F0.070000000000000007
sg15
g43
sg17
I0
sg18
I54
sg19
g20
sg21
I01
sg22
I40
sa(dp1514
g24
I25
sg25
g26
sg35
I200
sg36
I00
sg37
I00
sg38
I01
sg39
I00
sg40
I01
sg33
I01
sasI492
(lp1515
I00
a(dp1516
g4
I30
sg5
I18
sg6
I00
sg7
I00
sg8
I00
sg9
I1
sg10
I8
sg11
I1
sg12
I12
sg13
F0.11
sg14
F0.070000000000000007
sg15
g43
sg17
I0
sg18
I28
sg19
g20
sg21
I01
sg22
I130
sa(dp1517
g24
I25
sg25
g26
sg35
I200
sg36
I00
sg37
I01
sg38
I01
sg39
I00
sg40
I01
sg33
I01
sasI493
(lp1518
I00
a(dp1519
g4
I30
sg5
I36
sg6
I00
sg7
I00
sg8
I00
sg9
I2
sg10
I8
sg11
I1
sg12
I13
sg13
F0.16
sg14
F0.070000000000000007
sg15
g43
sg17
I0
sg18
I22
sg19
g20
sg21
I01
sg22
I29
sa(dp1520
g24
I25
sg25
g26
sg35
I200
sg36
I00
sg37
I00
sg38
I01
sg39
I00
sg40
I01
sg33
I01
sasI494
(lp1521
I00
a(dp1522
g4
I30
sg5
I31
sg6
I00
sg7
I00
sg8
I00
sg9
I2
sg10
I8
sg11
I1
sg12
I86
sg13
F0.28999999999999998
sg14
F0.070000000000000007
sg15
g16
sg17
I0
sg18
I46
sg19
g20
sg21
I01
sg22
I37
sa(dp1523
g24
I25
sg25
g26
sg35
I200
sg36
I00
sg37
I00
sg38
I01
sg39
I01
sg40
I01
sg33
I01
sasI495
(lp1524
I00
a(dp1525
g4
I30
sg5
I6
sg6
I00
sg7
I00
sg8
I00
sg9
I1
sg10
I8
sg11
I1
sg12
I35
sg13
F0.44
sg14
F0.070000000000000007
sg15
g43
sg17
I0
sg18
I52
sg19
g20
sg21
I01
sg22
I55
sa(dp1526
g24
I25
sg25
g26
sg35
I200
sg36
I00
sg37
I00
sg38
I01
sg39
I00
sg40
I01
sg33
I01
sasI496
(lp1527
I00
a(dp1528
g4
I30
sg5
I6
sg6
I00
sg7
I00
sg8
I00
sg9
I1
sg10
I8
sg11
I1
sg12
I19
sg13
F0.14000000000000001
sg14
F0.070000000000000007
sg15
g16
sg17
I0
sg18
I19
sg19
g20
sg21
I01
sg22
I35
sa(dp1529
g24
I25
sg25
g26
sg35
I200
sg36
I00
sg37
I00
sg38
I01
sg39
I01
sg40
I01
sg33
I01
sasI497
(lp1530
I00
a(dp1531
g4
I30
sg5
I7
sg6
I00
sg7
I00
sg8
I00
sg9
I1
sg10
I8
sg11
I1
sg12
I18
sg13
F0.40999999999999998
sg14
F0.070000000000000007
sg15
g16
sg17
I0
sg18
I26
sg19
g20
sg21
I01
sg22
I20
sa(dp1532
g24
I25
sg25
g26
sg35
I200
sg36
I00
sg37
I01
sg38
I01
sg39
I01
sg40
I01
sg33
I01
sasI498
(lp1533
I00
a(dp1534
g4
I30
sg5
I8
sg6
I00
sg7
I00
sg8
I00
sg9
I2
sg10
I8
sg11
I1
sg12
I18
sg13
F0.34000000000000002
sg14
F0.070000000000000007
sg15
g16
sg17
I0
sg18
I24
sg19
g20
sg21
I01
sg22
I24
sa(dp1535
g24
I25
sg25
g26
sg35
I200
sg36
I00
sg37
I00
sg38
I01
sg39
I00
sg40
I01
sg33
I01
sasI499
(lp1536
I00
a(dp1537
g4
I30
sg5
I18
sg6
I00
sg7
I00
sg8
I00
sg9
I1
sg10
I8
sg11
I1
sg12
I14
sg13
F0.14000000000000001
sg14
F0.070000000000000007
sg15
g43
sg17
I0
sg18
I60
sg19
g20
sg21
I01
sg22
I62
sa(dp1538
g24
I25
sg25
g26
sg35
I200
sg36
I00
sg37
I01
sg38
I01
sg39
I01
sg40
I01
sg33
I01
sas.