(dp0
S'89_False_True_154_51_all_False_390_relu_0.596_False_37_relu_0.016_adagrad_1.392_222_39'
p1
I00
sS'76_False_False_465_71_compact_False_432_relu_0.425_False_86_relu_0.36_adagrad_1.824_137_81'
p2
I00
sS'47_False_False_361_63_compact_False_377_relu_0.204_True_107_relu_0.383_adagrad_0.679_235_83'
p3
I00
sS'5_False_True_185_51_all_False_287_relu_0.302_True_71_relu_0.01_adagrad_1.977_30_39'
p4
I00
sS'6_False_True_478_43_frequent_False_334_relu_0.047_False_36_relu_0.004_adagrad_1.336_255_61'
p5
I00
sS'66_False_False_431_182_frequent_False_83_relu_0.53_True_61_relu_0.159_adagrad_0.413_178_35'
p6
I00
sS'32_True_True_477_174_compact_False_287_relu_0.458_True_96_relu_0.401_adagrad_0.622_119_86'
p7
I00
sS'76_True_False_189_80_all_False_486_relu_0.213_False_29_relu_0.599_adagrad_1.127_251_56'
p8
I00
sS'33_False_True_158_181_all_True_31_relu_0.466_False_121_relu_0.519_adagrad_1.338_117_72'
p9
I00
sS'94_False_True_257_129_frequent_False_121_relu_0.139_False_108_relu_0.532_adagrad_1.687_113_42'
p10
I00
sS'4_False_True_493_109_compact_False_134_relu_0.598_True_51_relu_0.216_adagrad_1.977_150_46'
p11
I00
sS'95_False_True_23_118_frequent_False_427_relu_0.522_False_114_relu_0.549_adagrad_0.327_47_51'
p12
I00
sS'52_True_True_147_125_frequent_False_253_relu_0.264_True_30_relu_0.065_adagrad_0.477_43_54'
p13
I00
sS'59_True_True_318_101_all_True_449_relu_0.222_True_63_relu_0.133_adagrad_1.21_156_70'
p14
I00
sS'42_True_True_188_45_frequent_False_509_relu_0.505_True_31_relu_0.508_adagrad_0.809_181_74'
p15
I00
sS'26_True_False_107_127_frequent_True_153_relu_0.213_True_64_relu_0.075_adagrad_0.705_159_43'
p16
I00
sS'42_True_False_453_46_all_True_318_relu_0.297_False_12_relu_0.238_adagrad_1.251_151_42'
p17
I00
sS'16_False_False_355_168_compact_True_455_relu_0.527_True_121_relu_0.341_adagrad_0.148_201_43'
p18
I00
sS'81_False_True_426_93_compact_True_470_relu_0.177_False_63_relu_0.181_adagrad_0.885_59_98'
p19
I00
sS'24_False_False_316_100_frequent_False_19_relu_0.262_True_122_relu_0.268_adagrad_1.831_197_79'
p20
I00
sS'70_False_False_372_193_all_False_75_relu_0.189_True_5_relu_0.424_adagrad_1.056_57_88'
p21
I00
sS'44_False_True_229_125_compact_False_452_relu_0.547_True_122_relu_0.194_adagrad_0.594_70_69'
p22
I00
sS'50_True_False_367_93_frequent_False_288_relu_0.418_False_22_relu_0.513_adagrad_1.988_145_47'
p23
I00
sS'8_False_False_478_152_frequent_False_222_relu_0.419_True_14_relu_0.529_adagrad_1.446_217_36'
p24
S'-'
p25
sS'50_True_True_93_23_all_True_447_relu_0.518_True_95_relu_0.321_adagrad_1.357_179_44'
p26
I00
sS'97_True_False_175_37_compact_True_74_relu_0.267_False_96_relu_0.049_adagrad_1.234_206_95'
p27
I00
sS'29_True_False_204_92_all_True_107_relu_0.115_False_122_relu_0.578_adagrad_1.514_136_71'
p28
I00
sS'63_True_True_393_8_frequent_True_169_relu_0.436_True_50_relu_0.012_adagrad_1.426_221_33'
p29
I00
sS'22_True_True_290_34_compact_True_36_relu_0.251_False_35_relu_0.122_adagrad_1.666_187_37'
p30
I00
sS'49_True_True_45_60_all_True_441_relu_0.522_False_84_relu_0.097_adagrad_0.806_196_48'
p31
I00
sS'85_True_False_360_21_all_True_351_relu_0.162_True_123_relu_0.374_adagrad_0.086_226_72'
p32
I00
sS'83_False_False_122_18_frequent_True_179_relu_0.076_True_67_relu_0.404_adagrad_1.503_131_72'
p33
I00
sS'65_True_True_142_98_frequent_True_436_relu_0.383_True_84_relu_0.599_adagrad_0.275_234_58'
p34
I00
sS'34_True_True_323_72_frequent_True_115_relu_0.438_False_120_relu_0.19_adagrad_1.72_190_30'
p35
I00
sS'85_False_False_470_58_compact_False_206_relu_0.346_False_100_relu_0.475_adagrad_1.3_88_83'
p36
I00
sS'21_False_True_363_117_compact_False_216_relu_0.281_False_101_relu_0.07_adagrad_0.855_254_86'
p37
I00
sS'2_False_False_386_145_frequent_True_382_relu_0.0_False_65_relu_0.479_adagrad_0.829_131_90'
p38
I00
sS'70_False_True_403_27_all_True_278_relu_0.074_False_23_relu_0.336_adagrad_0.147_198_35'
p39
I00
sS'70_False_False_47_95_frequent_True_28_relu_0.56_True_108_relu_0.265_adagrad_1.754_202_67'
p40
I00
sS'34_True_False_496_193_frequent_True_367_relu_0.006_True_83_relu_0.49_adagrad_1.988_97_37'
p41
I00
sS'62_False_False_417_161_all_True_205_relu_0.196_False_17_relu_0.333_adagrad_0.79_107_42'
p42
I00
sS'0_True_True_188_66_compact_False_476_relu_0.095_True_28_relu_0.394_adagrad_1.006_67_32'
p43
I00
sS'5_False_True_345_96_frequent_False_159_relu_0.483_False_51_relu_0.055_adagrad_0.636_112_67'
p44
I00
sS'17_True_True_184_24_all_True_146_relu_0.304_True_92_relu_0.203_adagrad_0.974_60_90'
p45
I00
sS'57_False_True_171_65_frequent_True_173_relu_0.075_False_7_relu_0.109_adagrad_0.734_52_98'
p46
I00
sS'93_True_False_164_89_compact_False_507_relu_0.464_True_83_relu_0.052_adagrad_0.088_136_87'
p47
I00
sS'40_True_True_24_129_all_True_158_relu_0.214_False_54_relu_0.074_adagrad_0.067_173_97'
p48
I00
sS'47_False_False_443_138_all_True_82_relu_0.559_False_40_relu_0.448_adagrad_1.162_189_41'
p49
I00
sS'81_True_True_64_76_compact_True_401_relu_0.309_True_63_relu_0.131_adagrad_1.364_92_40'
p50
I00
sS'68_False_True_23_175_compact_False_49_relu_0.222_False_0_relu_0.392_adagrad_1.336_250_93'
p51
I00
sS'36_False_False_322_69_compact_True_90_relu_0.429_False_89_relu_0.517_adagrad_1.014_84_78'
p52
I00
sS'46_True_True_426_91_frequent_True_410_relu_0.199_False_109_relu_0.511_adagrad_0.91_107_79'
p53
I00
sS'57_True_False_66_96_all_True_301_relu_0.165_True_53_relu_0.5_adagrad_1.169_201_72'
p54
I00
sS'72_True_False_267_24_all_False_247_relu_0.077_True_75_relu_0.552_adagrad_0.894_166_61'
p55
I00
sS'2_False_False_304_171_compact_False_119_relu_0.492_False_86_relu_0.492_adagrad_0.755_85_40'
p56
I00
sS'43_False_True_156_98_compact_True_21_relu_0.464_True_94_relu_0.366_adagrad_1.813_94_51'
p57
I00
sS'42_True_False_289_42_all_False_12_relu_0.26_False_19_relu_0.524_adagrad_1.132_86_84'
p58
I00
sS'71_False_True_494_186_frequent_True_93_relu_0.142_True_20_relu_0.322_adagrad_0.377_252_98'
p59
I00
sS'8_True_True_453_113_compact_True_44_relu_0.277_False_33_relu_0.081_adagrad_0.081_234_40'
p60
I00
sS'47_False_False_136_144_all_False_473_relu_0.045_True_41_relu_0.12_adagrad_0.772_227_73'
p61
I00
sS'40_False_True_216_21_frequent_False_12_relu_0.479_False_12_relu_0.294_adagrad_1.86_173_64'
p62
I00
sS'82_False_True_53_180_all_False_206_relu_0.589_True_59_relu_0.541_adagrad_0.28_125_48'
p63
I00
sS'78_False_False_32_56_all_False_440_relu_0.134_False_16_relu_0.266_adagrad_1.3_145_96'
p64
I00
sS'8_False_True_484_186_all_True_21_relu_0.559_True_46_relu_0.093_adagrad_0.858_187_55'
p65
I00
sS'79_False_True_134_26_frequent_True_27_relu_0.292_True_60_relu_0.269_adagrad_1.034_249_86'
p66
I00
sS'30_True_True_378_123_frequent_True_339_relu_0.568_True_5_relu_0.428_adagrad_0.138_78_51'
p67
I00
sS'53_False_True_358_48_all_False_445_relu_0.146_False_113_relu_0.252_adagrad_0.648_223_60'
p68
I00
sS'91_True_True_250_132_frequent_False_60_relu_0.427_False_62_relu_0.51_adagrad_0.202_151_53'
p69
I00
sS'95_True_True_461_190_compact_True_478_relu_0.233_True_78_relu_0.596_adagrad_1.281_158_53'
p70
I00
sS'51_False_False_109_22_all_False_39_relu_0.377_False_58_relu_0.217_adagrad_1.382_139_46'
p71
I00
sS'48_True_True_90_140_compact_False_239_relu_0.174_False_74_relu_0.361_adagrad_1.32_71_92'
p72
I00
sS'66_True_False_76_29_all_True_442_relu_0.306_False_5_relu_0.182_adagrad_0.766_38_43'
p73
I00
sS'75_False_False_382_14_all_True_33_relu_0.447_False_32_relu_0.519_adagrad_1.913_109_75'
p74
I00
sS'44_False_False_324_40_all_False_408_relu_0.319_True_57_relu_0.598_adagrad_0.407_155_84'
p75
I00
sS'80_True_True_210_173_all_True_39_relu_0.003_True_79_relu_0.021_adagrad_0.714_170_30'
p76
I00
sS'29_False_True_184_95_all_True_271_relu_0.291_True_47_relu_0.548_adagrad_0.87_204_69'
p77
I00
sS'37_True_True_30_178_frequent_False_64_relu_0.486_True_77_relu_0.549_adagrad_1.733_92_32'
p78
I00
sS'0_True_True_239_102_all_True_503_relu_0.499_False_29_relu_0.31_adagrad_1.223_39_55'
p79
I00
sS'10_True_True_474_10_frequent_True_148_relu_0.29_True_123_relu_0.278_adagrad_0.872_184_99'
p80
I00
sS'63_False_True_208_56_all_True_174_relu_0.042_False_24_relu_0.195_adagrad_1.553_100_76'
p81
I00
sS'55_True_False_473_17_compact_True_416_relu_0.02_False_45_relu_0.256_adagrad_1.045_48_37'
p82
I00
sS'55_True_True_132_26_compact_False_254_relu_0.532_False_107_relu_0.237_adagrad_0.066_223_91'
p83
I00
sS'49_True_False_369_130_all_False_403_relu_0.572_True_44_relu_0.173_adagrad_0.571_101_79'
p84
I00
sS'29_False_False_233_22_all_True_192_relu_0.371_False_94_relu_0.432_adagrad_1.297_40_71'
p85
I00
sS'23_True_True_201_84_compact_False_363_relu_0.377_False_23_relu_0.376_adagrad_1.501_57_97'
p86
I00
sS'73_False_True_164_177_all_True_3_relu_0.535_False_20_relu_0.252_adagrad_0.652_109_66'
p87
I00
sS'84_True_True_232_119_all_True_204_relu_0.531_False_92_relu_0.573_adagrad_0.07_176_67'
p88
I00
sS'15_False_False_183_121_all_True_423_relu_0.501_True_51_relu_0.496_adagrad_1.182_90_72'
p89
I00
sS'56_False_True_44_16_all_True_116_relu_0.155_True_75_relu_0.478_adagrad_1.486_199_70'
p90
I00
sS'23_True_False_226_71_compact_True_461_relu_0.131_False_29_relu_0.45_adagrad_1.644_170_72'
p91
I00
sS'89_False_True_497_117_frequent_False_448_relu_0.511_False_34_relu_0.044_adagrad_0.602_242_60'
p92
I00
sS'99_False_True_377_132_frequent_False_309_relu_0.099_False_5_relu_0.471_adagrad_1.332_142_79'
p93
I00
sS'37_True_True_440_180_compact_True_158_relu_0.406_True_115_relu_0.27_adagrad_1.589_98_76'
p94
I00
sS'6_False_True_244_34_all_False_252_relu_0.184_False_107_relu_0.374_adagrad_1.603_230_79'
p95
I00
sS'86_True_False_149_8_all_False_345_relu_0.14_True_20_relu_0.503_adagrad_1.293_247_78'
p96
I00
sS'94_True_False_103_21_all_True_196_relu_0.028_False_56_relu_0.178_adagrad_0.574_215_51'
p97
I00
sS'81_True_True_148_14_all_False_128_relu_0.148_False_75_relu_0.235_adagrad_0.742_107_39'
p98
I00
sS'14_True_False_335_99_all_False_286_relu_0.242_False_63_relu_0.305_adagrad_0.113_108_49'
p99
I00
sS'40_True_True_351_47_all_False_359_relu_0.268_False_92_relu_0.595_adagrad_1.634_217_73'
p100
I00
sS'41_True_True_492_115_all_False_497_relu_0.18_True_28_relu_0.111_adagrad_1.99_132_36'
p101
I00
sS'55_True_False_386_48_frequent_False_194_relu_0.495_True_127_relu_0.5_adagrad_1.112_247_84'
p102
I00
sS'19_True_True_415_149_compact_False_62_relu_0.533_False_21_relu_0.072_adagrad_0.903_92_90'
p103
I00
sS'86_False_True_104_97_compact_False_60_relu_0.165_False_104_relu_0.434_adagrad_1.943_141_84'
p104
I00
sS'68_True_False_116_183_all_True_409_relu_0.218_False_92_relu_0.308_adagrad_0.293_72_51'
p105
I00
sS'29_False_False_72_23_frequent_False_126_relu_0.387_False_84_relu_0.134_adagrad_1.476_225_78'
p106
I00
sS'71_False_False_169_93_compact_True_14_relu_0.062_True_115_relu_0.232_adagrad_1.397_141_36'
p107
I00
sS'1_True_True_139_186_frequent_False_53_relu_0.481_False_112_relu_0.465_adagrad_0.703_117_60'
p108
I00
sS'31_True_True_321_122_frequent_False_228_relu_0.452_False_85_relu_0.343_adagrad_1.473_67_57'
p109
I00
sS'99_False_False_145_103_compact_True_415_relu_0.308_True_103_relu_0.552_adagrad_0.882_182_37'
p110
I00
sS'84_True_False_480_151_compact_True_299_relu_0.513_False_104_relu_0.317_adagrad_1.384_214_56'
p111
I00
sS'52_False_False_371_109_all_False_423_relu_0.234_False_109_relu_0.593_adagrad_0.86_162_67'
p112
I00
sS'28_False_True_318_165_all_True_77_relu_0.18_True_42_relu_0.459_adagrad_0.02_227_69'
p113
I00
sS'33_True_True_77_110_frequent_True_206_relu_0.589_False_5_relu_0.255_adagrad_0.45_64_31'
p114
I00
sS'95_False_True_344_18_frequent_True_358_relu_0.017_False_53_relu_0.357_adagrad_1.292_118_55'
p115
I00
sS'87_False_True_433_35_frequent_True_296_relu_0.148_True_53_relu_0.044_adagrad_0.676_192_68'
p116
I00
sS'90_True_False_259_120_frequent_False_83_relu_0.416_True_65_relu_0.23_adagrad_1.443_64_85'
p117
I00
sS'28_False_True_335_140_all_False_256_relu_0.294_True_120_relu_0.237_adagrad_0.006_131_55'
p118
I00
sS'43_False_False_148_93_frequent_False_153_relu_0.298_True_61_relu_0.069_adagrad_1.088_64_45'
p119
I00
sS'43_False_True_303_161_compact_False_42_relu_0.535_False_46_relu_0.39_adagrad_0.589_251_33'
p120
I00
sS'90_False_False_349_113_frequent_True_31_relu_0.497_True_0_relu_0.07_adagrad_1.404_142_32'
p121
I00
sS'16_True_False_32_163_all_False_26_relu_0.531_False_101_relu_0.553_adagrad_1.494_34_45'
p122
I00
sS'14_False_True_124_117_frequent_False_303_relu_0.282_False_45_relu_0.185_adagrad_1.205_180_43'
p123
I00
sS'91_True_True_425_65_compact_True_45_relu_0.341_False_61_relu_0.321_adagrad_1.161_71_87'
p124
I00
sS'58_True_False_464_56_compact_False_461_relu_0.118_True_62_relu_0.491_adagrad_1.516_161_92'
p125
I00
sS'17_True_False_478_157_compact_False_34_relu_0.157_True_125_relu_0.336_adagrad_0.144_207_78'
p126
I00
sS'19_False_False_326_112_all_False_191_relu_0.385_False_94_relu_0.487_adagrad_1.48_39_30'
p127
I00
sS'24_True_False_202_89_frequent_False_233_relu_0.157_False_110_relu_0.535_adagrad_0.053_38_69'
p128
I00
sS'6_False_False_462_153_all_False_214_relu_0.36_False_94_relu_0.256_adagrad_0.718_98_44'
p129
I00
sS'32_True_True_44_98_all_True_302_relu_0.432_True_40_relu_0.025_adagrad_1.07_251_66'
p130
I00
sS'62_False_True_352_60_compact_False_186_relu_0.069_True_123_relu_0.29_adagrad_1.692_82_54'
p131
I00
sS'26_False_True_447_73_frequent_True_102_relu_0.406_True_69_relu_0.342_adagrad_1.965_175_45'
p132
I00
sS'12_True_True_251_27_compact_False_292_relu_0.374_True_90_relu_0.003_adagrad_1.854_68_32'
p133
I00
sS'40_True_True_29_101_all_False_368_relu_0.292_False_116_relu_0.171_adagrad_1.857_144_59'
p134
I00
sS'58_True_True_497_97_compact_False_132_relu_0.159_False_2_relu_0.443_adagrad_0.646_144_79'
p135
I00
sS'99_True_False_97_49_all_False_231_relu_0.566_False_63_relu_0.288_adagrad_0.11_41_72'
p136
I00
sS'73_True_False_203_128_compact_False_469_relu_0.213_False_29_relu_0.367_adagrad_1.883_135_50'
p137
I00
sS'59_False_False_399_62_frequent_True_65_relu_0.505_True_69_relu_0.573_adagrad_0.529_170_60'
p138
I00
sS'59_True_False_460_110_frequent_True_153_relu_0.48_True_71_relu_0.155_adagrad_0.295_89_51'
p139
I00
sS'6_False_False_343_79_compact_False_385_relu_0.388_True_64_relu_0.25_adagrad_0.894_186_92'
p140
I00
sS'32_False_False_309_66_compact_False_49_relu_0.342_False_69_relu_0.217_adagrad_0.51_41_83'
p141
I00
sS'1_True_True_301_147_frequent_False_215_relu_0.159_False_54_relu_0.299_adagrad_1.65_82_74'
p142
I00
sS'61_False_False_226_19_all_True_179_relu_0.471_False_20_relu_0.03_adagrad_0.56_110_96'
p143
I00
sS'26_False_True_41_170_compact_True_496_relu_0.116_False_40_relu_0.293_adagrad_1.984_224_71'
p144
I00
sS'30_True_False_98_170_frequent_True_189_relu_0.298_False_117_relu_0.577_adagrad_1.944_62_90'
p145
I00
sS'54_False_False_294_116_all_True_213_relu_0.134_True_93_relu_0.116_adagrad_1.401_44_58'
p146
I00
sS'82_True_False_423_147_compact_False_211_relu_0.579_False_43_relu_0.027_adagrad_1.202_34_71'
p147
I00
sS'35_True_True_272_72_frequent_True_89_relu_0.346_True_84_relu_0.346_adagrad_1.841_54_76'
p148
I00
sS'31_True_False_322_26_frequent_False_383_relu_0.502_False_45_relu_0.386_adagrad_0.526_96_45'
p149
I00
sS'15_False_False_175_172_frequent_False_207_relu_0.203_True_33_relu_0.43_adagrad_0.264_70_50'
p150
I00
sS'14_False_False_272_196_frequent_False_149_relu_0.551_False_112_relu_0.563_adagrad_1.693_178_99'
p151
I00
sS'53_False_False_455_58_frequent_False_152_relu_0.34_False_86_relu_0.126_adagrad_1.466_211_51'
p152
I00
sS'87_True_False_283_133_compact_True_468_relu_0.068_False_115_relu_0.139_adagrad_1.96_163_44'
p153
I00
sS'30_False_False_432_93_frequent_False_243_relu_0.565_True_73_relu_0.419_adagrad_1.334_121_82'
p154
I00
sS'7_False_False_414_11_compact_False_469_relu_0.254_True_75_relu_0.13_adagrad_0.744_36_64'
p155
I00
sS'27_False_False_158_37_frequent_False_214_relu_0.536_True_43_relu_0.249_adagrad_1.283_130_82'
p156
I00
sS'35_True_False_212_75_frequent_True_510_relu_0.439_False_102_relu_0.038_adagrad_1.165_205_90'
p157
I00
sS'53_False_False_457_85_all_True_484_relu_0.026_True_122_relu_0.241_adagrad_0.634_97_75'
p158
I00
sS'27_False_True_224_192_frequent_True_9_relu_0.16_True_62_relu_0.218_adagrad_1.625_137_62'
p159
I00
sS'58_False_True_278_124_frequent_False_85_relu_0.283_True_24_relu_0.285_adagrad_1.962_227_59'
p160
I00
sS'4_False_True_83_150_compact_False_63_relu_0.465_True_44_relu_0.545_adagrad_0.582_205_81'
p161
I00
sS'1_True_True_358_187_compact_False_105_relu_0.494_False_121_relu_0.39_adagrad_0.722_192_34'
p162
I00
sS'5_False_False_420_182_frequent_True_426_relu_0.594_False_94_relu_0.249_adagrad_0.21_26_64'
p163
I00
sS'72_True_True_321_138_frequent_True_464_relu_0.114_True_31_relu_0.103_adagrad_1.519_247_46'
p164
I00
sS'21_False_True_155_44_all_False_288_relu_0.406_False_126_relu_0.189_adagrad_1.443_153_96'
p165
g25
sS'34_True_False_495_172_frequent_True_182_relu_0.185_True_78_relu_0.514_adagrad_0.645_123_95'
p166
I00
sS'70_False_True_467_78_all_False_401_relu_0.019_True_2_relu_0.389_adagrad_1.589_67_45'
p167
I00
sS'76_True_False_340_92_all_True_125_relu_0.302_False_32_relu_0.251_adagrad_1.303_84_35'
p168
I00
sS'81_True_False_220_38_all_True_249_relu_0.32_True_119_relu_0.227_adagrad_0.695_225_87'
p169
I00
sS'40_True_False_271_154_compact_True_298_relu_0.212_False_119_relu_0.568_adagrad_1.816_205_86'
p170
I00
sS'36_False_True_280_143_all_False_36_relu_0.458_False_102_relu_0.57_adagrad_1.737_211_91'
p171
I00
sS'97_True_True_161_161_compact_True_214_relu_0.422_False_26_relu_0.2_adagrad_0.049_40_87'
p172
I00
sS'42_True_True_239_103_frequent_True_42_relu_0.451_True_64_relu_0.425_adagrad_0.468_163_69'
p173
I00
sS'75_False_True_443_68_frequent_True_91_relu_0.29_True_116_relu_0.455_adagrad_0.552_144_79'
p174
I00
sS'72_True_False_206_62_frequent_True_445_relu_0.461_False_17_relu_0.471_adagrad_1.003_253_91'
p175
I00
sS'46_False_False_492_85_all_True_227_relu_0.242_True_68_relu_0.491_adagrad_0.589_76_38'
p176
I00
sS'10_False_False_182_192_all_False_372_relu_0.348_True_74_relu_0.162_adagrad_1.929_151_38'
p177
I00
sS'71_False_True_219_51_compact_True_115_relu_0.108_False_108_relu_0.443_adagrad_1.625_212_93'
p178
I00
sS'32_True_True_269_195_all_False_444_relu_0.108_False_53_relu_0.102_adagrad_0.899_28_40'
p179
I00
sS'53_True_False_399_8_frequent_False_116_relu_0.226_True_90_relu_0.295_adagrad_0.794_16_98'
p180
I00
sS'86_False_False_188_169_all_True_282_relu_0.372_True_73_relu_0.279_adagrad_1.661_68_41'
p181
I00
sS'57_False_True_496_157_frequent_False_476_relu_0.135_False_125_relu_0.114_adagrad_0.746_255_42'
p182
I00
sS'34_False_False_413_64_all_True_7_relu_0.3_True_86_relu_0.011_adagrad_1.228_222_61'
p183
I00
sS'76_False_True_483_69_frequent_True_378_relu_0.53_True_40_relu_0.083_adagrad_1.062_125_87'
p184
I00
sS'43_False_True_416_43_all_False_19_relu_0.002_True_85_relu_0.516_adagrad_0.678_29_58'
p185
I00
sS'85_True_False_467_56_frequent_False_427_relu_0.13_False_100_relu_0.442_adagrad_0.319_143_59'
p186
I00
sS'19_True_False_412_145_all_True_188_relu_0.253_False_92_relu_0.288_adagrad_1.974_208_74'
p187
I00
sS'49_True_False_444_42_frequent_False_87_relu_0.137_True_25_relu_0.531_adagrad_0.165_166_73'
p188
I00
sS'85_False_False_209_76_frequent_False_455_relu_0.492_False_71_relu_0.066_adagrad_0.602_53_69'
p189
I00
sS'36_True_False_464_142_frequent_False_155_relu_0.274_False_14_relu_0.597_adagrad_0.93_151_44'
p190
I00
sS'71_False_False_271_72_frequent_True_511_relu_0.518_True_39_relu_0.152_adagrad_0.952_253_64'
p191
I00
sS'22_True_False_226_182_frequent_True_181_relu_0.182_True_16_relu_0.467_adagrad_1.516_168_98'
p192
I00
sS'51_True_True_61_17_all_False_115_relu_0.117_False_111_relu_0.221_adagrad_1.415_212_40'
p193
I00
sS'94_True_True_431_150_all_True_121_relu_0.191_True_48_relu_0.469_adagrad_1.845_28_76'
p194
I00
sS'46_False_True_432_173_compact_False_504_relu_0.118_False_59_relu_0.023_adagrad_0.867_34_59'
p195
I00
sS'63_False_False_244_53_compact_False_262_relu_0.406_True_103_relu_0.051_adagrad_1.871_85_69'
p196
I00
sS'59_True_True_30_80_all_False_169_relu_0.169_False_77_relu_0.126_adagrad_1.905_43_38'
p197
I00
sS'85_False_False_283_168_all_True_362_relu_0.402_False_61_relu_0.333_adagrad_1.623_105_53'
p198
g25
sS'69_True_False_433_7_all_False_458_relu_0.344_False_120_relu_0.234_adagrad_0.899_73_57'
p199
I00
sS'25_True_False_427_46_frequent_True_322_relu_0.299_True_39_relu_0.594_adagrad_1.441_34_75'
p200
I00
sS'48_True_False_293_155_compact_True_429_relu_0.095_True_104_relu_0.259_adagrad_1.615_127_63'
p201
I00
sS'64_True_False_187_59_compact_False_466_relu_0.408_True_64_relu_0.371_adagrad_1.58_174_49'
p202
I00
sS'52_True_True_254_80_compact_False_361_relu_0.054_True_0_relu_0.26_adagrad_0.629_170_50'
p203
I00
sS'69_True_True_179_108_compact_True_122_relu_0.291_False_18_relu_0.466_adagrad_0.49_237_93'
p204
I00
sS'95_True_False_97_49_all_True_27_relu_0.192_True_95_relu_0.516_adagrad_1.912_135_48'
p205
I00
sS'46_True_False_162_172_compact_False_217_relu_0.0_False_120_relu_0.227_adagrad_1.695_87_72'
p206
I00
sS'66_True_True_214_181_all_True_483_relu_0.26_False_9_relu_0.454_adagrad_0.672_146_61'
p207
I00
sS'48_False_True_395_44_compact_True_54_relu_0.056_True_71_relu_0.045_adagrad_1.162_119_59'
p208
I00
sS'97_False_True_56_57_frequent_True_107_relu_0.351_False_81_relu_0.391_adagrad_0.369_172_43'
p209
I00
sS'42_False_False_47_18_compact_False_306_relu_0.46_True_118_relu_0.471_adagrad_1.581_31_59'
p210
I00
sS'45_False_True_434_78_all_True_92_relu_0.23_True_122_relu_0.558_adagrad_1.707_168_59'
p211
I00
sS'13_True_True_240_177_frequent_True_281_relu_0.003_False_20_relu_0.433_adagrad_1.762_26_48'
p212
I00
sS'99_True_True_39_10_frequent_False_196_relu_0.49_False_16_relu_0.484_adagrad_1.012_179_73'
p213
I00
sS'38_False_False_394_188_all_True_118_relu_0.25_True_1_relu_0.375_adagrad_1.528_170_76'
p214
I00
sS'42_False_True_156_115_compact_False_450_relu_0.411_True_2_relu_0.328_adagrad_0.289_238_82'
p215
I00
sS'32_False_True_93_50_all_False_93_relu_0.134_True_84_relu_0.317_adagrad_1.295_196_63'
p216
I00
sS'24_False_True_416_8_all_False_293_relu_0.183_True_112_relu_0.457_adagrad_0.147_125_49'
p217
I00
sS'39_False_False_295_64_compact_False_466_relu_0.489_False_31_relu_0.048_adagrad_0.445_189_31'
p218
I00
sS'81_False_False_245_153_all_True_172_relu_0.544_False_56_relu_0.559_adagrad_0.263_205_47'
p219
I00
sS'30_True_False_230_9_frequent_False_241_relu_0.254_False_54_relu_0.025_adagrad_1.946_96_45'
p220
I00
sS'57_False_False_437_166_all_False_235_relu_0.533_False_27_relu_0.034_adagrad_1.293_58_93'
p221
I00
sS'2_False_False_166_32_frequent_True_118_relu_0.013_True_97_relu_0.488_adagrad_1.876_52_84'
p222
I00
sS'72_False_True_159_189_compact_False_11_relu_0.185_False_1_relu_0.366_adagrad_0.773_161_97'
p223
I00
sS'55_False_True_49_184_compact_True_217_relu_0.271_True_83_relu_0.149_adagrad_1.632_48_36'
p224
I00
sS'84_False_False_101_191_all_False_20_relu_0.233_False_54_relu_0.078_adagrad_1.15_141_63'
p225
I00
sS'38_False_False_147_67_frequent_False_85_relu_0.485_False_108_relu_0.256_adagrad_0.377_83_46'
p226
I00
sS'96_True_False_372_104_all_True_37_relu_0.361_True_118_relu_0.096_adagrad_0.288_17_92'
p227
I00
sS'78_True_True_347_96_compact_False_164_relu_0.117_True_126_relu_0.102_adagrad_1.475_114_38'
p228
g25
sS'72_False_True_458_131_frequent_False_369_relu_0.414_False_37_relu_0.504_adagrad_1.956_153_39'
p229
I00
sS'61_True_True_457_71_compact_False_45_relu_0.067_True_37_relu_0.094_adagrad_1.001_198_59'
p230
I00
sS'33_True_True_278_143_all_False_70_relu_0.584_True_30_relu_0.282_adagrad_0.924_142_80'
p231
I00
sS'73_False_True_74_177_all_True_28_relu_0.366_True_3_relu_0.412_adagrad_1.569_24_37'
p232
I00
sS'8_False_True_186_153_frequent_True_21_relu_0.332_False_2_relu_0.31_adagrad_1.211_180_36'
p233
I00
sS'36_False_False_425_73_all_True_79_relu_0.149_True_78_relu_0.103_adagrad_1.845_115_49'
p234
I00
sS'10_False_True_21_148_compact_False_193_relu_0.26_True_110_relu_0.361_adagrad_0.434_73_69'
p235
I00
sS'11_False_True_90_140_compact_False_266_relu_0.121_False_14_relu_0.072_adagrad_0.881_128_95'
p236
I00
sS'48_True_True_355_164_all_False_63_relu_0.375_True_91_relu_0.406_adagrad_0.878_201_59'
p237
I00
sS'70_False_False_292_34_compact_False_173_relu_0.303_False_93_relu_0.302_adagrad_1.073_99_37'
p238
I00
sS'96_False_True_77_60_all_False_16_relu_0.489_True_79_relu_0.481_adagrad_0.709_186_91'
p239
I00
sS'78_True_True_309_183_all_True_40_relu_0.393_True_69_relu_0.557_adagrad_0.515_192_73'
p240
I00
sS'23_True_True_463_76_all_True_457_relu_0.366_True_95_relu_0.227_adagrad_1.045_211_30'
p241
I00
sS'92_False_True_274_117_frequent_True_257_relu_0.239_False_61_relu_0.342_adagrad_1.705_23_42'
p242
I00
sS'59_True_False_105_185_frequent_False_23_relu_0.164_True_125_relu_0.036_adagrad_1.517_246_49'
p243
I00
sS'32_False_False_418_33_frequent_False_86_relu_0.416_True_58_relu_0.523_adagrad_1.357_244_35'
p244
I00
sS'37_True_True_274_151_compact_False_18_relu_0.075_True_19_relu_0.523_adagrad_1.163_78_94'
p245
I00
sS'70_False_False_30_121_all_False_146_relu_0.198_False_75_relu_0.358_adagrad_0.777_51_64'
p246
I00
sS'99_False_True_145_199_frequent_False_349_relu_0.216_True_75_relu_0.191_adagrad_1.642_171_98'
p247
I00
sS'30_True_True_182_30_compact_False_129_relu_0.344_True_60_relu_0.151_adagrad_1.631_242_46'
p248
I00
sS'67_False_False_472_71_compact_True_182_relu_0.558_False_7_relu_0.135_adagrad_1.367_20_97'
p249
I00
sS'88_True_False_440_168_compact_False_340_relu_0.092_True_69_relu_0.28_adagrad_0.949_220_83'
p250
I00
sS'52_False_True_469_190_frequent_False_355_relu_0.156_False_87_relu_0.58_adagrad_0.529_246_58'
p251
I00
sS'73_True_True_132_174_all_True_278_relu_0.333_True_42_relu_0.01_adagrad_0.618_82_56'
p252
I00
sS'25_True_False_386_105_compact_True_492_relu_0.511_True_79_relu_0.076_adagrad_0.218_43_73'
p253
I00
sS'66_False_False_43_67_all_True_201_relu_0.343_True_115_relu_0.233_adagrad_0.754_40_85'
p254
I00
sS'51_True_False_387_149_all_True_337_relu_0.346_True_57_relu_0.137_adagrad_1.118_238_53'
p255
I00
sS'53_True_False_261_22_all_True_24_relu_0.209_False_87_relu_0.135_adagrad_0.816_27_55'
p256
I00
sS'1_True_True_344_46_all_True_337_relu_0.413_True_49_relu_0.03_adagrad_1.189_220_82'
p257
I00
sS'99_False_True_115_195_all_False_38_relu_0.367_False_83_relu_0.174_adagrad_1.673_191_47'
p258
I00
sS'39_False_False_117_155_compact_False_219_relu_0.099_False_43_relu_0.176_adagrad_1.581_167_56'
p259
I00
sS'11_True_False_156_102_compact_True_151_relu_0.111_True_116_relu_0.124_adagrad_0.857_137_83'
p260
I00
sS'39_True_True_434_97_frequent_True_347_relu_0.083_True_37_relu_0.596_adagrad_0.176_28_80'
p261
I00
sS'31_False_False_362_32_all_True_47_relu_0.104_False_1_relu_0.414_adagrad_1.583_93_68'
p262
I00
sS'64_False_True_85_185_all_True_256_relu_0.229_False_43_relu_0.343_adagrad_1.883_66_80'
p263
I00
sS'5_True_True_268_171_frequent_True_126_relu_0.223_False_24_relu_0.146_adagrad_1.391_234_41'
p264
I00
sS'35_True_False_145_176_compact_False_165_relu_0.041_False_30_relu_0.392_adagrad_0.433_147_66'
p265
I00
sS'36_False_False_294_21_all_True_293_relu_0.104_True_61_relu_0.564_adagrad_1.273_18_48'
p266
I00
sS'36_False_True_471_122_compact_True_193_relu_0.192_True_73_relu_0.069_adagrad_1.984_169_56'
p267
I00
sS'91_False_False_428_150_frequent_False_334_relu_0.507_True_66_relu_0.488_adagrad_0.025_52_51'
p268
I00
sS'89_False_True_210_111_frequent_False_245_relu_0.283_False_32_relu_0.307_adagrad_1.419_104_39'
p269
I00
sS'70_True_True_441_107_all_True_204_relu_0.31_False_98_relu_0.585_adagrad_1.925_147_51'
p270
I00
sS'34_False_True_59_98_frequent_False_261_relu_0.212_True_3_relu_0.106_adagrad_1.957_19_50'
p271
I00
sS'18_True_False_266_138_frequent_True_432_relu_0.592_False_111_relu_0.352_adagrad_1.293_60_59'
p272
I00
sS'57_True_False_61_160_frequent_True_496_relu_0.361_False_50_relu_0.036_adagrad_0.743_197_86'
p273
I00
sS'26_False_True_91_131_frequent_True_436_relu_0.109_True_58_relu_0.275_adagrad_0.592_44_94'
p274
g25
sS'21_False_False_391_46_compact_False_455_relu_0.388_False_34_relu_0.57_adagrad_1.135_171_62'
p275
I00
sS'78_False_False_329_28_all_True_168_relu_0.471_True_9_relu_0.117_adagrad_1.03_246_89'
p276
I00
sS'3_False_True_110_24_frequent_True_455_relu_0.358_False_90_relu_0.434_adagrad_0.115_232_53'
p277
I00
sS'44_False_True_142_104_frequent_True_315_relu_0.232_False_83_relu_0.597_adagrad_1.556_113_46'
p278
I00
sS'18_True_True_272_27_all_False_416_relu_0.206_True_46_relu_0.564_adagrad_1.445_222_72'
p279
I00
sS'53_True_False_154_194_frequent_False_149_relu_0.191_True_31_relu_0.202_adagrad_1.785_136_95'
p280
I00
sS'29_True_True_173_109_all_False_361_relu_0.53_True_61_relu_0.206_adagrad_1.05_230_36'
p281
I00
sS'78_True_False_176_157_compact_True_395_relu_0.311_False_35_relu_0.125_adagrad_0.98_30_55'
p282
I00
sS'65_True_False_36_102_compact_True_457_relu_0.233_True_68_relu_0.135_adagrad_1.105_193_48'
p283
I00
sS'19_False_False_240_147_compact_True_50_relu_0.165_True_18_relu_0.217_adagrad_0.34_55_55'
p284
I00
sS'3_True_True_70_43_compact_True_461_relu_0.543_True_12_relu_0.528_adagrad_1.37_124_81'
p285
I00
sS'47_False_False_489_106_all_False_204_relu_0.018_False_83_relu_0.329_adagrad_1.473_159_81'
p286
I00
sS'72_True_True_167_197_all_True_200_relu_0.562_True_78_relu_0.497_adagrad_1.331_138_43'
p287
I00
sS'1_False_False_328_22_compact_True_61_relu_0.042_True_113_relu_0.512_adagrad_1.942_140_74'
p288
I00
sS'4_True_False_407_199_all_True_316_relu_0.334_True_88_relu_0.589_adagrad_0.45_194_37'
p289
I00
sS'48_False_True_170_156_compact_True_139_relu_0.388_False_21_relu_0.563_adagrad_0.737_32_72'
p290
I00
sS'81_False_True_235_20_compact_True_244_relu_0.039_True_56_relu_0.113_adagrad_1.072_211_40'
p291
I00
sS'58_True_False_257_100_all_True_28_relu_0.401_True_17_relu_0.094_adagrad_0.554_194_94'
p292
I00
sS'20_True_False_257_80_frequent_False_275_relu_0.082_False_0_relu_0.333_adagrad_0.392_217_49'
p293
I00
sS'12_False_False_455_111_frequent_False_313_relu_0.191_False_29_relu_0.462_adagrad_1.203_173_53'
p294
I00
sS'30_False_True_332_53_compact_True_42_relu_0.372_True_98_relu_0.528_adagrad_0.872_53_59'
p295
I00
sS'5_False_True_488_182_compact_False_88_relu_0.595_True_107_relu_0.059_adagrad_0.593_202_52'
p296
I00
sS'41_False_True_316_44_all_False_335_relu_0.193_True_31_relu_0.212_adagrad_1.056_118_48'
p297
I00
sS'71_True_True_47_59_all_True_494_relu_0.313_False_114_relu_0.449_adagrad_1.165_88_34'
p298
I00
sS'32_True_True_140_70_frequent_True_295_relu_0.021_False_73_relu_0.574_adagrad_0.753_86_98'
p299
I00
sS'14_False_False_117_193_compact_True_343_relu_0.197_True_84_relu_0.329_adagrad_1.864_65_93'
p300
I00
sS'85_False_False_45_93_frequent_True_149_relu_0.142_False_111_relu_0.461_adagrad_0.829_158_47'
p301
I00
sS'21_False_True_257_77_compact_False_104_relu_0.535_True_29_relu_0.6_adagrad_0.595_53_74'
p302
I00
sS'73_False_False_317_131_frequent_False_486_relu_0.09_True_48_relu_0.422_adagrad_0.288_123_30'
p303
I00
sS'58_True_True_390_11_compact_False_211_relu_0.272_True_71_relu_0.069_adagrad_1.393_160_40'
p304
I00
sS'23_True_False_402_141_frequent_False_502_relu_0.463_True_81_relu_0.487_adagrad_0.656_189_70'
p305
I00
sS'1_False_False_190_153_compact_True_27_relu_0.518_False_45_relu_0.003_adagrad_1.15_55_93'
p306
I00
sS'84_False_True_398_179_frequent_False_103_relu_0.378_False_65_relu_0.2_adagrad_0.267_220_95'
p307
I00
sS'63_True_True_81_9_all_False_153_relu_0.481_False_95_relu_0.249_adagrad_1.009_98_80'
p308
I00
sS'41_True_True_438_75_all_False_482_relu_0.522_False_105_relu_0.006_adagrad_0.825_166_53'
p309
I00
sS'38_False_False_220_54_frequent_False_287_relu_0.368_True_86_relu_0.011_adagrad_0.96_150_67'
p310
I00
sS'43_True_True_411_127_compact_True_210_relu_0.208_False_22_relu_0.551_adagrad_1.479_202_93'
p311
I00
sS'93_True_False_165_69_frequent_True_430_relu_0.455_True_92_relu_0.212_adagrad_0.919_132_99'
p312
I00
sS'51_True_False_471_129_all_False_100_relu_0.456_True_24_relu_0.514_adagrad_1.304_112_65'
p313
I00
sS'51_True_True_374_149_all_False_265_relu_0.442_True_84_relu_0.122_adagrad_1.727_187_30'
p314
I00
sS'24_True_False_129_31_compact_True_410_relu_0.026_True_108_relu_0.569_adagrad_0.062_114_38'
p315
I00
sS'40_True_True_454_74_compact_True_488_relu_0.139_True_100_relu_0.302_adagrad_1.997_161_87'
p316
I00
sS'96_False_False_110_146_all_True_0_relu_0.403_True_93_relu_0.135_adagrad_1.894_143_73'
p317
I00
sS'1_False_False_336_85_all_False_382_relu_0.457_True_9_relu_0.05_adagrad_0.667_113_34'
p318
I00
sS'73_False_True_209_187_frequent_False_125_relu_0.0_False_94_relu_0.388_adagrad_0.617_25_65'
p319
I00
sS'46_False_False_91_131_compact_False_251_relu_0.032_True_81_relu_0.178_adagrad_1.708_49_37'
p320
I00
sS'98_False_True_107_82_frequent_True_424_relu_0.402_False_36_relu_0.31_adagrad_1.582_61_52'
p321
I00
sS'90_False_False_331_181_all_False_130_relu_0.56_False_87_relu_0.012_adagrad_1.133_111_58'
p322
I00
sS'69_False_True_118_59_all_True_62_relu_0.419_True_96_relu_0.096_adagrad_1.407_112_64'
p323
I00
sS'69_False_True_424_20_all_True_136_relu_0.024_True_17_relu_0.033_adagrad_1.109_57_90'
p324
I00
sS'38_False_True_226_159_frequent_False_246_relu_0.331_False_55_relu_0.009_adagrad_0.264_204_72'
p325
I00
sS'82_True_True_204_32_all_False_421_relu_0.202_True_26_relu_0.048_adagrad_0.372_28_57'
p326
I00
sS'87_True_False_159_179_frequent_True_118_relu_0.129_True_16_relu_0.35_adagrad_1.038_33_89'
p327
I00
sS'62_False_True_418_172_frequent_True_127_relu_0.532_False_81_relu_0.285_adagrad_1.699_246_32'
p328
I00
sS'79_True_False_81_49_frequent_False_31_relu_0.077_False_107_relu_0.503_adagrad_0.231_79_50'
p329
I00
sS'23_True_True_323_92_frequent_True_186_relu_0.057_False_108_relu_0.4_adagrad_1.084_109_94'
p330
I00
sS'97_True_True_178_23_compact_True_165_relu_0.083_False_97_relu_0.153_adagrad_1.087_160_60'
p331
I00
sS'63_True_False_200_112_frequent_False_64_relu_0.131_False_3_relu_0.335_adagrad_1.848_177_67'
p332
I00
sS'2_False_True_343_130_frequent_False_84_relu_0.204_False_85_relu_0.369_adagrad_0.143_71_54'
p333
I00
sS'93_False_True_110_70_all_False_200_relu_0.196_True_109_relu_0.195_adagrad_0.732_116_61'
p334
I00
sS'20_False_False_305_12_frequent_False_101_relu_0.441_True_17_relu_0.388_adagrad_0.926_167_50'
p335
I00
sS'87_False_True_276_36_compact_False_40_relu_0.565_False_76_relu_0.302_adagrad_0.77_194_44'
p336
I00
sS'84_False_True_392_81_all_False_397_relu_0.502_True_41_relu_0.423_adagrad_1.051_63_31'
p337
I00
sS'83_False_False_271_166_all_False_226_relu_0.321_True_121_relu_0.086_adagrad_0.794_231_60'
p338
I00
sS'39_True_False_404_38_frequent_True_510_relu_0.458_False_53_relu_0.235_adagrad_0.232_32_59'
p339
I00
sS'52_True_False_196_171_frequent_False_236_relu_0.258_False_97_relu_0.427_adagrad_0.824_80_94'
p340
I00
sS'56_True_False_183_27_compact_True_441_relu_0.529_True_92_relu_0.175_adagrad_0.21_226_73'
p341
I00
sS'38_True_True_324_150_compact_False_411_relu_0.44_False_16_relu_0.04_adagrad_1.579_80_76'
p342
I00
sS'79_True_False_42_45_compact_False_5_relu_0.307_False_10_relu_0.49_adagrad_0.342_233_68'
p343
I00
sS'99_True_False_413_30_frequent_False_74_relu_0.542_True_21_relu_0.515_adagrad_1.993_219_77'
p344
I00
sS'35_False_False_488_162_compact_True_191_relu_0.334_True_76_relu_0.208_adagrad_1.824_19_81'
p345
I00
sS'66_False_False_354_195_compact_True_469_relu_0.526_False_112_relu_0.004_adagrad_0.318_65_33'
p346
I00
sS'42_True_True_450_120_all_False_404_relu_0.588_False_28_relu_0.224_adagrad_0.775_41_82'
p347
I00
sS'40_True_True_377_84_frequent_True_402_relu_0.334_False_31_relu_0.072_adagrad_0.065_150_65'
p348
I00
sS'96_False_False_307_61_compact_True_102_relu_0.061_True_28_relu_0.461_adagrad_1.977_70_71'
p349
I00
sS'45_True_False_124_23_compact_True_406_relu_0.247_False_110_relu_0.251_adagrad_1.226_167_69'
p350
I00
sS'8_True_True_427_190_frequent_True_97_relu_0.101_False_71_relu_0.137_adagrad_1.197_187_34'
p351
I00
sS'6_True_False_322_144_compact_True_8_relu_0.256_False_115_relu_0.327_adagrad_0.947_151_71'
p352
I00
sS'43_True_False_328_42_compact_False_110_relu_0.301_False_77_relu_0.274_adagrad_1.606_202_85'
p353
I00
sS'65_True_True_310_158_all_True_386_relu_0.498_False_100_relu_0.478_adagrad_0.365_91_93'
p354
I00
sS'68_True_False_245_130_compact_False_292_relu_0.395_True_114_relu_0.588_adagrad_1.437_69_46'
p355
I00
sS'85_True_False_463_84_all_False_108_relu_0.585_False_1_relu_0.501_adagrad_0.142_99_51'
p356
I00
sS'26_False_False_347_136_all_False_390_relu_0.398_True_20_relu_0.489_adagrad_1.503_205_92'
p357
I00
sS'54_True_False_321_24_compact_True_63_relu_0.051_True_10_relu_0.512_adagrad_1.653_174_98'
p358
I00
sS'3_True_False_285_144_compact_False_68_relu_0.47_True_68_relu_0.541_adagrad_0.059_239_93'
p359
I00
sS'8_True_False_73_49_all_True_57_relu_0.389_False_46_relu_0.536_adagrad_1.381_16_90'
p360
I00
sS'27_False_False_406_161_compact_True_384_relu_0.48_True_71_relu_0.166_adagrad_0.083_198_78'
p361
I00
sS'48_True_True_83_49_compact_True_138_relu_0.147_False_17_relu_0.312_adagrad_1.968_137_32'
p362
I00
sS'72_False_True_371_132_all_False_485_relu_0.347_True_118_relu_0.105_adagrad_0.506_133_98'
p363
I00
sS'5_False_False_229_10_compact_False_60_relu_0.102_False_45_relu_0.009_adagrad_1.015_240_78'
p364
I00
sS'15_True_False_357_124_compact_True_421_relu_0.278_False_3_relu_0.179_adagrad_1.497_189_51'
p365
I00
sS'65_True_True_414_147_compact_False_423_relu_0.019_False_76_relu_0.001_adagrad_1.962_192_82'
p366
I00
sS'30_False_True_98_80_compact_False_458_relu_0.576_True_1_relu_0.356_adagrad_0.739_211_76'
p367
I00
sS'81_False_True_393_9_all_True_15_relu_0.299_True_23_relu_0.448_adagrad_0.494_45_80'
p368
I00
sS'55_True_True_475_74_compact_True_26_relu_0.167_False_30_relu_0.239_adagrad_0.386_121_93'
p369
I00
sS'56_True_False_344_99_frequent_False_197_relu_0.032_False_12_relu_0.082_adagrad_0.708_112_61'
p370
I00
sS'5_True_True_433_120_compact_False_114_relu_0.259_False_85_relu_0.048_adagrad_0.633_125_66'
p371
I00
sS'79_True_True_36_179_all_False_288_relu_0.369_True_8_relu_0.588_adagrad_0.063_100_65'
p372
I00
sS'70_True_True_219_122_all_False_55_relu_0.533_True_25_relu_0.332_adagrad_0.714_233_34'
p373
I00
sS'79_False_False_261_161_frequent_True_197_relu_0.472_False_123_relu_0.461_adagrad_1.346_153_49'
p374
I00
sS'40_False_False_75_52_frequent_False_406_relu_0.052_False_41_relu_0.313_adagrad_0.276_243_48'
p375
I00
sS'87_True_False_59_7_all_True_402_relu_0.089_False_112_relu_0.175_adagrad_1.807_150_89'
p376
I00
sS'74_True_True_64_90_all_True_247_relu_0.04_True_93_relu_0.008_adagrad_0.089_239_32'
p377
I00
sS'27_False_False_24_109_frequent_True_350_relu_0.152_True_94_relu_0.164_adagrad_0.271_201_43'
p378
I00
sS'55_False_False_329_41_compact_True_98_relu_0.201_False_15_relu_0.084_adagrad_1.969_103_95'
p379
I00
sS'42_True_True_304_80_frequent_False_92_relu_0.522_True_119_relu_0.429_adagrad_0.097_209_91'
p380
I00
sS'94_True_True_154_44_compact_True_110_relu_0.147_True_102_relu_0.574_adagrad_0.879_126_32'
p381
I00
sS'15_True_True_475_31_frequent_True_464_relu_0.594_True_81_relu_0.28_adagrad_0.877_98_70'
p382
I00
sS'64_False_True_489_98_all_True_178_relu_0.389_False_32_relu_0.086_adagrad_1.033_228_52'
p383
I00
sS'66_False_True_127_149_compact_False_496_relu_0.542_True_24_relu_0.552_adagrad_0.236_93_42'
p384
I00
sS'90_True_False_335_116_compact_True_227_relu_0.569_True_67_relu_0.589_adagrad_0.89_70_43'
p385
I00
sS'56_True_True_98_49_all_True_49_relu_0.424_False_113_relu_0.452_adagrad_0.53_146_93'
p386
I00
sS'0_False_False_48_175_compact_True_7_relu_0.384_True_120_relu_0.263_adagrad_1.64_148_79'
p387
I00
sS'22_True_False_309_39_frequent_True_348_relu_0.547_False_26_relu_0.375_adagrad_1.079_57_49'
p388
I00
sS'16_True_True_245_82_frequent_False_95_relu_0.292_True_42_relu_0.183_adagrad_0.312_80_34'
p389
I00
sS'47_False_True_248_195_frequent_False_183_relu_0.47_False_71_relu_0.035_adagrad_0.72_155_98'
p390
I00
sS'93_True_True_67_107_all_True_507_relu_0.546_True_108_relu_0.118_adagrad_0.821_78_98'
p391
I00
sS'3_True_True_110_172_frequent_True_160_relu_0.145_True_12_relu_0.588_adagrad_0.416_105_70'
p392
I00
sS'83_True_True_284_111_compact_False_90_relu_0.425_True_45_relu_0.1_adagrad_0.752_168_36'
p393
I00
sS'24_False_True_36_101_frequent_True_4_relu_0.335_False_93_relu_0.317_adagrad_0.863_78_95'
p394
I00
sS'0_True_True_22_148_compact_True_507_relu_0.132_False_67_relu_0.104_adagrad_0.561_149_48'
p395
I00
sS'43_True_True_36_142_all_False_405_relu_0.124_False_20_relu_0.019_adagrad_1.832_78_73'
p396
I00
sS'47_True_False_161_144_compact_False_402_relu_0.587_False_73_relu_0.517_adagrad_0.383_225_70'
p397
I00
sS'81_False_True_30_45_all_False_360_relu_0.245_True_60_relu_0.02_adagrad_0.976_62_48'
p398
I00
sS'32_False_False_188_165_compact_False_365_relu_0.516_False_50_relu_0.594_adagrad_0.353_57_84'
p399
I00
sS'13_True_False_244_172_all_True_72_relu_0.552_True_31_relu_0.167_adagrad_0.104_142_58'
p400
I00
sS'57_True_True_149_100_compact_True_264_relu_0.111_True_13_relu_0.083_adagrad_0.901_42_93'
p401
g25
sS'87_True_False_403_16_all_False_207_relu_0.501_True_93_relu_0.022_adagrad_0.92_114_62'
p402
I00
sS'96_False_True_422_126_compact_False_383_relu_0.521_False_37_relu_0.287_adagrad_1.025_204_64'
p403
I00
sS'46_True_False_334_178_compact_True_339_relu_0.582_False_3_relu_0.504_adagrad_1.852_212_35'
p404
I00
sS'38_True_True_160_8_compact_True_5_relu_0.159_False_98_relu_0.492_adagrad_1.722_138_41'
p405
I00
sS'27_False_True_145_99_compact_False_324_relu_0.023_False_127_relu_0.048_adagrad_0.399_188_49'
p406
I00
sS'40_False_True_395_117_all_True_156_relu_0.21_False_89_relu_0.137_adagrad_0.456_130_72'
p407
g25
sS'53_False_True_145_27_compact_True_96_relu_0.415_True_67_relu_0.063_adagrad_1.608_34_91'
p408
I00
sS'8_False_False_465_108_frequent_True_227_relu_0.264_False_47_relu_0.34_adagrad_1.43_63_57'
p409
I00
sS'43_False_True_438_33_frequent_False_128_relu_0.288_True_75_relu_0.166_adagrad_1.579_147_41'
p410
I00
sS'4_False_True_335_49_all_False_131_relu_0.054_True_68_relu_0.59_adagrad_0.584_46_39'
p411
I00
sS'95_False_True_221_128_all_False_386_relu_0.075_False_0_relu_0.143_adagrad_1.947_191_85'
p412
I00
sS'46_False_False_478_72_all_False_125_relu_0.074_False_20_relu_0.478_adagrad_0.148_131_80'
p413
I00
sS'95_False_False_292_193_compact_True_126_relu_0.149_True_0_relu_0.398_adagrad_0.374_20_51'
p414
I00
sS'96_False_True_258_165_compact_True_452_relu_0.416_False_107_relu_0.594_adagrad_0.128_46_36'
p415
I00
sS'23_False_False_24_180_frequent_False_339_relu_0.166_True_10_relu_0.235_adagrad_1.338_32_89'
p416
I00
sS'6_False_False_483_55_all_False_240_relu_0.214_True_28_relu_0.321_adagrad_1.877_201_78'
p417
I00
sS'30_True_False_210_110_frequent_True_450_relu_0.424_True_121_relu_0.434_adagrad_0.794_54_95'
p418
I00
sS'73_False_True_173_48_compact_True_7_relu_0.222_False_83_relu_0.123_adagrad_0.084_94_30'
p419
I00
sS'73_False_True_227_120_all_False_437_relu_0.564_True_68_relu_0.031_adagrad_1.975_227_46'
p420
I00
sS'82_True_True_103_111_compact_False_260_relu_0.395_True_6_relu_0.202_adagrad_0.281_102_52'
p421
I00
sS'98_False_False_197_97_all_True_135_relu_0.413_False_83_relu_0.461_adagrad_1.751_219_87'
p422
I00
sS'89_False_False_321_196_compact_True_428_relu_0.155_True_112_relu_0.175_adagrad_0.114_152_67'
p423
I00
sS'89_False_False_163_161_compact_True_207_relu_0.435_False_106_relu_0.218_adagrad_0.287_167_42'
p424
I00
sS'50_False_False_245_35_compact_False_436_relu_0.441_True_43_relu_0.249_adagrad_0.859_125_60'
p425
I00
sS'46_False_True_21_133_compact_False_320_relu_0.097_False_48_relu_0.38_adagrad_1.955_82_61'
p426
I00
sS'98_False_True_369_77_compact_True_232_relu_0.024_True_70_relu_0.114_adagrad_0.504_123_65'
p427
I00
sS'91_False_True_344_180_all_True_117_relu_0.521_True_41_relu_0.159_adagrad_1.581_192_88'
p428
I00
sS'59_False_False_384_11_frequent_False_319_relu_0.021_True_1_relu_0.075_adagrad_1.434_135_31'
p429
I00
sS'6_True_True_493_41_all_False_215_relu_0.272_False_37_relu_0.401_adagrad_0.291_231_85'
p430
I00
sS'1_True_False_88_35_compact_False_336_relu_0.017_False_16_relu_0.096_adagrad_0.449_217_64'
p431
I00
sS'17_False_True_208_127_compact_True_6_relu_0.021_False_41_relu_0.082_adagrad_1.322_34_92'
p432
I00
sS'36_False_True_227_86_frequent_False_34_relu_0.08_False_79_relu_0.453_adagrad_0.103_233_84'
p433
I00
sS'11_False_False_480_169_compact_True_361_relu_0.428_True_121_relu_0.228_adagrad_0.065_130_74'
p434
I00
sS'31_False_True_316_7_frequent_False_182_relu_0.221_False_39_relu_0.285_adagrad_1.017_181_75'
p435
I00
sS'98_False_False_206_168_compact_True_216_relu_0.071_False_100_relu_0.557_adagrad_1.795_208_82'
p436
I00
sS'6_True_False_35_133_compact_False_106_relu_0.087_False_32_relu_0.055_adagrad_1.914_101_67'
p437
I00
sS'86_True_True_458_123_all_True_321_relu_0.07_False_114_relu_0.465_adagrad_1.102_216_85'
p438
I00
sS'58_False_False_242_165_frequent_True_200_relu_0.036_False_39_relu_0.046_adagrad_1.203_84_92'
p439
I00
sS'42_False_True_331_51_frequent_True_198_relu_0.496_True_38_relu_0.449_adagrad_0.725_247_53'
p440
I00
sS'46_False_False_92_194_compact_False_306_relu_0.012_True_3_relu_0.523_adagrad_0.231_90_35'
p441
I00
sS'11_True_True_105_142_compact_True_471_relu_0.346_True_78_relu_0.48_adagrad_1.311_214_91'
p442
I00
sS'90_False_False_313_121_compact_False_184_relu_0.365_False_118_relu_0.497_adagrad_1.783_67_87'
p443
I00
sS'73_False_False_191_23_all_True_418_relu_0.156_True_61_relu_0.196_adagrad_0.228_81_97'
p444
I00
sS'67_True_False_164_127_all_False_329_relu_0.125_False_63_relu_0.425_adagrad_0.654_49_35'
p445
I00
sS'45_True_False_373_19_compact_False_501_relu_0.42_False_7_relu_0.304_adagrad_1.859_103_39'
p446
I00
sS'45_False_True_432_55_all_False_390_relu_0.427_True_21_relu_0.557_adagrad_0.244_84_66'
p447
I00
sS'13_False_True_416_104_compact_True_161_relu_0.54_False_126_relu_0.073_adagrad_0.424_216_65'
p448
I00
sS'8_True_True_56_186_compact_True_266_relu_0.33_False_87_relu_0.489_adagrad_1.625_41_80'
p449
I00
sS'81_False_False_284_31_frequent_True_357_relu_0.284_False_16_relu_0.23_adagrad_0.069_81_66'
p450
I00
sS'20_False_True_321_118_frequent_False_443_relu_0.452_True_74_relu_0.043_adagrad_0.438_77_36'
p451
I00
sS'77_True_False_352_96_all_False_114_relu_0.438_True_7_relu_0.053_adagrad_1.673_251_69'
p452
I00
sS'75_True_False_103_166_frequent_True_331_relu_0.238_False_27_relu_0.394_adagrad_0.969_249_36'
p453
I00
sS'97_False_False_462_172_all_True_279_relu_0.544_False_95_relu_0.26_adagrad_0.061_219_41'
p454
I00
sS'53_False_False_293_87_all_True_374_relu_0.363_False_68_relu_0.26_adagrad_1.498_132_88'
p455
I00
sS'36_False_False_469_20_all_False_321_relu_0.06_True_40_relu_0.13_adagrad_1.102_47_33'
p456
I00
sS'54_False_True_357_64_all_True_169_relu_0.388_False_11_relu_0.526_adagrad_1.022_216_30'
p457
I00
sS'92_True_True_354_162_compact_True_136_relu_0.139_False_37_relu_0.266_adagrad_1.186_150_63'
p458
I00
sS'17_False_False_32_10_frequent_False_221_relu_0.18_False_120_relu_0.444_adagrad_1.418_116_82'
p459
I00
sS'42_True_False_57_129_frequent_True_446_relu_0.41_False_14_relu_0.198_adagrad_1.565_52_50'
p460
g25
sS'13_False_False_417_98_frequent_False_328_relu_0.543_True_101_relu_0.502_adagrad_0.067_123_56'
p461
I00
sS'93_False_False_89_191_all_False_133_relu_0.205_False_11_relu_0.281_adagrad_0.43_64_75'
p462
I00
sS'92_True_True_277_131_compact_False_258_relu_0.173_True_46_relu_0.561_adagrad_0.888_54_47'
p463
I00
sS'19_False_True_34_122_all_True_144_relu_0.128_True_41_relu_0.106_adagrad_1.684_140_86'
p464
I00
sS'21_True_True_213_143_frequent_False_160_relu_0.165_True_39_relu_0.122_adagrad_1.943_167_37'
p465
I00
sS'44_False_True_353_75_compact_False_254_relu_0.308_False_96_relu_0.186_adagrad_0.269_227_32'
p466
I00
sS'26_False_False_405_181_frequent_False_215_relu_0.207_True_92_relu_0.559_adagrad_1.444_161_90'
p467
I00
sS'83_True_False_370_157_frequent_False_260_relu_0.264_False_45_relu_0.521_adagrad_0.491_57_69'
p468
I00
sS'95_True_True_230_143_all_False_497_relu_0.283_True_0_relu_0.38_adagrad_1.484_100_52'
p469
I00
sS'68_True_True_219_185_all_False_367_relu_0.224_True_52_relu_0.227_adagrad_0.168_48_85'
p470
I00
sS'24_False_True_85_72_all_False_2_relu_0.562_False_95_relu_0.553_adagrad_0.987_213_92'
p471
I00
sS'84_True_True_299_106_frequent_True_262_relu_0.036_False_55_relu_0.485_adagrad_0.665_144_42'
p472
I00
sS'99_True_False_381_67_frequent_True_75_relu_0.424_False_6_relu_0.383_adagrad_1.735_70_65'
p473
I00
sS'22_False_True_381_159_compact_False_50_relu_0.584_False_121_relu_0.068_adagrad_1.086_205_67'
p474
I00
sS'22_True_True_220_108_all_False_390_relu_0.553_False_112_relu_0.33_adagrad_0.996_240_76'
p475
I00
sS'87_False_False_189_133_all_True_181_relu_0.023_True_23_relu_0.46_adagrad_0.494_116_85'
p476
I00
sS'19_False_True_275_124_frequent_False_127_relu_0.449_True_87_relu_0.594_adagrad_0.898_150_31'
p477
I00
sS'29_True_False_456_154_frequent_True_342_relu_0.159_True_16_relu_0.068_adagrad_1.709_199_35'
p478
I00
sS'53_False_False_112_10_all_True_314_relu_0.089_True_124_relu_0.365_adagrad_0.111_57_77'
p479
I00
sS'20_True_True_179_189_all_False_292_relu_0.459_False_124_relu_0.143_adagrad_0.063_44_67'
p480
I00
sS'81_True_False_281_126_frequent_False_376_relu_0.143_False_49_relu_0.124_adagrad_1.479_56_49'
p481
I00
sS'97_False_True_55_134_all_True_479_relu_0.24_False_18_relu_0.354_adagrad_1.891_145_80'
p482
I00
sS'69_False_False_75_91_frequent_False_273_relu_0.436_True_3_relu_0.189_adagrad_1.422_161_98'
p483
I00
sS'98_True_False_237_131_all_False_96_relu_0.117_True_10_relu_0.052_adagrad_0.904_248_76'
p484
I00
sS'65_False_True_204_148_all_False_162_relu_0.512_True_102_relu_0.254_adagrad_0.718_95_79'
p485
I00
sS'90_True_True_257_80_all_False_354_relu_0.399_False_59_relu_0.443_adagrad_1.891_87_92'
p486
I00
sS'40_False_False_66_52_compact_True_178_relu_0.369_True_34_relu_0.233_adagrad_0.999_16_46'
p487
I00
sS'57_False_False_355_182_frequent_True_282_relu_0.28_False_58_relu_0.218_adagrad_0.326_211_52'
p488
I00
sS'33_True_False_404_166_all_True_376_relu_0.069_True_45_relu_0.536_adagrad_0.485_77_54'
p489
I00
sS'10_True_True_93_32_compact_False_114_relu_0.147_False_78_relu_0.284_adagrad_0.272_114_47'
p490
I00
sS'29_True_False_499_110_all_True_14_relu_0.417_True_48_relu_0.498_adagrad_1.889_189_86'
p491
I00
sS'95_True_True_256_161_compact_False_36_relu_0.566_True_17_relu_0.463_adagrad_1.903_84_44'
p492
I00
sS'87_True_True_359_29_compact_False_298_relu_0.219_False_44_relu_0.257_adagrad_0.714_194_94'
p493
I00
sS'78_False_False_74_112_frequent_False_481_relu_0.424_True_100_relu_0.089_adagrad_0.948_203_48'
p494
I00
sS'19_True_False_357_198_all_False_417_relu_0.476_False_36_relu_0.016_adagrad_0.511_121_73'
p495
I00
sS'18_True_False_75_190_compact_True_291_relu_0.575_False_16_relu_0.276_adagrad_0.799_252_81'
p496
I00
sS'11_False_False_477_133_all_True_438_relu_0.124_True_20_relu_0.254_adagrad_1.978_44_39'
p497
I00
sS'74_True_False_273_27_compact_True_398_relu_0.188_False_74_relu_0.03_adagrad_1.574_32_45'
p498
I00
sS'86_False_False_110_34_compact_False_157_relu_0.209_True_34_relu_0.561_adagrad_0.478_159_49'
p499
I00
sS'61_False_True_408_21_all_False_401_relu_0.499_True_85_relu_0.504_adagrad_0.927_128_45'
p500
I00
sS'70_True_False_211_90_compact_True_259_relu_0.509_True_87_relu_0.207_adagrad_1.546_73_60'
p501
I00
sS'76_True_True_395_25_all_False_135_relu_0.12_True_43_relu_0.498_adagrad_0.786_31_83'
p502
I00
sS'75_False_True_169_117_all_True_378_relu_0.238_True_96_relu_0.585_adagrad_0.713_49_57'
p503
I00
sS'23_True_False_258_189_compact_True_244_relu_0.117_True_119_relu_0.32_adagrad_0.268_233_33'
p504
I00
sS'39_True_False_389_31_frequent_True_340_relu_0.573_True_60_relu_0.505_adagrad_1.085_238_53'
p505
I00
sS'81_True_True_328_19_frequent_False_442_relu_0.2_False_9_relu_0.053_adagrad_1.956_61_77'
p506
I00
sS'41_True_False_380_193_frequent_False_352_relu_0.175_False_112_relu_0.325_adagrad_0.584_43_92'
p507
I00
sS'61_False_True_182_163_frequent_True_505_relu_0.423_False_125_relu_0.266_adagrad_0.211_81_88'
p508
I00
sS'21_True_True_148_195_compact_True_381_relu_0.109_True_106_relu_0.106_adagrad_1.927_114_30'
p509
I00
sS'9_False_True_87_73_frequent_True_272_relu_0.486_True_89_relu_0.049_adagrad_0.495_66_67'
p510
I00
sS'7_False_True_241_8_all_False_349_relu_0.53_True_109_relu_0.036_adagrad_0.13_114_86'
p511
I00
sS'68_True_False_413_131_all_False_105_relu_0.436_False_94_relu_0.038_adagrad_1.103_47_99'
p512
I00
sS'84_True_True_186_101_all_True_144_relu_0.566_True_75_relu_0.598_adagrad_1.613_35_60'
p513
I00
sS'43_True_False_239_70_compact_False_340_relu_0.326_False_29_relu_0.103_adagrad_0.641_160_75'
p514
I00
sS'24_True_False_91_59_frequent_True_129_relu_0.333_False_84_relu_0.278_adagrad_1.518_94_34'
p515
g25
sS'72_False_False_24_86_all_False_205_relu_0.035_True_36_relu_0.598_adagrad_0.3_70_49'
p516
I00
sS'26_False_True_341_73_frequent_True_30_relu_0.561_False_93_relu_0.226_adagrad_1.087_170_53'
p517
I00
sS'74_False_False_253_83_all_False_443_relu_0.496_False_32_relu_0.374_adagrad_1.839_191_37'
p518
I00
sS'48_False_True_337_34_all_False_461_relu_0.555_False_11_relu_0.391_adagrad_0.338_34_79'
p519
I00
sS'98_False_True_392_10_frequent_False_344_relu_0.19_False_107_relu_0.23_adagrad_0.913_222_60'
p520
I00
sS'73_True_False_67_6_compact_False_258_relu_0.123_False_27_relu_0.224_adagrad_0.675_255_50'
p521
I00
sS'47_False_True_421_121_all_True_164_relu_0.471_False_45_relu_0.238_adagrad_1.315_190_87'
p522
I00
sS'60_True_False_297_12_all_False_8_relu_0.542_True_44_relu_0.261_adagrad_1.196_51_54'
p523
I00
sS'30_False_False_411_153_all_False_414_relu_0.01_False_68_relu_0.55_adagrad_1.935_250_96'
p524
I00
sS'30_False_True_265_159_all_True_225_relu_0.019_False_92_relu_0.089_adagrad_1.85_77_33'
p525
I00
sS'54_False_False_156_164_compact_True_359_relu_0.405_False_30_relu_0.268_adagrad_0.453_21_35'
p526
I00
sS'15_True_False_353_130_compact_True_403_relu_0.156_True_100_relu_0.038_adagrad_1.397_166_49'
p527
I00
sS'84_True_True_388_150_frequent_False_71_relu_0.373_True_58_relu_0.43_adagrad_1.028_238_86'
p528
I00
sS'87_True_True_359_112_all_False_60_relu_0.396_False_126_relu_0.005_adagrad_0.887_93_54'
p529
I00
sS'14_True_False_273_16_frequent_False_131_relu_0.352_False_33_relu_0.495_adagrad_1.891_40_79'
p530
I00
sS'18_True_True_196_116_all_False_71_relu_0.477_True_110_relu_0.5_adagrad_0.11_109_42'
p531
I00
sS'46_True_True_359_142_compact_True_326_relu_0.15_False_97_relu_0.237_adagrad_1.123_77_60'
p532
I00
sS'18_False_True_437_107_compact_False_115_relu_0.325_False_13_relu_0.128_adagrad_0.123_136_99'
p533
I00
sS'38_True_True_371_168_compact_False_438_relu_0.446_False_55_relu_0.487_adagrad_1.181_51_96'
p534
I00
sS'63_True_True_258_95_frequent_False_91_relu_0.155_True_15_relu_0.581_adagrad_0.718_173_90'
p535
I00
sS'47_False_False_317_170_all_False_416_relu_0.316_False_86_relu_0.367_adagrad_0.593_82_79'
p536
I00
sS'40_False_True_235_127_frequent_True_392_relu_0.058_False_29_relu_0.304_adagrad_0.369_38_57'
p537
I00
sS'12_False_False_385_64_frequent_False_130_relu_0.542_False_111_relu_0.073_adagrad_1.484_174_44'
p538
I00
sS'33_False_True_126_159_compact_True_419_relu_0.306_True_69_relu_0.343_adagrad_1.51_213_57'
p539
I00
sS'43_True_False_467_44_frequent_True_36_relu_0.44_True_36_relu_0.203_adagrad_0.037_102_78'
p540
I00
sS'42_True_False_342_84_compact_False_89_relu_0.046_False_108_relu_0.561_adagrad_0.084_178_68'
p541
I00
sS'4_False_False_446_14_all_False_77_relu_0.251_False_34_relu_0.111_adagrad_0.313_224_62'
p542
I00
sS'11_True_True_423_185_all_False_434_relu_0.009_False_89_relu_0.344_adagrad_0.211_198_69'
p543
I00
sS'57_False_True_263_25_compact_True_243_relu_0.015_False_60_relu_0.197_adagrad_1.774_39_40'
p544
I00
sS'37_False_True_213_197_all_True_50_relu_0.366_True_92_relu_0.215_adagrad_0.119_201_50'
p545
I00
sS'84_True_False_277_21_frequent_False_205_relu_0.565_False_81_relu_0.212_adagrad_0.995_196_38'
p546
I00
sS'55_True_False_283_121_frequent_False_412_relu_0.336_True_112_relu_0.492_adagrad_0.609_181_42'
p547
I00
sS'8_False_False_302_198_all_True_251_relu_0.329_False_81_relu_0.2_adagrad_1.222_78_37'
p548
I00
sS'80_False_True_222_141_compact_False_30_relu_0.157_False_87_relu_0.198_adagrad_0.767_28_33'
p549
I00
sS'2_True_False_28_181_all_False_306_relu_0.079_False_19_relu_0.424_adagrad_0.243_228_90'
p550
I00
sS'26_False_False_137_129_all_False_294_relu_0.326_False_85_relu_0.173_adagrad_1.926_115_52'
p551
I00
sS'48_True_True_202_91_all_False_422_relu_0.576_False_63_relu_0.572_adagrad_0.782_248_75'
p552
I00
sS'50_False_False_278_68_frequent_False_68_relu_0.576_True_22_relu_0.175_adagrad_1.236_225_51'
p553
I00
sS'33_True_False_254_64_frequent_True_349_relu_0.008_True_58_relu_0.012_adagrad_1.924_21_58'
p554
I00
sS'54_False_False_310_14_compact_False_174_relu_0.188_False_81_relu_0.025_adagrad_0.863_47_36'
p555
I00
sS'18_True_True_300_15_all_False_43_relu_0.513_True_107_relu_0.24_adagrad_1.751_132_40'
p556
I00
sS'19_False_False_195_66_all_True_364_relu_0.082_False_123_relu_0.332_adagrad_1.489_67_41'
p557
I00
sS'13_False_False_398_133_all_False_305_relu_0.397_False_70_relu_0.36_adagrad_1.006_244_59'
p558
I00
sS'57_True_False_244_110_all_True_301_relu_0.494_True_8_relu_0.251_adagrad_1.286_78_56'
p559
I00
sS'67_False_True_75_181_frequent_True_494_relu_0.533_False_118_relu_0.348_adagrad_1.847_69_78'
p560
I00
sS'3_True_True_251_99_frequent_True_333_relu_0.187_True_76_relu_0.138_adagrad_0.361_192_71'
p561
I00
sS'72_False_True_204_142_compact_False_216_relu_0.273_True_3_relu_0.005_adagrad_0.025_152_86'
p562
I00
sS'13_False_True_195_43_all_True_495_relu_0.342_True_83_relu_0.59_adagrad_1.425_158_61'
p563
I00
sS'13_True_True_76_81_all_False_448_relu_0.365_True_93_relu_0.114_adagrad_0.537_59_99'
p564
I00
sS'45_False_True_446_121_frequent_True_420_relu_0.378_False_4_relu_0.02_adagrad_0.886_106_86'
p565
I00
sS'13_False_False_130_104_all_False_227_relu_0.55_True_100_relu_0.252_adagrad_0.905_58_99'
p566
I00
sS'24_True_True_398_139_compact_True_467_relu_0.403_True_119_relu_0.094_adagrad_1.273_81_35'
p567
I00
sS'8_False_False_414_25_compact_True_172_relu_0.094_True_91_relu_0.24_adagrad_0.66_185_38'
p568
I00
sS'51_False_False_37_24_compact_False_414_relu_0.436_False_109_relu_0.313_adagrad_1.316_55_58'
p569
I00
sS'27_True_True_227_38_compact_False_127_relu_0.242_True_94_relu_0.129_adagrad_1.276_149_66'
p570
I00
sS'65_False_False_152_22_frequent_False_224_relu_0.277_True_109_relu_0.477_adagrad_0.086_98_45'
p571
I00
sS'95_False_False_104_110_frequent_True_350_relu_0.553_False_41_relu_0.424_adagrad_2.0_181_92'
p572
I00
sS'99_False_False_334_197_frequent_True_260_relu_0.375_False_109_relu_0.222_adagrad_1.192_17_84'
p573
I00
sS'78_False_True_334_78_compact_True_107_relu_0.007_False_15_relu_0.537_adagrad_1.37_82_39'
p574
I00
sS'97_True_True_159_10_frequent_False_391_relu_0.255_True_79_relu_0.067_adagrad_1.738_172_61'
p575
I00
sS'50_True_False_103_47_frequent_False_459_relu_0.26_False_2_relu_0.165_adagrad_0.643_108_94'
p576
I00
sS'63_True_False_325_7_compact_True_20_relu_0.082_True_46_relu_0.306_adagrad_1.706_161_74'
p577
I00
sS'48_True_False_99_84_frequent_True_197_relu_0.437_False_6_relu_0.464_adagrad_1.836_70_33'
p578
I00
sS'53_True_True_75_161_compact_True_173_relu_0.13_True_120_relu_0.144_adagrad_0.533_76_97'
p579
I00
sS'7_True_True_100_138_all_True_314_relu_0.205_True_19_relu_0.323_adagrad_0.742_173_57'
p580
I00
sS'82_False_True_183_153_all_True_49_relu_0.28_False_78_relu_0.221_adagrad_1.862_136_93'
p581
I00
sS'7_False_False_461_30_compact_True_182_relu_0.19_True_40_relu_0.239_adagrad_1.586_225_32'
p582
I00
sS'33_True_False_39_74_compact_True_62_relu_0.374_True_94_relu_0.557_adagrad_0.161_175_93'
p583
I00
sS'8_False_True_234_144_frequent_False_115_relu_0.591_True_93_relu_0.018_adagrad_0.377_230_86'
p584
I00
sS'62_False_False_108_28_all_True_353_relu_0.101_True_109_relu_0.164_adagrad_1.883_215_59'
p585
g25
sS'85_True_True_350_137_all_False_320_relu_0.342_True_35_relu_0.275_adagrad_1.11_78_52'
p586
I00
sS'90_False_True_271_131_compact_False_501_relu_0.082_True_14_relu_0.238_adagrad_0.173_67_93'
p587
I00
sS'46_True_False_168_77_compact_False_240_relu_0.484_True_75_relu_0.078_adagrad_1.359_94_30'
p588
I00
sS'62_True_True_279_184_all_True_255_relu_0.404_True_125_relu_0.495_adagrad_0.666_115_40'
p589
I00
sS'36_True_True_334_143_frequent_False_198_relu_0.463_True_72_relu_0.454_adagrad_0.544_32_87'
p590
I00
sS'96_False_True_304_199_all_True_407_relu_0.166_True_26_relu_0.191_adagrad_1.042_151_41'
p591
I00
sS'80_True_True_216_134_frequent_False_26_relu_0.579_True_91_relu_0.064_adagrad_1.685_177_35'
p592
I00
sS'24_True_False_470_119_frequent_False_399_relu_0.175_False_98_relu_0.343_adagrad_0.114_69_81'
p593
I00
sS'15_True_True_45_62_all_False_129_relu_0.215_False_3_relu_0.585_adagrad_0.225_162_93'
p594
I00
sS'85_False_False_433_6_compact_False_494_relu_0.586_True_84_relu_0.355_adagrad_1.471_125_72'
p595
I00
sS'47_False_True_378_11_compact_False_426_relu_0.401_True_25_relu_0.381_adagrad_0.754_151_37'
p596
I00
sS'90_True_True_389_85_frequent_True_511_relu_0.279_False_41_relu_0.442_adagrad_1.975_185_85'
p597
I00
sS'97_True_True_337_171_frequent_False_502_relu_0.508_False_34_relu_0.034_adagrad_1.969_246_37'
p598
I00
sS'3_False_False_270_104_compact_False_224_relu_0.352_True_107_relu_0.114_adagrad_1.456_30_58'
p599
I00
sS'56_True_False_164_69_frequent_True_8_relu_0.211_True_56_relu_0.426_adagrad_1.977_250_77'
p600
I00
sS'91_True_True_296_161_compact_True_186_relu_0.013_True_68_relu_0.286_adagrad_0.995_21_36'
p601
I00
sS'0_False_True_271_195_all_True_479_relu_0.179_False_42_relu_0.17_adagrad_0.532_92_48'
p602
I00
sS'17_True_False_424_77_frequent_False_153_relu_0.259_False_102_relu_0.563_adagrad_1.444_64_52'
p603
I00
sS'8_False_True_136_59_all_True_259_relu_0.398_True_38_relu_0.078_adagrad_0.892_117_86'
p604
I00
sS'82_True_True_291_66_all_False_390_relu_0.363_False_85_relu_0.03_adagrad_1.345_168_42'
p605
I00
sS'67_True_False_498_91_all_True_246_relu_0.417_False_18_relu_0.513_adagrad_0.954_191_57'
p606
I00
sS'35_True_False_349_54_compact_True_253_relu_0.374_False_60_relu_0.485_adagrad_0.543_77_39'
p607
I00
sS'1_True_True_433_56_compact_False_277_relu_0.083_False_41_relu_0.558_adagrad_0.014_191_48'
p608
I00
sS'14_False_False_391_26_all_True_141_relu_0.552_True_44_relu_0.127_adagrad_0.734_217_32'
p609
I00
sS'89_False_False_233_13_frequent_False_444_relu_0.471_False_48_relu_0.385_adagrad_0.436_228_40'
p610
I00
sS'24_True_False_131_42_compact_False_347_relu_0.583_True_9_relu_0.034_adagrad_1.147_220_63'
p611
I00
sS'0_False_False_24_183_frequent_False_188_relu_0.302_True_3_relu_0.386_adagrad_1.468_237_59'
p612
I00
sS'28_True_True_141_199_all_False_39_relu_0.503_True_89_relu_0.202_adagrad_1.969_186_52'
p613
I00
sS'31_False_False_241_165_compact_True_455_relu_0.056_True_127_relu_0.156_adagrad_0.364_207_55'
p614
I00
sS'23_True_True_382_113_compact_False_266_relu_0.108_False_38_relu_0.281_adagrad_0.749_212_69'
p615
I00
sS'82_True_True_72_174_compact_False_380_relu_0.251_True_78_relu_0.057_adagrad_1.848_171_91'
p616
I00
sS'65_False_False_61_106_frequent_True_237_relu_0.085_True_27_relu_0.577_adagrad_1.737_56_51'
p617
I00
sS'27_False_False_407_54_all_False_110_relu_0.037_True_84_relu_0.444_adagrad_1.421_160_97'
p618
I00
sS'36_True_True_417_108_compact_True_91_relu_0.522_True_127_relu_0.36_adagrad_0.288_30_89'
p619
I00
sS'39_False_False_247_127_all_False_267_relu_0.346_True_81_relu_0.186_adagrad_1.546_133_40'
p620
I00
sS'62_False_True_427_170_compact_True_266_relu_0.2_True_45_relu_0.061_adagrad_0.934_118_87'
p621
I00
sS'89_True_False_374_182_frequent_False_108_relu_0.184_True_90_relu_0.119_adagrad_0.641_124_45'
p622
I00
sS'33_False_False_131_47_frequent_False_401_relu_0.107_False_96_relu_0.282_adagrad_1.876_186_69'
p623
I00
sS'1_False_True_363_165_frequent_False_432_relu_0.07_False_76_relu_0.259_adagrad_1.6_99_84'
p624
I00
sS'99_False_False_395_192_frequent_False_94_relu_0.089_True_60_relu_0.368_adagrad_0.294_183_93'
p625
I00
sS'2_True_False_21_175_frequent_False_389_relu_0.33_True_116_relu_0.528_adagrad_0.039_237_53'
p626
I00
sS'67_False_False_203_86_compact_True_340_relu_0.245_True_45_relu_0.227_adagrad_0.838_136_40'
p627
I00
sS'47_True_False_89_148_all_True_412_relu_0.373_True_21_relu_0.477_adagrad_0.111_169_45'
p628
I00
sS'96_False_False_91_177_frequent_True_104_relu_0.177_True_24_relu_0.418_adagrad_0.194_23_56'
p629
I00
sS'26_True_False_328_168_all_False_16_relu_0.566_False_85_relu_0.165_adagrad_1.109_226_79'
p630
I00
sS'56_True_False_277_186_compact_False_14_relu_0.363_False_112_relu_0.127_adagrad_1.033_223_67'
p631
g25
sS'37_True_True_235_79_frequent_True_44_relu_0.225_True_7_relu_0.401_adagrad_1.19_17_57'
p632
I00
sS'26_True_True_405_187_all_True_339_relu_0.546_True_22_relu_0.454_adagrad_0.118_67_73'
p633
I00
sS'53_False_False_48_47_frequent_True_380_relu_0.162_True_54_relu_0.025_adagrad_0.654_214_53'
p634
I00
sS'61_False_False_378_102_frequent_False_162_relu_0.589_False_14_relu_0.089_adagrad_0.317_237_95'
p635
I00
sS'90_False_True_173_146_frequent_True_21_relu_0.331_True_109_relu_0.476_adagrad_1.127_18_70'
p636
I00
sS'52_True_True_242_5_all_True_383_relu_0.087_True_25_relu_0.466_adagrad_1.874_31_38'
p637
I00
sS'95_False_False_294_8_all_True_172_relu_0.085_True_19_relu_0.389_adagrad_1.893_95_69'
p638
I00
sS'39_False_False_153_44_compact_False_177_relu_0.572_True_60_relu_0.517_adagrad_1.7_33_98'
p639
I00
sS'43_True_False_459_84_compact_True_370_relu_0.421_False_1_relu_0.071_adagrad_0.278_94_95'
p640
I00
sS'32_False_True_290_85_all_False_32_relu_0.421_False_89_relu_0.238_adagrad_1.313_131_74'
p641
I00
sS'89_False_False_259_149_compact_False_226_relu_0.523_True_123_relu_0.019_adagrad_0.921_16_66'
p642
I00
sS'0_False_False_306_18_compact_False_298_relu_0.15_True_57_relu_0.468_adagrad_1.406_186_43'
p643
I00
sS'24_False_False_199_154_compact_True_424_relu_0.586_True_82_relu_0.363_adagrad_0.363_43_45'
p644
I00
sS'27_False_True_47_62_all_True_191_relu_0.283_False_122_relu_0.145_adagrad_0.668_20_86'
p645
I00
sS'78_True_False_255_87_frequent_True_366_relu_0.465_True_126_relu_0.045_adagrad_0.893_193_70'
p646
I00
sS'38_True_True_371_166_all_True_385_relu_0.035_True_43_relu_0.431_adagrad_1.271_103_96'
p647
I00
sS'4_True_False_454_88_compact_False_216_relu_0.549_False_41_relu_0.579_adagrad_1.134_41_57'
p648
I00
sS'27_True_True_397_108_all_False_31_relu_0.437_True_37_relu_0.206_adagrad_0.838_56_56'
p649
I00
sS'24_False_True_81_185_frequent_False_407_relu_0.259_False_82_relu_0.578_adagrad_1.205_224_42'
p650
g25
sS'12_True_True_218_134_compact_True_218_relu_0.594_False_6_relu_0.548_adagrad_1.493_143_57'
p651
I00
sS'62_True_False_200_163_all_False_450_relu_0.215_True_54_relu_0.029_adagrad_0.937_233_49'
p652
I00
sS'31_True_False_351_88_frequent_False_280_relu_0.525_True_49_relu_0.188_adagrad_1.643_111_90'
p653
I00
sS'69_True_True_96_87_compact_False_301_relu_0.316_True_10_relu_0.593_adagrad_1.544_169_72'
p654
I00
sS'42_False_False_51_154_compact_True_125_relu_0.209_False_111_relu_0.58_adagrad_0.906_127_86'
p655
I00
sS'41_True_False_308_124_compact_True_286_relu_0.132_False_70_relu_0.235_adagrad_1.276_85_59'
p656
I00
sS'23_False_True_352_193_all_False_6_relu_0.302_False_54_relu_0.33_adagrad_0.332_78_35'
p657
I00
sS'14_True_False_326_185_frequent_True_183_relu_0.246_False_101_relu_0.107_adagrad_1.081_100_35'
p658
I00
sS'79_True_True_154_145_all_True_286_relu_0.182_True_94_relu_0.355_adagrad_1.221_213_41'
p659
I00
sS'86_False_False_420_141_all_False_438_relu_0.431_True_93_relu_0.305_adagrad_0.189_187_84'
p660
I00
sS'19_False_True_459_47_compact_True_110_relu_0.131_False_39_relu_0.041_adagrad_1.357_117_54'
p661
I00
sS'75_True_False_478_52_all_False_230_relu_0.047_False_66_relu_0.07_adagrad_1.152_195_82'
p662
I00
sS'58_True_False_488_26_compact_True_73_relu_0.027_True_112_relu_0.104_adagrad_0.86_138_40'
p663
I00
sS'26_False_True_374_173_compact_True_196_relu_0.508_False_5_relu_0.176_adagrad_1.867_173_70'
p664
I00
sS'34_True_False_64_96_compact_False_406_relu_0.107_True_18_relu_0.36_adagrad_0.668_205_67'
p665
I00
sS'87_True_True_111_63_compact_False_220_relu_0.144_True_48_relu_0.31_adagrad_0.669_248_76'
p666
I00
sS'82_False_False_195_163_all_True_195_relu_0.244_True_10_relu_0.051_adagrad_1.022_126_98'
p667
I00
sS'72_True_True_166_128_compact_False_422_relu_0.068_False_3_relu_0.505_adagrad_1.063_60_73'
p668
I00
sS'49_False_False_137_30_all_False_189_relu_0.276_True_46_relu_0.499_adagrad_0.673_226_53'
p669
I00
sS'10_False_False_326_161_frequent_True_190_relu_0.162_True_35_relu_0.42_adagrad_1.649_129_43'
p670
I00
sS'91_False_True_179_20_frequent_True_98_relu_0.163_False_108_relu_0.133_adagrad_1.254_98_82'
p671
I00
sS'47_True_False_318_5_compact_True_71_relu_0.187_False_47_relu_0.303_adagrad_0.028_249_96'
p672
I00
sS'21_False_True_185_169_compact_True_426_relu_0.23_True_2_relu_0.266_adagrad_0.943_96_69'
p673
I00
sS'1_True_True_151_68_frequent_True_149_relu_0.056_False_47_relu_0.062_adagrad_1.107_143_61'
p674
I00
sS'8_True_True_432_19_compact_False_466_relu_0.591_False_7_relu_0.25_adagrad_1.364_213_34'
p675
I00
sS'44_False_True_354_67_frequent_True_159_relu_0.033_True_12_relu_0.339_adagrad_0.832_31_49'
p676
I00
sS'33_False_True_244_195_frequent_False_484_relu_0.034_False_80_relu_0.366_adagrad_1.451_210_37'
p677
I00
sS'34_False_True_137_50_compact_True_495_relu_0.472_False_3_relu_0.419_adagrad_1.073_163_57'
p678
I00
sS'33_True_True_228_26_compact_False_418_relu_0.368_True_14_relu_0.117_adagrad_1.843_219_75'
p679
I00
sS'41_True_True_234_26_frequent_True_312_relu_0.567_False_48_relu_0.307_adagrad_1.147_149_66'
p680
I00
sS'20_False_True_489_157_all_False_255_relu_0.568_False_42_relu_0.395_adagrad_1.028_71_90'
p681
I00
sS'36_False_False_150_133_compact_True_85_relu_0.27_False_116_relu_0.325_adagrad_0.449_213_68'
p682
I00
sS'84_True_False_450_30_compact_False_152_relu_0.545_True_20_relu_0.076_adagrad_1.31_165_76'
p683
I00
sS'0_False_False_375_105_all_True_30_relu_0.166_True_116_relu_0.499_adagrad_0.264_72_44'
p684
I00
sS'59_True_False_352_49_compact_True_228_relu_0.475_False_110_relu_0.512_adagrad_1.999_234_91'
p685
I00
sS'67_True_True_300_51_all_False_53_relu_0.229_True_81_relu_0.2_adagrad_0.119_143_76'
p686
I00
sS'56_True_False_488_24_compact_True_481_relu_0.398_True_72_relu_0.315_adagrad_1.985_95_65'
p687
I00
sS'50_False_False_335_87_compact_True_477_relu_0.213_False_111_relu_0.096_adagrad_1.926_109_80'
p688
I00
sS'88_True_False_158_132_compact_True_456_relu_0.438_False_111_relu_0.08_adagrad_1.39_111_51'
p689
I00
sS'95_False_False_94_165_frequent_False_447_relu_0.19_True_29_relu_0.055_adagrad_0.957_233_83'
p690
g25
sS'76_False_True_419_81_all_True_377_relu_0.254_True_112_relu_0.197_adagrad_0.24_24_67'
p691
I00
sS'47_False_False_169_154_frequent_True_334_relu_0.123_True_79_relu_0.218_adagrad_1.474_77_64'
p692
I00
sS'23_True_False_445_108_all_False_291_relu_0.566_True_50_relu_0.319_adagrad_0.62_63_68'
p693
I00
sS'30_True_True_135_184_all_True_42_relu_0.107_True_66_relu_0.171_adagrad_1.553_58_96'
p694
I00
sS'71_False_False_443_123_compact_False_397_relu_0.096_False_57_relu_0.397_adagrad_0.316_193_83'
p695
I00
sS'46_True_True_92_19_compact_True_385_relu_0.309_False_79_relu_0.469_adagrad_1.183_86_99'
p696
I00
sS'20_True_False_179_112_frequent_True_66_relu_0.576_True_65_relu_0.055_adagrad_0.956_82_44'
p697
I00
sS'64_False_True_204_42_all_True_38_relu_0.551_True_96_relu_0.414_adagrad_0.522_48_45'
p698
I00
sS'53_False_False_456_170_frequent_False_195_relu_0.582_False_110_relu_0.35_adagrad_1.073_77_62'
p699
I00
sS'25_False_False_357_65_frequent_True_25_relu_0.132_True_22_relu_0.336_adagrad_0.802_180_68'
p700
I00
sS'52_True_True_497_95_compact_True_155_relu_0.056_False_127_relu_0.152_adagrad_0.578_219_31'
p701
I00
sS'7_False_False_287_139_compact_True_322_relu_0.573_True_112_relu_0.09_adagrad_1.549_175_71'
p702
I00
sS'66_False_True_468_44_frequent_False_304_relu_0.422_True_38_relu_0.005_adagrad_0.435_115_47'
p703
I00
sS'42_True_False_54_179_all_True_144_relu_0.126_True_14_relu_0.27_adagrad_0.826_125_83'
p704
I00
sS'50_False_False_128_93_all_False_213_relu_0.045_False_35_relu_0.1_adagrad_0.207_30_97'
p705
I00
sS'83_True_True_230_96_compact_True_184_relu_0.401_False_115_relu_0.045_adagrad_1.29_230_62'
p706
I00
sS'83_False_False_380_5_compact_True_113_relu_0.377_True_94_relu_0.269_adagrad_0.086_249_32'
p707
I00
sS'51_True_True_143_44_all_True_491_relu_0.567_False_91_relu_0.316_adagrad_1.999_121_39'
p708
I00
sS'67_True_False_491_46_compact_False_436_relu_0.013_False_46_relu_0.263_adagrad_0.808_32_62'
p709
I00
sS'33_False_False_286_183_all_False_196_relu_0.305_True_36_relu_0.099_adagrad_0.57_226_77'
p710
I00
sS'8_False_True_185_137_compact_False_415_relu_0.527_False_45_relu_0.426_adagrad_0.687_81_60'
p711
I00
sS'91_True_True_410_66_all_False_177_relu_0.238_True_41_relu_0.077_adagrad_1.419_212_69'
p712
I00
sS'96_True_False_402_121_frequent_False_297_relu_0.492_False_48_relu_0.411_adagrad_1.436_38_77'
p713
I00
sS'40_True_False_138_145_compact_False_367_relu_0.22_True_89_relu_0.118_adagrad_1.676_212_51'
p714
I00
sS'64_True_False_112_78_frequent_False_215_relu_0.346_False_73_relu_0.116_adagrad_0.535_100_79'
p715
I00
sS'31_False_True_59_117_all_True_463_relu_0.058_False_107_relu_0.002_adagrad_1.545_102_59'
p716
I00
sS'98_False_True_184_158_compact_False_19_relu_0.126_True_29_relu_0.051_adagrad_0.267_50_75'
p717
I00
sS'81_False_False_282_137_frequent_True_402_relu_0.275_False_78_relu_0.399_adagrad_0.668_50_52'
p718
I00
sS'4_False_True_159_27_compact_False_134_relu_0.222_True_9_relu_0.267_adagrad_0.553_111_86'
p719
I00
sS'99_False_True_50_95_compact_False_189_relu_0.06_False_109_relu_0.084_adagrad_1.904_41_86'
p720
I00
sS'63_False_True_322_175_frequent_True_191_relu_0.171_True_21_relu_0.281_adagrad_1.325_89_54'
p721
I00
sS'75_False_False_45_150_all_False_160_relu_0.3_True_38_relu_0.506_adagrad_0.425_174_82'
p722
I00
sS'71_True_False_424_36_all_False_488_relu_0.453_False_30_relu_0.44_adagrad_0.527_147_43'
p723
I00
sS'22_True_True_466_19_all_False_139_relu_0.053_False_0_relu_0.567_adagrad_1.245_235_32'
p724
I00
sS'48_False_True_104_41_compact_False_314_relu_0.236_False_71_relu_0.42_adagrad_0.042_160_87'
p725
I00
sS'12_False_True_164_192_compact_True_315_relu_0.28_True_22_relu_0.556_adagrad_0.451_71_45'
p726
I00
sS'29_False_False_92_178_all_True_245_relu_0.091_True_15_relu_0.565_adagrad_0.313_102_51'
p727
I00
sS'69_False_True_468_17_all_False_417_relu_0.383_False_120_relu_0.513_adagrad_1.025_190_75'
p728
I00
sS'99_False_True_272_50_frequent_True_422_relu_0.548_True_122_relu_0.472_adagrad_1.558_221_38'
p729
I00
sS'22_True_False_163_134_frequent_True_239_relu_0.461_True_116_relu_0.222_adagrad_1.911_149_30'
p730
I00
sS'28_True_True_338_163_compact_True_11_relu_0.302_False_55_relu_0.165_adagrad_0.481_72_36'
p731
I00
sS'62_True_True_82_29_frequent_False_73_relu_0.286_False_50_relu_0.09_adagrad_0.408_140_92'
p732
I00
sS'24_False_False_442_50_compact_False_489_relu_0.58_False_118_relu_0.232_adagrad_0.974_136_98'
p733
I00
sS'57_False_False_254_161_compact_False_294_relu_0.149_False_104_relu_0.362_adagrad_1.449_22_52'
p734
I00
sS'73_True_True_406_31_frequent_False_52_relu_0.16_True_117_relu_0.004_adagrad_0.088_215_43'
p735
I00
sS'70_False_False_461_157_frequent_False_357_relu_0.494_False_18_relu_0.156_adagrad_0.764_157_40'
p736
g25
sS'11_False_False_144_119_compact_True_485_relu_0.287_True_47_relu_0.059_adagrad_1.444_213_95'
p737
I00
sS'88_True_False_45_122_compact_False_227_relu_0.095_False_90_relu_0.5_adagrad_1.69_71_69'
p738
I00
sS'43_True_False_452_22_frequent_True_273_relu_0.002_True_98_relu_0.59_adagrad_1.638_67_52'
p739
I00
sS'42_False_False_418_184_frequent_True_149_relu_0.388_True_115_relu_0.377_adagrad_0.456_176_91'
p740
g25
sS'5_True_True_64_34_frequent_False_404_relu_0.114_False_49_relu_0.094_adagrad_1.499_252_36'
p741
I00
sS'25_False_True_412_58_compact_True_205_relu_0.558_True_107_relu_0.418_adagrad_0.086_120_38'
p742
I00
sS'34_True_False_482_162_compact_True_100_relu_0.251_True_109_relu_0.31_adagrad_0.39_64_54'
p743
I00
sS'85_False_False_402_116_compact_False_481_relu_0.256_False_56_relu_0.312_adagrad_1.297_229_79'
p744
I00
sS'41_False_True_292_148_all_True_297_relu_0.4_False_114_relu_0.187_adagrad_1.472_146_89'
p745
I00
sS'25_True_True_142_28_compact_False_335_relu_0.503_True_54_relu_0.449_adagrad_1.119_169_55'
p746
I00
sS'22_True_True_165_129_all_False_384_relu_0.546_True_36_relu_0.347_adagrad_1.095_99_56'
p747
I00
sS'53_False_True_478_161_frequent_False_508_relu_0.133_False_16_relu_0.347_adagrad_1.331_201_83'
p748
I00
sS'20_False_False_301_150_compact_True_425_relu_0.069_False_106_relu_0.354_adagrad_1.656_160_85'
p749
I00
sS'40_True_False_301_115_frequent_True_106_relu_0.166_False_1_relu_0.199_adagrad_0.411_102_59'
p750
I00
sS'96_False_False_42_163_compact_True_390_relu_0.591_True_80_relu_0.372_adagrad_0.734_43_63'
p751
I00
sS'65_False_True_256_179_frequent_True_179_relu_0.116_True_104_relu_0.437_adagrad_1.349_233_43'
p752
I00
sS'70_True_False_97_152_compact_True_212_relu_0.582_True_37_relu_0.398_adagrad_1.755_198_36'
p753
I00
sS'76_True_False_213_128_frequent_False_439_relu_0.197_False_72_relu_0.378_adagrad_1.811_87_96'
p754
I00
sS'69_False_False_420_197_compact_False_403_relu_0.509_True_112_relu_0.412_adagrad_1.382_219_99'
p755
I00
sS'11_False_True_333_38_all_True_282_relu_0.268_False_12_relu_0.453_adagrad_0.721_226_40'
p756
g25
sS'12_False_False_496_172_frequent_False_314_relu_0.13_True_93_relu_0.333_adagrad_1.611_83_48'
p757
I00
sS'20_False_True_101_189_compact_False_359_relu_0.318_True_66_relu_0.57_adagrad_0.349_173_81'
p758
I00
sS'49_False_False_495_19_all_False_148_relu_0.169_False_23_relu_0.425_adagrad_0.908_16_55'
p759
I00
sS'32_False_False_421_120_frequent_True_362_relu_0.246_True_100_relu_0.386_adagrad_0.841_116_54'
p760
I00
sS'50_False_False_209_179_frequent_True_377_relu_0.087_False_114_relu_0.575_adagrad_0.889_188_50'
p761
I00
sS'50_False_True_247_87_compact_True_53_relu_0.221_True_126_relu_0.378_adagrad_1.948_111_73'
p762
I00
sS'53_False_False_259_127_all_True_107_relu_0.341_True_61_relu_0.482_adagrad_0.428_173_79'
p763
I00
sS'85_True_True_435_35_all_True_382_relu_0.001_False_14_relu_0.216_adagrad_0.739_75_69'
p764
I00
sS'26_False_True_341_76_compact_True_200_relu_0.185_True_42_relu_0.373_adagrad_1.606_101_71'
p765
I00
sS'25_False_True_457_68_compact_False_65_relu_0.494_False_1_relu_0.151_adagrad_1.234_210_91'
p766
I00
sS'77_True_True_89_199_frequent_True_125_relu_0.325_True_35_relu_0.257_adagrad_1.836_105_37'
p767
I00
sS'36_True_False_99_99_compact_True_460_relu_0.504_True_63_relu_0.461_adagrad_1.232_110_35'
p768
I00
sS'22_True_True_315_181_frequent_True_248_relu_0.433_True_3_relu_0.271_adagrad_1.135_119_81'
p769
I00
sS'57_False_False_322_124_compact_False_252_relu_0.095_False_36_relu_0.319_adagrad_1.801_216_39'
p770
I00
sS'18_False_False_223_145_compact_True_103_relu_0.276_True_25_relu_0.143_adagrad_1.83_25_76'
p771
I00
sS'75_True_True_90_31_compact_False_61_relu_0.576_True_103_relu_0.239_adagrad_1.003_205_60'
p772
I00
sS'36_False_False_20_181_all_False_254_relu_0.078_False_44_relu_0.171_adagrad_0.825_231_75'
p773
I00
sS'11_True_True_96_99_compact_False_251_relu_0.555_True_27_relu_0.209_adagrad_0.315_50_90'
p774
I00
sS'56_False_True_149_146_frequent_False_107_relu_0.559_False_56_relu_0.08_adagrad_0.763_109_79'
p775
I00
sS'1_True_False_227_175_all_False_232_relu_0.384_False_23_relu_0.494_adagrad_0.134_202_93'
p776
I00
sS'66_True_True_49_175_frequent_True_156_relu_0.077_True_52_relu_0.351_adagrad_1.527_255_44'
p777
I00
sS'11_False_False_269_192_compact_False_234_relu_0.443_True_71_relu_0.19_adagrad_1.358_189_99'
p778
g25
sS'69_True_False_417_190_frequent_True_197_relu_0.142_True_116_relu_0.044_adagrad_0.297_58_93'
p779
I00
sS'26_True_True_226_64_frequent_False_305_relu_0.358_True_126_relu_0.193_adagrad_0.165_151_92'
p780
I00
sS'36_True_True_485_19_all_True_411_relu_0.15_True_86_relu_0.27_adagrad_1.651_40_55'
p781
I00
sS'98_False_False_22_193_frequent_True_163_relu_0.419_True_118_relu_0.189_adagrad_1.465_221_68'
p782
I00
sS'37_False_False_150_99_frequent_True_332_relu_0.358_False_51_relu_0.016_adagrad_1.095_129_61'
p783
I00
sS'55_False_False_437_45_frequent_False_43_relu_0.216_True_80_relu_0.064_adagrad_0.72_133_34'
p784
I00
sS'77_True_True_256_136_all_False_241_relu_0.329_False_116_relu_0.333_adagrad_0.912_139_91'
p785
I00
sS'75_True_True_328_37_all_False_77_relu_0.113_False_119_relu_0.562_adagrad_0.39_157_74'
p786
I00
sS'4_True_True_374_187_frequent_False_431_relu_0.032_True_7_relu_0.417_adagrad_0.133_94_73'
p787
I00
sS'75_False_True_407_195_all_True_304_relu_0.403_False_83_relu_0.16_adagrad_1.537_62_56'
p788
I00
sS'22_True_False_446_9_all_True_285_relu_0.477_False_122_relu_0.297_adagrad_0.469_39_32'
p789
I00
sS'56_True_False_364_176_compact_True_237_relu_0.554_False_78_relu_0.134_adagrad_0.44_196_69'
p790
I00
sS'40_False_False_21_93_compact_True_31_relu_0.395_True_85_relu_0.565_adagrad_0.093_253_72'
p791
I00
sS'13_True_False_172_84_frequent_False_355_relu_0.546_False_113_relu_0.148_adagrad_0.447_31_78'
p792
I00
sS'48_True_False_282_195_all_False_378_relu_0.304_False_89_relu_0.465_adagrad_0.415_239_59'
p793
I00
sS'70_True_True_291_52_frequent_False_441_relu_0.488_True_72_relu_0.532_adagrad_0.916_74_65'
p794
I00
sS'49_False_True_149_119_all_True_150_relu_0.313_True_111_relu_0.11_adagrad_0.945_254_89'
p795
I00
sS'44_True_True_268_104_all_True_224_relu_0.009_False_59_relu_0.135_adagrad_1.495_205_35'
p796
I00
sS'22_False_False_493_170_compact_False_394_relu_0.023_False_7_relu_0.268_adagrad_0.195_172_86'
p797
I00
sS'82_True_False_360_175_compact_False_442_relu_0.165_True_70_relu_0.299_adagrad_0.776_205_32'
p798
I00
sS'82_False_True_234_99_frequent_False_280_relu_0.489_False_4_relu_0.418_adagrad_1.95_200_92'
p799
I00
sS'98_False_False_248_153_compact_False_469_relu_0.118_False_69_relu_0.356_adagrad_1.64_231_91'
p800
I00
sS'3_True_True_46_177_frequent_False_94_relu_0.078_True_77_relu_0.337_adagrad_1.821_85_91'
p801
I00
sS'20_False_False_425_108_compact_True_328_relu_0.405_False_82_relu_0.524_adagrad_1.508_240_79'
p802
I00
sS'61_True_False_197_182_frequent_True_330_relu_0.35_True_35_relu_0.561_adagrad_1.397_126_50'
p803
I00
sS'43_False_False_363_197_frequent_True_5_relu_0.09_False_98_relu_0.061_adagrad_1.072_240_75'
p804
I00
sS'23_True_False_478_69_all_True_317_relu_0.476_True_55_relu_0.526_adagrad_1.469_29_74'
p805
I00
sS'66_False_True_125_184_compact_True_238_relu_0.176_False_7_relu_0.229_adagrad_0.788_106_69'
p806
I00
sS'46_True_True_280_175_frequent_True_218_relu_0.495_False_95_relu_0.275_adagrad_0.868_39_81'
p807
I00
sS'4_False_True_48_92_all_True_398_relu_0.462_False_82_relu_0.504_adagrad_1.904_158_87'
p808
I00
sS'45_False_False_423_133_all_True_274_relu_0.096_False_28_relu_0.43_adagrad_1.251_237_94'
p809
I00
sS'82_True_True_187_193_compact_True_65_relu_0.247_True_91_relu_0.212_adagrad_1.114_134_48'
p810
I00
sS'82_True_False_243_86_frequent_True_2_relu_0.212_True_47_relu_0.057_adagrad_1.489_127_37'
p811
I00
sS'26_True_True_68_122_frequent_False_2_relu_0.377_False_72_relu_0.261_adagrad_1.33_221_87'
p812
I00
sS'89_False_True_350_104_compact_True_237_relu_0.455_True_116_relu_0.041_adagrad_1.432_161_93'
p813
I00
sS'56_False_True_464_46_compact_False_471_relu_0.585_True_21_relu_0.159_adagrad_1.615_50_67'
p814
I00
sS'70_True_True_283_125_frequent_True_510_relu_0.31_False_62_relu_0.579_adagrad_1.022_224_92'
p815
I00
sS'51_True_True_193_85_frequent_True_357_relu_0.483_True_62_relu_0.278_adagrad_0.822_193_94'
p816
I00
sS'48_True_True_243_75_frequent_False_289_relu_0.384_True_39_relu_0.588_adagrad_0.094_69_57'
p817
I00
sS'39_True_True_443_39_compact_False_27_relu_0.381_False_125_relu_0.396_adagrad_0.731_125_56'
p818
I00
sS'37_True_True_84_60_all_True_201_relu_0.409_True_10_relu_0.474_adagrad_1.051_183_39'
p819
I00
sS'33_True_True_119_197_frequent_True_198_relu_0.537_False_104_relu_0.397_adagrad_1.696_17_84'
p820
I00
sS'28_False_True_65_136_frequent_True_64_relu_0.279_True_74_relu_0.372_adagrad_0.92_182_60'
p821
I00
sS'18_True_True_338_143_frequent_False_235_relu_0.506_False_9_relu_0.592_adagrad_0.903_131_97'
p822
I00
sS'89_True_True_405_61_compact_False_264_relu_0.035_False_34_relu_0.279_adagrad_0.205_161_86'
p823
I00
sS'1_False_True_335_143_frequent_True_380_relu_0.046_False_41_relu_0.16_adagrad_1.674_153_67'
p824
I00
sS'27_False_False_129_49_all_False_16_relu_0.265_False_48_relu_0.064_adagrad_0.335_102_61'
p825
I00
sS'30_False_True_193_36_compact_False_105_relu_0.147_False_86_relu_0.533_adagrad_0.145_38_30'
p826
I00
sS'24_False_True_422_179_compact_False_165_relu_0.564_False_28_relu_0.231_adagrad_1.041_77_95'
p827
I00
sS'9_True_False_286_26_frequent_True_103_relu_0.588_False_1_relu_0.591_adagrad_0.088_235_39'
p828
I00
sS'27_True_True_274_60_all_True_389_relu_0.439_True_5_relu_0.061_adagrad_0.677_242_32'
p829
I00
sS'87_True_True_116_76_compact_False_260_relu_0.307_True_126_relu_0.08_adagrad_0.776_233_82'
p830
I00
sS'75_True_False_439_158_frequent_False_236_relu_0.055_False_28_relu_0.272_adagrad_0.954_128_55'
p831
I00
sS'24_True_True_362_141_all_True_8_relu_0.198_False_20_relu_0.391_adagrad_0.947_18_76'
p832
I00
sS'86_True_True_182_138_compact_False_481_relu_0.085_True_89_relu_0.103_adagrad_1.361_137_82'
p833
I00
sS'6_False_True_408_49_all_False_198_relu_0.335_False_52_relu_0.102_adagrad_0.834_40_91'
p834
I00
sS'91_False_False_318_29_all_True_116_relu_0.459_True_1_relu_0.498_adagrad_1.168_42_58'
p835
I00
sS'76_True_True_376_18_frequent_True_102_relu_0.112_False_108_relu_0.092_adagrad_1.798_101_66'
p836
I00
sS'2_True_False_451_61_frequent_False_184_relu_0.226_False_14_relu_0.327_adagrad_0.953_225_66'
p837
I00
sS'21_True_True_254_6_frequent_True_325_relu_0.437_True_117_relu_0.18_adagrad_0.545_171_89'
p838
I00
sS'86_True_True_256_39_compact_True_22_relu_0.321_False_43_relu_0.485_adagrad_0.852_250_59'
p839
I00
sS'28_False_False_485_147_frequent_False_242_relu_0.465_False_116_relu_0.523_adagrad_0.945_67_30'
p840
I00
sS'56_False_False_241_78_compact_True_392_relu_0.158_True_96_relu_0.243_adagrad_1.537_89_52'
p841
I00
sS'1_True_False_279_107_compact_True_55_relu_0.195_False_58_relu_0.456_adagrad_1.458_64_52'
p842
I00
sS'38_False_False_51_157_all_False_473_relu_0.119_False_20_relu_0.151_adagrad_0.287_47_91'
p843
I00
sS'54_True_True_148_52_frequent_False_227_relu_0.155_True_59_relu_0.049_adagrad_1.29_116_44'
p844
I00
sS'97_False_False_425_12_all_True_423_relu_0.021_False_47_relu_0.466_adagrad_0.59_235_65'
p845
I00
sS'30_False_True_72_74_compact_False_333_relu_0.382_False_89_relu_0.478_adagrad_1.915_79_38'
p846
I00
sS'68_True_False_464_51_frequent_True_26_relu_0.489_False_95_relu_0.561_adagrad_0.282_216_55'
p847
g25
sS'69_False_False_461_100_compact_True_143_relu_0.57_True_52_relu_0.506_adagrad_0.555_204_36'
p848
g25
sS'78_True_False_437_22_compact_True_160_relu_0.174_False_54_relu_0.537_adagrad_0.737_197_60'
p849
I00
sS'98_True_False_258_100_all_False_109_relu_0.129_False_78_relu_0.578_adagrad_0.716_64_31'
p850
I00
sS'8_True_True_94_33_compact_True_402_relu_0.496_True_65_relu_0.334_adagrad_0.013_215_77'
p851
I00
sS'52_True_False_22_32_all_True_122_relu_0.264_False_108_relu_0.502_adagrad_0.279_147_94'
p852
I00
sS'53_False_False_249_137_frequent_False_339_relu_0.563_False_0_relu_0.286_adagrad_0.595_229_80'
p853
I00
sS'86_False_False_376_168_frequent_True_148_relu_0.106_True_83_relu_0.398_adagrad_1.421_234_33'
p854
I00
sS'83_False_True_183_18_all_False_433_relu_0.184_True_69_relu_0.137_adagrad_0.419_151_59'
p855
I00
sS'99_True_False_422_67_all_True_157_relu_0.411_True_106_relu_0.55_adagrad_1.987_164_84'
p856
I00
sS'23_False_True_169_5_all_True_333_relu_0.261_True_29_relu_0.399_adagrad_0.421_109_78'
p857
I00
sS'81_False_True_232_60_compact_True_0_relu_0.383_True_114_relu_0.048_adagrad_1.538_146_69'
p858
I00
sS'88_False_False_417_44_compact_True_225_relu_0.116_True_62_relu_0.078_adagrad_0.69_16_78'
p859
I00
sS'30_False_True_359_166_all_True_268_relu_0.329_False_28_relu_0.029_adagrad_1.314_60_63'
p860
I00
sS'86_False_True_365_199_frequent_False_294_relu_0.021_False_43_relu_0.325_adagrad_1.56_76_52'
p861
I00
sS'1_True_True_62_138_all_True_388_relu_0.158_False_61_relu_0.39_adagrad_0.55_250_47'
p862
I00
sS'32_False_False_72_134_compact_False_455_relu_0.489_False_6_relu_0.371_adagrad_0.035_213_99'
p863
I00
sS'69_False_False_241_99_compact_False_166_relu_0.094_True_0_relu_0.195_adagrad_1.906_74_82'
p864
I00
sS'83_False_True_59_188_all_False_285_relu_0.253_True_67_relu_0.527_adagrad_1.526_133_54'
p865
I00
sS'43_False_False_154_57_frequent_True_424_relu_0.46_True_77_relu_0.182_adagrad_0.18_249_98'
p866
I00
sS'44_False_True_371_99_compact_False_254_relu_0.593_False_74_relu_0.162_adagrad_0.664_59_70'
p867
I00
sS'79_False_True_234_178_frequent_True_27_relu_0.572_False_127_relu_0.586_adagrad_1.793_95_47'
p868
I00
sS'30_True_True_227_122_compact_False_49_relu_0.213_False_87_relu_0.508_adagrad_0.492_67_55'
p869
I00
sS'33_True_True_403_28_compact_False_379_relu_0.109_False_23_relu_0.314_adagrad_0.761_77_82'
p870
I00
sS'62_False_False_108_13_compact_True_204_relu_0.361_False_78_relu_0.533_adagrad_1.467_91_68'
p871
I00
sS'28_True_False_70_143_frequent_True_325_relu_0.358_True_106_relu_0.361_adagrad_1.782_140_69'
p872
I00
sS'8_False_False_170_10_compact_True_281_relu_0.099_True_74_relu_0.275_adagrad_0.222_51_94'
p873
I00
sS'42_False_True_84_61_all_True_416_relu_0.194_False_51_relu_0.454_adagrad_1.911_69_58'
p874
I00
sS'15_False_True_90_126_all_True_509_relu_0.274_True_21_relu_0.25_adagrad_1.93_151_30'
p875
I00
sS'13_False_False_499_164_frequent_True_458_relu_0.123_True_66_relu_0.073_adagrad_1.947_165_94'
p876
I00
sS'41_False_True_133_111_frequent_False_132_relu_0.061_True_108_relu_0.234_adagrad_1.966_224_86'
p877
I00
sS'75_True_True_163_71_all_True_312_relu_0.373_True_72_relu_0.486_adagrad_0.318_80_93'
p878
I00
sS'5_True_False_499_111_compact_False_177_relu_0.028_True_97_relu_0.283_adagrad_1.492_141_56'
p879
I00
sS'13_True_True_322_7_compact_True_308_relu_0.476_False_34_relu_0.42_adagrad_0.171_182_67'
p880
I00
sS'44_True_True_181_84_all_False_39_relu_0.257_False_124_relu_0.047_adagrad_0.342_248_33'
p881
I00
sS'48_True_True_353_172_all_False_501_relu_0.57_False_75_relu_0.215_adagrad_1.45_133_97'
p882
I00
sS'56_True_False_234_77_all_False_317_relu_0.507_False_65_relu_0.584_adagrad_1.71_87_72'
p883
I00
sS'22_False_False_55_34_frequent_False_110_relu_0.029_True_117_relu_0.374_adagrad_1.12_160_79'
p884
I00
sS'53_True_False_291_147_all_False_235_relu_0.348_False_122_relu_0.067_adagrad_0.127_64_51'
p885
I00
sS'33_True_True_350_110_frequent_False_128_relu_0.373_False_82_relu_0.292_adagrad_1.751_104_42'
p886
I00
sS'58_True_True_149_182_all_False_405_relu_0.577_True_94_relu_0.159_adagrad_1.6_200_84'
p887
I00
sS'41_False_True_209_176_all_True_55_relu_0.179_True_4_relu_0.495_adagrad_0.953_166_99'
p888
I00
sS'71_False_True_197_145_all_False_130_relu_0.406_False_41_relu_0.177_adagrad_1.569_121_78'
p889
I00
sS'40_False_True_435_14_compact_True_441_relu_0.313_True_52_relu_0.572_adagrad_0.252_53_71'
p890
I00
sS'61_False_True_81_85_all_True_283_relu_0.36_False_77_relu_0.134_adagrad_1.253_232_35'
p891
I00
sS'14_True_False_129_41_compact_True_177_relu_0.261_True_77_relu_0.074_adagrad_1.386_22_36'
p892
I00
sS'54_True_False_417_27_all_False_311_relu_0.56_False_108_relu_0.312_adagrad_1.143_70_82'
p893
I00
sS'61_False_True_486_185_frequent_True_253_relu_0.578_True_119_relu_0.011_adagrad_0.305_144_44'
p894
I00
sS'38_False_True_488_36_frequent_True_304_relu_0.528_False_92_relu_0.587_adagrad_1.136_177_56'
p895
I00
sS'92_False_True_114_180_frequent_True_376_relu_0.106_False_54_relu_0.007_adagrad_0.025_255_79'
p896
I00
sS'49_True_False_482_128_compact_True_439_relu_0.517_False_55_relu_0.331_adagrad_0.593_58_56'
p897
I00
sS'96_False_True_288_7_frequent_True_55_relu_0.242_False_50_relu_0.529_adagrad_0.251_142_46'
p898
I00
sS'8_False_True_418_120_frequent_True_227_relu_0.034_False_63_relu_0.312_adagrad_1.223_40_60'
p899
I00
sS'7_False_True_79_185_compact_False_231_relu_0.197_True_113_relu_0.174_adagrad_1.755_133_60'
p900
I00
sS'27_True_True_192_198_all_False_113_relu_0.325_True_4_relu_0.168_adagrad_1.788_105_53'
p901
I00
sS'38_False_True_278_155_frequent_False_5_relu_0.437_True_109_relu_0.497_adagrad_0.55_149_39'
p902
I00
sS'68_False_False_409_146_compact_True_408_relu_0.307_False_38_relu_0.196_adagrad_0.369_155_70'
p903
I00
sS'57_True_True_106_141_frequent_True_439_relu_0.158_False_29_relu_0.026_adagrad_1.748_104_94'
p904
I00
sS'71_False_False_421_87_all_True_478_relu_0.022_False_83_relu_0.245_adagrad_0.961_214_33'
p905
I00
sS'90_True_False_126_157_all_True_459_relu_0.554_False_33_relu_0.153_adagrad_0.833_104_76'
p906
I00
sS'37_True_True_366_155_all_False_240_relu_0.228_True_72_relu_0.376_adagrad_1.554_42_71'
p907
I00
sS'43_False_False_276_54_compact_True_488_relu_0.559_True_36_relu_0.478_adagrad_1.204_249_68'
p908
I00
sS'90_True_True_83_178_all_True_249_relu_0.199_True_23_relu_0.393_adagrad_1.844_56_81'
p909
I00
sS'90_False_True_335_21_compact_True_289_relu_0.105_False_37_relu_0.144_adagrad_1.575_173_39'
p910
I00
sS'90_True_False_479_25_compact_False_256_relu_0.488_True_38_relu_0.288_adagrad_1.837_252_52'
p911
I00
sS'42_True_True_393_112_frequent_False_165_relu_0.36_False_34_relu_0.033_adagrad_0.566_161_61'
p912
I00
sS'10_False_True_98_176_compact_True_87_relu_0.074_True_109_relu_0.232_adagrad_1.604_212_43'
p913
I00
sS'72_True_False_162_22_frequent_False_493_relu_0.248_True_31_relu_0.486_adagrad_0.354_18_66'
p914
I00
sS'22_True_False_423_114_compact_True_290_relu_0.158_True_123_relu_0.065_adagrad_1.971_189_90'
p915
I00
sS'51_False_False_279_188_frequent_True_86_relu_0.524_True_104_relu_0.48_adagrad_1.904_131_59'
p916
I00
sS'99_False_False_111_129_all_False_431_relu_0.075_False_112_relu_0.2_adagrad_1.279_31_40'
p917
I00
sS'32_False_False_449_29_all_True_282_relu_0.399_False_8_relu_0.454_adagrad_1.739_83_62'
p918
I00
sS'50_True_True_374_169_frequent_False_9_relu_0.127_False_117_relu_0.354_adagrad_0.846_124_88'
p919
I00
sS'92_False_True_186_52_frequent_False_335_relu_0.419_False_107_relu_0.135_adagrad_0.072_48_33'
p920
I00
sS'89_True_True_74_150_frequent_True_281_relu_0.293_False_34_relu_0.426_adagrad_0.126_224_87'
p921
I00
sS'20_False_True_402_46_compact_False_218_relu_0.159_True_15_relu_0.419_adagrad_1.875_199_49'
p922
I00
sS'48_True_True_493_32_frequent_True_240_relu_0.16_True_49_relu_0.118_adagrad_0.465_120_79'
p923
I00
sS'84_True_False_116_51_all_True_301_relu_0.593_False_115_relu_0.43_adagrad_1.11_183_46'
p924
I00
sS'78_True_False_54_82_frequent_False_392_relu_0.456_True_25_relu_0.232_adagrad_1.086_236_40'
p925
I00
sS'83_True_False_451_100_compact_True_417_relu_0.237_True_41_relu_0.184_adagrad_1.439_78_61'
p926
I00
sS'37_False_False_324_167_compact_False_500_relu_0.524_True_71_relu_0.482_adagrad_1.17_220_70'
p927
I00
sS'50_True_False_115_9_all_True_167_relu_0.276_True_117_relu_0.55_adagrad_1.25_185_74'
p928
I00
sS'79_True_True_49_130_frequent_False_445_relu_0.437_False_103_relu_0.274_adagrad_1.511_49_81'
p929
I00
sS'29_False_True_39_136_compact_False_32_relu_0.015_True_68_relu_0.15_adagrad_1.496_98_63'
p930
I00
sS'97_False_True_346_96_all_True_17_relu_0.586_False_90_relu_0.306_adagrad_1.125_67_39'
p931
I00
sS'21_False_False_470_168_compact_True_172_relu_0.357_True_82_relu_0.562_adagrad_1.969_114_93'
p932
I00
sS'67_False_True_374_20_compact_False_442_relu_0.565_True_80_relu_0.174_adagrad_1.301_145_42'
p933
I00
sS'78_True_False_225_61_frequent_True_298_relu_0.355_False_120_relu_0.325_adagrad_0.413_216_45'
p934
I00
sS'26_False_False_26_169_frequent_True_38_relu_0.476_True_51_relu_0.253_adagrad_1.826_246_77'
p935
I00
sS'74_True_True_460_8_compact_False_390_relu_0.211_False_96_relu_0.534_adagrad_0.321_241_81'
p936
I00
sS'42_False_False_293_118_compact_True_4_relu_0.063_False_56_relu_0.429_adagrad_0.831_30_38'
p937
I00
sS'99_False_False_91_66_frequent_True_328_relu_0.325_False_118_relu_0.566_adagrad_0.322_216_89'
p938
g25
sS'73_False_True_335_75_frequent_True_359_relu_0.415_False_101_relu_0.357_adagrad_1.944_128_43'
p939
I00
sS'88_False_True_45_30_frequent_False_471_relu_0.365_True_60_relu_0.453_adagrad_0.238_179_97'
p940
I00
sS'98_True_False_415_93_frequent_True_412_relu_0.485_True_105_relu_0.01_adagrad_1.871_217_69'
p941
I00
sS'12_False_False_440_129_all_False_154_relu_0.376_False_57_relu_0.106_adagrad_1.194_198_73'
p942
I00
sS'16_True_True_402_13_all_False_220_relu_0.417_False_3_relu_0.312_adagrad_1.188_227_62'
p943
I00
sS'57_False_False_303_40_frequent_True_257_relu_0.171_True_85_relu_0.591_adagrad_0.413_68_54'
p944
I00
sS'98_False_True_237_82_compact_False_445_relu_0.068_True_41_relu_0.089_adagrad_1.799_227_89'
p945
I00
sS'74_False_False_467_103_compact_True_4_relu_0.299_False_36_relu_0.187_adagrad_1.87_142_76'
p946
I00
sS'48_False_False_63_97_all_False_128_relu_0.206_True_38_relu_0.131_adagrad_1.83_33_82'
p947
I00
sS'31_True_True_138_148_compact_False_86_relu_0.552_True_61_relu_0.385_adagrad_0.633_32_37'
p948
I00
sS'48_True_False_69_157_all_True_89_relu_0.417_True_92_relu_0.212_adagrad_1.459_64_41'
p949
I00
sS'93_False_True_426_180_frequent_False_363_relu_0.275_False_37_relu_0.455_adagrad_1.905_118_96'
p950
I00
sS'50_False_False_498_194_compact_False_202_relu_0.084_True_122_relu_0.571_adagrad_1.067_188_75'
p951
I00
sS'39_True_True_228_58_frequent_True_1_relu_0.472_False_61_relu_0.376_adagrad_1.424_141_32'
p952
I00
sS'61_True_True_421_55_frequent_True_44_relu_0.312_False_10_relu_0.105_adagrad_0.892_253_92'
p953
I00
sS'71_False_False_411_7_compact_False_333_relu_0.029_True_48_relu_0.437_adagrad_0.414_234_35'
p954
I00
sS'96_True_True_460_134_frequent_False_84_relu_0.053_True_89_relu_0.411_adagrad_1.651_32_36'
p955
I00
sS'96_False_True_424_170_frequent_False_107_relu_0.597_False_25_relu_0.237_adagrad_0.681_100_77'
p956
I00
sS'97_False_True_30_54_compact_True_186_relu_0.105_False_27_relu_0.355_adagrad_1.778_240_35'
p957
I00
sS'89_False_True_61_98_compact_True_464_relu_0.516_False_80_relu_0.028_adagrad_0.67_119_98'
p958
I00
sS'93_True_False_282_157_compact_True_375_relu_0.371_True_39_relu_0.292_adagrad_1.505_87_37'
p959
I00
sS'95_False_False_219_46_all_True_178_relu_0.046_True_83_relu_0.451_adagrad_1.528_187_33'
p960
I00
sS'59_False_False_444_83_frequent_True_450_relu_0.425_False_3_relu_0.261_adagrad_1.889_78_37'
p961
I00
sS'91_False_False_225_108_compact_False_59_relu_0.171_True_63_relu_0.233_adagrad_0.977_18_83'
p962
I00
sS'78_True_True_219_79_compact_False_163_relu_0.005_True_98_relu_0.029_adagrad_0.09_248_92'
p963
I00
sS'94_True_False_258_151_frequent_True_228_relu_0.52_True_96_relu_0.169_adagrad_1.403_17_79'
p964
I00
sS'0_False_True_122_11_compact_False_405_relu_0.559_True_86_relu_0.247_adagrad_1.305_52_90'
p965
I00
sS'51_True_True_330_67_frequent_False_317_relu_0.028_False_103_relu_0.53_adagrad_0.964_218_75'
p966
I00
sS'40_True_False_197_66_compact_True_369_relu_0.232_False_112_relu_0.458_adagrad_0.554_192_76'
p967
I00
sS'7_True_True_266_122_all_False_304_relu_0.527_True_39_relu_0.033_adagrad_1.328_115_95'
p968
I00
sS'59_False_False_23_169_compact_True_13_relu_0.043_False_102_relu_0.121_adagrad_0.165_239_57'
p969
I00
sS'73_False_True_52_128_all_False_61_relu_0.014_True_29_relu_0.218_adagrad_0.459_168_30'
p970
I00
sS'24_False_True_389_27_frequent_True_93_relu_0.381_False_37_relu_0.035_adagrad_1.814_248_67'
p971
I00
sS'63_True_True_158_108_all_True_291_relu_0.082_True_21_relu_0.283_adagrad_1.542_77_44'
p972
I00
sS'97_True_False_323_137_compact_True_358_relu_0.267_False_58_relu_0.108_adagrad_1.577_101_98'
p973
I00
sS'89_True_False_336_117_frequent_True_398_relu_0.039_False_91_relu_0.216_adagrad_1.38_111_45'
p974
I00
sS'99_True_False_26_78_frequent_True_448_relu_0.444_False_19_relu_0.318_adagrad_1.47_163_69'
p975
I00
sS'92_False_False_371_74_frequent_True_425_relu_0.291_True_33_relu_0.402_adagrad_1.586_237_95'
p976
I00
sS'24_True_True_467_157_all_True_450_relu_0.552_False_14_relu_0.023_adagrad_1.38_64_50'
p977
I00
sS'87_True_True_179_51_all_False_50_relu_0.196_True_116_relu_0.08_adagrad_0.326_228_30'
p978
I00
sS'41_True_False_81_86_frequent_False_488_relu_0.293_True_62_relu_0.068_adagrad_0.503_201_92'
p979
I00
sS'1_True_False_23_9_frequent_False_237_relu_0.379_False_57_relu_0.429_adagrad_0.524_155_88'
p980
I00
sS'95_True_False_172_118_all_False_205_relu_0.193_True_102_relu_0.154_adagrad_0.72_224_63'
p981
I00
sS'84_True_False_390_95_frequent_False_476_relu_0.141_True_19_relu_0.536_adagrad_1.771_83_84'
p982
I00
sS'84_False_True_188_83_compact_True_455_relu_0.429_False_30_relu_0.58_adagrad_1.118_129_43'
p983
I00
sS'26_False_True_154_152_frequent_False_449_relu_0.444_True_3_relu_0.256_adagrad_0.926_97_44'
p984
I00
sS'86_True_False_234_184_compact_False_399_relu_0.477_False_61_relu_0.37_adagrad_1.992_147_82'
p985
I00
sS'20_True_True_265_196_compact_True_323_relu_0.374_False_30_relu_0.334_adagrad_0.992_36_52'
p986
I00
sS'29_False_False_362_70_frequent_True_74_relu_0.271_False_121_relu_0.565_adagrad_1.304_247_82'
p987
I00
sS'81_False_True_26_164_frequent_False_225_relu_0.263_False_32_relu_0.027_adagrad_0.379_45_34'
p988
I00
sS'75_False_True_117_180_compact_True_320_relu_0.47_True_82_relu_0.453_adagrad_0.884_122_46'
p989
I00
sS'46_True_True_274_53_frequent_True_437_relu_0.529_True_1_relu_0.527_adagrad_1.288_147_97'
p990
I00
sS'20_True_False_471_103_all_False_147_relu_0.053_True_66_relu_0.087_adagrad_1.735_85_87'
p991
I00
sS'81_True_False_65_116_compact_True_156_relu_0.455_True_45_relu_0.46_adagrad_0.319_83_96'
p992
I00
sS'6_True_False_187_65_all_False_3_relu_0.026_False_101_relu_0.015_adagrad_1.563_92_53'
p993
I00
sS'1_True_True_101_63_compact_False_403_relu_0.544_True_54_relu_0.481_adagrad_1.39_191_89'
p994
I00
sS'31_True_False_421_175_all_False_372_relu_0.175_True_30_relu_0.596_adagrad_0.216_187_60'
p995
I00
sS'5_True_True_202_107_frequent_True_251_relu_0.075_True_60_relu_0.397_adagrad_1.736_252_69'
p996
I00
sS'72_False_True_120_158_all_False_198_relu_0.257_False_1_relu_0.395_adagrad_0.333_116_83'
p997
I00
sS'85_False_False_246_135_compact_False_251_relu_0.242_False_32_relu_0.51_adagrad_1.997_58_42'
p998
I00
sS'48_True_False_23_76_frequent_True_438_relu_0.535_False_56_relu_0.512_adagrad_1.192_250_33'
p999
I00
sS'91_False_True_221_188_compact_True_340_relu_0.423_False_83_relu_0.524_adagrad_0.296_172_50'
p1000
I00
sS'95_True_True_30_42_frequent_True_195_relu_0.328_True_32_relu_0.48_adagrad_0.19_255_78'
p1001
I00
s.