(dp0
I0
(lp1
I00
a(dp2
S'posDim'
p3
I37
sS's1TokenNum'
p4
I4
sS'earlyStop'
p5
I01
sS'wordDim'
p6
I408
sS'denseDropout'
p7
F0.4
sS'focusedElements'
p8
I7
sS'batchSize'
p9
I32
sS's0TokenNum'
p10
I4
sS'epochs'
p11
I20
sS'denseUnitNum'
p12
I43
sS'wordRnnUnitNum'
p13
I65
sS'gru'
p14
I01
sS'lr'
p15
F0.05
sS'useDense'
p16
I01
sS'compactVocab'
p17
I01
sS'rnnDropout'
p18
F0.3
sS'bTokenNum'
p19
I1
sS'posRnnUnitNum'
p20
I38
sS'optimizer'
p21
S'adagrad'
p22
sasI1
(lp23
I00
a(dp24
g3
I64
sg4
I4
sg5
I01
sg6
I289
sg7
F0.5
sg8
I7
sg9
I128
sg10
I4
sg11
I20
sg12
I55
sg13
I67
sg14
I01
sg15
F0.05
sg16
I01
sg17
I01
sg18
F0.0
sg19
I1
sg20
I48
sg21
g22
sasI2
(lp25
I00
a(dp26
g3
I30
sg4
I4
sg5
I01
sg6
I94
sg7
F0.5
sg8
I7
sg9
I16
sg10
I4
sg11
I20
sg12
I77
sg13
I40
sg14
I00
sg15
F0.05
sg16
I01
sg17
I01
sg18
F0.1
sg19
I1
sg20
I11
sg21
g22
sasI3
(lp27
I00
a(dp28
g3
I11
sg4
I4
sg5
I01
sg6
I468
sg7
F0.1
sg8
I7
sg9
I64
sg10
I4
sg11
I20
sg12
I21
sg13
I37
sg14
I01
sg15
F0.05
sg16
I01
sg17
I00
sg18
F0.0
sg19
I1
sg20
I9
sg21
g22
sasI4
(lp29
I00
a(dp30
g3
I52
sg4
I4
sg5
I01
sg6
I444
sg7
F0.1
sg8
I7
sg9
I32
sg10
I4
sg11
I20
sg12
I11
sg13
I97
sg14
I00
sg15
F0.05
sg16
I00
sg17
I00
sg18
F0.4
sg19
I1
sg20
I26
sg21
g22
sasI5
(lp31
I00
a(dp32
g3
I51
sg4
I4
sg5
I01
sg6
I406
sg7
F0.3
sg8
I7
sg9
I128
sg10
I4
sg11
I20
sg12
I33
sg13
I63
sg14
I01
sg15
F0.05
sg16
I01
sg17
I01
sg18
F0.4
sg19
I1
sg20
I15
sg21
g22
sasI6
(lp33
I00
a(dp34
g3
I67
sg4
I4
sg5
I01
sg6
I495
sg7
F0.0
sg8
I7
sg9
I16
sg10
I4
sg11
I20
sg12
I48
sg13
I31
sg14
I00
sg15
F0.05
sg16
I01
sg17
I01
sg18
F0.1
sg19
I1
sg20
I26
sg21
g22
sasI7
(lp35
I00
a(dp36
g3
I84
sg4
I4
sg5
I01
sg6
I312
sg7
F0.1
sg8
I7
sg9
I128
sg10
I4
sg11
I20
sg12
I98
sg13
I16
sg14
I01
sg15
F0.05
sg16
I00
sg17
I01
sg18
F0.5
sg19
I1
sg20
I6
sg21
g22
sasI8
(lp37
I00
a(dp38
g3
I94
sg4
I4
sg5
I01
sg6
I299
sg7
F0.1
sg8
I7
sg9
I128
sg10
I4
sg11
I20
sg12
I40
sg13
I80
sg14
I00
sg15
F0.05
sg16
I01
sg17
I01
sg18
F0.2
sg19
I1
sg20
I26
sg21
g22
sasI9
(lp39
I00
a(dp40
g3
I82
sg4
I4
sg5
I01
sg6
I227
sg7
F0.2
sg8
I7
sg9
I16
sg10
I4
sg11
I20
sg12
I15
sg13
I92
sg14
I01
sg15
F0.05
sg16
I01
sg17
I00
sg18
F0.4
sg19
I1
sg20
I42
sg21
g22
sasI10
(lp41
I00
a(dp42
g3
I64
sg4
I4
sg5
I01
sg6
I324
sg7
F0.5
sg8
I7
sg9
I32
sg10
I4
sg11
I20
sg12
I38
sg13
I79
sg14
I01
sg15
F0.05
sg16
I00
sg17
I00
sg18
F0.0
sg19
I1
sg20
I23
sg21
g22
sasI11
(lp43
I00
a(dp44
g3
I74
sg4
I4
sg5
I01
sg6
I138
sg7
F0.1
sg8
I7
sg9
I16
sg10
I4
sg11
I20
sg12
I53
sg13
I36
sg14
I01
sg15
F0.05
sg16
I01
sg17
I00
sg18
F0.3
sg19
I1
sg20
I25
sg21
g22
sasI12
(lp45
I00
a(dp46
g3
I23
sg4
I4
sg5
I01
sg6
I299
sg7
F0.1
sg8
I7
sg9
I64
sg10
I4
sg11
I20
sg12
I79
sg13
I98
sg14
I01
sg15
F0.05
sg16
I01
sg17
I01
sg18
F0.5
sg19
I1
sg20
I29
sg21
g22
sasI13
(lp47
I00
a(dp48
g3
I63
sg4
I4
sg5
I01
sg6
I179
sg7
F0.5
sg8
I7
sg9
I128
sg10
I4
sg11
I20
sg12
I22
sg13
I45
sg14
I01
sg15
F0.05
sg16
I01
sg17
I01
sg18
F0.3
sg19
I1
sg20
I46
sg21
g22
sasI14
(lp49
I00
a(dp50
g3
I67
sg4
I4
sg5
I01
sg6
I423
sg7
F0.2
sg8
I7
sg9
I64
sg10
I4
sg11
I20
sg12
I97
sg13
I56
sg14
I00
sg15
F0.05
sg16
I01
sg17
I01
sg18
F0.2
sg19
I1
sg20
I11
sg21
g22
sasI15
(lp51
I00
a(dp52
g3
I58
sg4
I4
sg5
I01
sg6
I106
sg7
F0.3
sg8
I7
sg9
I128
sg10
I4
sg11
I20
sg12
I78
sg13
I48
sg14
I01
sg15
F0.05
sg16
I01
sg17
I01
sg18
F0.5
sg19
I1
sg20
I33
sg21
g22
sasI16
(lp53
I00
a(dp54
g3
I77
sg4
I4
sg5
I01
sg6
I329
sg7
F0.0
sg8
I7
sg9
I16
sg10
I4
sg11
I20
sg12
I20
sg13
I23
sg14
I01
sg15
F0.05
sg16
I01
sg17
I01
sg18
F0.0
sg19
I1
sg20
I6
sg21
g22
sasI17
(lp55
I00
a(dp56
g3
I79
sg4
I4
sg5
I01
sg6
I376
sg7
F0.5
sg8
I7
sg9
I16
sg10
I4
sg11
I20
sg12
I77
sg13
I30
sg14
I00
sg15
F0.05
sg16
I01
sg17
I00
sg18
F0.3
sg19
I1
sg20
I15
sg21
g22
sasI18
(lp57
I00
a(dp58
g3
I24
sg4
I4
sg5
I01
sg6
I212
sg7
F0.0
sg8
I7
sg9
I32
sg10
I4
sg11
I20
sg12
I46
sg13
I78
sg14
I00
sg15
F0.05
sg16
I01
sg17
I01
sg18
F0.2
sg19
I1
sg20
I12
sg21
g22
sasI19
(lp59
I00
a(dp60
g3
I20
sg4
I4
sg5
I01
sg6
I330
sg7
F0.5
sg8
I7
sg9
I128
sg10
I4
sg11
I20
sg12
I79
sg13
I92
sg14
I01
sg15
F0.05
sg16
I00
sg17
I01
sg18
F0.5
sg19
I1
sg20
I24
sg21
g22
sasI20
(lp61
I00
a(dp62
g3
I46
sg4
I4
sg5
I01
sg6
I453
sg7
F0.2
sg8
I7
sg9
I64
sg10
I4
sg11
I20
sg12
I16
sg13
I39
sg14
I01
sg15
F0.05
sg16
I00
sg17
I00
sg18
F0.3
sg19
I1
sg20
I35
sg21
g22
sasI21
(lp63
I00
a(dp64
g3
I64
sg4
I4
sg5
I01
sg6
I498
sg7
F0.4
sg8
I7
sg9
I64
sg10
I4
sg11
I20
sg12
I75
sg13
I30
sg14
I01
sg15
F0.05
sg16
I00
sg17
I01
sg18
F0.2
sg19
I1
sg20
I40
sg21
g22
sasI22
(lp65
I00
a(dp66
g3
I94
sg4
I4
sg5
I01
sg6
I492
sg7
F0.1
sg8
I7
sg9
I32
sg10
I4
sg11
I20
sg12
I29
sg13
I72
sg14
I01
sg15
F0.05
sg16
I01
sg17
I01
sg18
F0.2
sg19
I1
sg20
I47
sg21
g22
sasI23
(lp67
I00
a(dp68
g3
I73
sg4
I4
sg5
I01
sg6
I369
sg7
F0.3
sg8
I7
sg9
I64
sg10
I4
sg11
I20
sg12
I32
sg13
I85
sg14
I01
sg15
F0.05
sg16
I01
sg17
I01
sg18
F0.2
sg19
I1
sg20
I47
sg21
g22
sasI24
(lp69
I00
a(dp70
g3
I55
sg4
I4
sg5
I01
sg6
I344
sg7
F0.1
sg8
I7
sg9
I128
sg10
I4
sg11
I20
sg12
I89
sg13
I17
sg14
I01
sg15
F0.05
sg16
I00
sg17
I01
sg18
F0.1
sg19
I1
sg20
I8
sg21
g22
sasI25
(lp71
I00
a(dp72
g3
I41
sg4
I4
sg5
I01
sg6
I390
sg7
F0.3
sg8
I7
sg9
I32
sg10
I4
sg11
I20
sg12
I34
sg13
I12
sg14
I01
sg15
F0.05
sg16
I01
sg17
I00
sg18
F0.5
sg19
I1
sg20
I47
sg21
g22
sasI26
(lp73
I00
a(dp74
g3
I92
sg4
I4
sg5
I01
sg6
I90
sg7
F0.0
sg8
I7
sg9
I128
sg10
I4
sg11
I20
sg12
I10
sg13
I36
sg14
I01
sg15
F0.05
sg16
I01
sg17
I01
sg18
F0.4
sg19
I1
sg20
I34
sg21
g22
sasI27
(lp75
I00
a(dp76
g3
I36
sg4
I4
sg5
I01
sg6
I412
sg7
F0.1
sg8
I7
sg9
I32
sg10
I4
sg11
I20
sg12
I89
sg13
I37
sg14
I01
sg15
F0.05
sg16
I01
sg17
I01
sg18
F0.2
sg19
I1
sg20
I5
sg21
g22
sasI28
(lp77
I00
a(dp78
g3
I66
sg4
I4
sg5
I01
sg6
I188
sg7
F0.0
sg8
I7
sg9
I16
sg10
I4
sg11
I20
sg12
I90
sg13
I43
sg14
I01
sg15
F0.05
sg16
I01
sg17
I01
sg18
F0.3
sg19
I1
sg20
I7
sg21
g22
sasI29
(lp79
I00
a(dp80
g3
I17
sg4
I4
sg5
I01
sg6
I395
sg7
F0.5
sg8
I7
sg9
I16
sg10
I4
sg11
I20
sg12
I87
sg13
I61
sg14
I01
sg15
F0.05
sg16
I01
sg17
I01
sg18
F0.2
sg19
I1
sg20
I42
sg21
g22
sasI30
(lp81
I00
a(dp82
g3
I72
sg4
I4
sg5
I01
sg6
I290
sg7
F0.0
sg8
I7
sg9
I16
sg10
I4
sg11
I20
sg12
I20
sg13
I42
sg14
I00
sg15
F0.05
sg16
I01
sg17
I01
sg18
F0.4
sg19
I1
sg20
I18
sg21
g22
sasI31
(lp83
I00
a(dp84
g3
I98
sg4
I4
sg5
I01
sg6
I211
sg7
F0.1
sg8
I7
sg9
I16
sg10
I4
sg11
I20
sg12
I78
sg13
I67
sg14
I00
sg15
F0.05
sg16
I01
sg17
I00
sg18
F0.4
sg19
I1
sg20
I38
sg21
g22
sasI32
(lp85
I00
a(dp86
g3
I80
sg4
I4
sg5
I01
sg6
I201
sg7
F0.4
sg8
I7
sg9
I128
sg10
I4
sg11
I20
sg12
I47
sg13
I41
sg14
I01
sg15
F0.05
sg16
I00
sg17
I01
sg18
F0.2
sg19
I1
sg20
I47
sg21
g22
sasI33
(lp87
I00
a(dp88
g3
I96
sg4
I4
sg5
I01
sg6
I159
sg7
F0.2
sg8
I7
sg9
I16
sg10
I4
sg11
I20
sg12
I50
sg13
I42
sg14
I01
sg15
F0.05
sg16
I00
sg17
I01
sg18
F0.3
sg19
I1
sg20
I30
sg21
g22
sasI34
(lp89
I00
a(dp90
g3
I11
sg4
I4
sg5
I01
sg6
I248
sg7
F0.1
sg8
I7
sg9
I64
sg10
I4
sg11
I20
sg12
I82
sg13
I79
sg14
I01
sg15
F0.05
sg16
I01
sg17
I00
sg18
F0.3
sg19
I1
sg20
I23
sg21
g22
sasI35
(lp91
I00
a(dp92
g3
I24
sg4
I4
sg5
I01
sg6
I235
sg7
F0.3
sg8
I7
sg9
I64
sg10
I4
sg11
I20
sg12
I8
sg13
I50
sg14
I00
sg15
F0.05
sg16
I01
sg17
I01
sg18
F0.5
sg19
I1
sg20
I15
sg21
g22
sasI36
(lp93
I00
a(dp94
g3
I99
sg4
I4
sg5
I01
sg6
I71
sg7
F0.4
sg8
I7
sg9
I16
sg10
I4
sg11
I20
sg12
I93
sg13
I59
sg14
I01
sg15
F0.05
sg16
I01
sg17
I01
sg18
F0.2
sg19
I1
sg20
I25
sg21
g22
sasI37
(lp95
I00
a(dp96
g3
I84
sg4
I4
sg5
I01
sg6
I466
sg7
F0.4
sg8
I7
sg9
I64
sg10
I4
sg11
I20
sg12
I88
sg13
I99
sg14
I01
sg15
F0.05
sg16
I01
sg17
I01
sg18
F0.3
sg19
I1
sg20
I18
sg21
g22
sasI38
(lp97
I00
a(dp98
g3
I28
sg4
I4
sg5
I01
sg6
I184
sg7
F0.0
sg8
I7
sg9
I32
sg10
I4
sg11
I20
sg12
I39
sg13
I66
sg14
I00
sg15
F0.05
sg16
I01
sg17
I00
sg18
F0.2
sg19
I1
sg20
I15
sg21
g22
sasI39
(lp99
I00
a(dp100
g3
I76
sg4
I4
sg5
I01
sg6
I76
sg7
F0.1
sg8
I7
sg9
I16
sg10
I4
sg11
I20
sg12
I79
sg13
I10
sg14
I01
sg15
F0.05
sg16
I01
sg17
I01
sg18
F0.4
sg19
I1
sg20
I46
sg21
g22
sasI40
(lp101
I00
a(dp102
g3
I41
sg4
I4
sg5
I01
sg6
I106
sg7
F0.1
sg8
I7
sg9
I128
sg10
I4
sg11
I20
sg12
I54
sg13
I39
sg14
I01
sg15
F0.05
sg16
I01
sg17
I00
sg18
F0.3
sg19
I1
sg20
I49
sg21
g22
sasI41
(lp103
I00
a(dp104
g3
I12
sg4
I4
sg5
I01
sg6
I231
sg7
F0.4
sg8
I7
sg9
I64
sg10
I4
sg11
I20
sg12
I25
sg13
I67
sg14
I00
sg15
F0.05
sg16
I01
sg17
I00
sg18
F0.4
sg19
I1
sg20
I17
sg21
g22
sasI42
(lp105
I00
a(dp106
g3
I67
sg4
I4
sg5
I01
sg6
I152
sg7
F0.1
sg8
I7
sg9
I32
sg10
I4
sg11
I20
sg12
I26
sg13
I8
sg14
I00
sg15
F0.05
sg16
I00
sg17
I00
sg18
F0.4
sg19
I1
sg20
I41
sg21
g22
sasI43
(lp107
I00
a(dp108
g3
I43
sg4
I4
sg5
I01
sg6
I253
sg7
F0.0
sg8
I7
sg9
I32
sg10
I4
sg11
I20
sg12
I10
sg13
I71
sg14
I00
sg15
F0.05
sg16
I01
sg17
I01
sg18
F0.1
sg19
I1
sg20
I34
sg21
g22
sasI44
(lp109
I00
a(dp110
g3
I98
sg4
I4
sg5
I01
sg6
I443
sg7
F0.2
sg8
I7
sg9
I32
sg10
I4
sg11
I20
sg12
I56
sg13
I82
sg14
I01
sg15
F0.05
sg16
I01
sg17
I01
sg18
F0.5
sg19
I1
sg20
I37
sg21
g22
sasI45
(lp111
I00
a(dp112
g3
I89
sg4
I4
sg5
I01
sg6
I439
sg7
F0.4
sg8
I7
sg9
I32
sg10
I4
sg11
I20
sg12
I27
sg13
I30
sg14
I01
sg15
F0.05
sg16
I01
sg17
I01
sg18
F0.3
sg19
I1
sg20
I33
sg21
g22
sasI46
(lp113
I00
a(dp114
g3
I69
sg4
I4
sg5
I01
sg6
I91
sg7
F0.1
sg8
I7
sg9
I64
sg10
I4
sg11
I20
sg12
I38
sg13
I33
sg14
I01
sg15
F0.05
sg16
I01
sg17
I00
sg18
F0.5
sg19
I1
sg20
I28
sg21
g22
sasI47
(lp115
I00
a(dp116
g3
I21
sg4
I4
sg5
I01
sg6
I94
sg7
F0.3
sg8
I7
sg9
I16
sg10
I4
sg11
I20
sg12
I99
sg13
I99
sg14
I01
sg15
F0.05
sg16
I00
sg17
I00
sg18
F0.0
sg19
I1
sg20
I7
sg21
g22
sasI48
(lp117
I00
a(dp118
g3
I20
sg4
I4
sg5
I01
sg6
I184
sg7
F0.3
sg8
I7
sg9
I32
sg10
I4
sg11
I20
sg12
I9
sg13
I14
sg14
I01
sg15
F0.05
sg16
I00
sg17
I00
sg18
F0.0
sg19
I1
sg20
I30
sg21
g22
sasI49
(lp119
I00
a(dp120
g3
I20
sg4
I4
sg5
I01
sg6
I71
sg7
F0.4
sg8
I7
sg9
I32
sg10
I4
sg11
I20
sg12
I44
sg13
I73
sg14
I01
sg15
F0.05
sg16
I01
sg17
I01
sg18
F0.1
sg19
I1
sg20
I27
sg21
g22
sasI50
(lp121
I00
a(dp122
g3
I16
sg4
I4
sg5
I01
sg6
I471
sg7
F0.4
sg8
I7
sg9
I128
sg10
I4
sg11
I20
sg12
I21
sg13
I43
sg14
I01
sg15
F0.05
sg16
I01
sg17
I01
sg18
F0.3
sg19
I1
sg20
I30
sg21
g22
sasI51
(lp123
I00
a(dp124
g3
I48
sg4
I4
sg5
I01
sg6
I308
sg7
F0.2
sg8
I7
sg9
I16
sg10
I4
sg11
I20
sg12
I28
sg13
I74
sg14
I00
sg15
F0.05
sg16
I01
sg17
I01
sg18
F0.4
sg19
I1
sg20
I20
sg21
g22
sasI52
(lp125
I00
a(dp126
g3
I27
sg4
I4
sg5
I01
sg6
I237
sg7
F0.2
sg8
I7
sg9
I32
sg10
I4
sg11
I20
sg12
I19
sg13
I90
sg14
I00
sg15
F0.05
sg16
I00
sg17
I01
sg18
F0.0
sg19
I1
sg20
I24
sg21
g22
sasI53
(lp127
I00
a(dp128
g3
I88
sg4
I4
sg5
I01
sg6
I213
sg7
F0.1
sg8
I7
sg9
I16
sg10
I4
sg11
I20
sg12
I40
sg13
I18
sg14
I01
sg15
F0.05
sg16
I01
sg17
I01
sg18
F0.3
sg19
I1
sg20
I13
sg21
g22
sasI54
(lp129
I00
a(dp130
g3
I98
sg4
I4
sg5
I01
sg6
I157
sg7
F0.5
sg8
I7
sg9
I64
sg10
I4
sg11
I20
sg12
I61
sg13
I59
sg14
I01
sg15
F0.05
sg16
I01
sg17
I01
sg18
F0.4
sg19
I1
sg20
I33
sg21
g22
sasI55
(lp131
I00
a(dp132
g3
I99
sg4
I4
sg5
I01
sg6
I242
sg7
F0.0
sg8
I7
sg9
I128
sg10
I4
sg11
I20
sg12
I12
sg13
I56
sg14
I01
sg15
F0.05
sg16
I01
sg17
I01
sg18
F0.4
sg19
I1
sg20
I41
sg21
g22
sasI56
(lp133
I00
a(dp134
g3
I46
sg4
I4
sg5
I01
sg6
I156
sg7
F0.4
sg8
I7
sg9
I16
sg10
I4
sg11
I20
sg12
I23
sg13
I11
sg14
I01
sg15
F0.05
sg16
I00
sg17
I00
sg18
F0.4
sg19
I1
sg20
I31
sg21
g22
sasI57
(lp135
I00
a(dp136
g3
I34
sg4
I4
sg5
I01
sg6
I86
sg7
F0.3
sg8
I7
sg9
I128
sg10
I4
sg11
I20
sg12
I48
sg13
I28
sg14
I00
sg15
F0.05
sg16
I00
sg17
I01
sg18
F0.2
sg19
I1
sg20
I19
sg21
g22
sasI58
(lp137
I00
a(dp138
g3
I63
sg4
I4
sg5
I01
sg6
I390
sg7
F0.1
sg8
I7
sg9
I32
sg10
I4
sg11
I20
sg12
I77
sg13
I36
sg14
I01
sg15
F0.05
sg16
I01
sg17
I01
sg18
F0.3
sg19
I1
sg20
I38
sg21
g22
sasI59
(lp139
I00
a(dp140
g3
I42
sg4
I4
sg5
I01
sg6
I425
sg7
F0.0
sg8
I7
sg9
I128
sg10
I4
sg11
I20
sg12
I11
sg13
I47
sg14
I00
sg15
F0.05
sg16
I01
sg17
I01
sg18
F0.3
sg19
I1
sg20
I38
sg21
g22
sasI60
(lp141
I00
a(dp142
g3
I51
sg4
I4
sg5
I01
sg6
I425
sg7
F0.0
sg8
I7
sg9
I32
sg10
I4
sg11
I20
sg12
I21
sg13
I97
sg14
I01
sg15
F0.05
sg16
I00
sg17
I01
sg18
F0.2
sg19
I1
sg20
I40
sg21
g22
sasI61
(lp143
I00
a(dp144
g3
I56
sg4
I4
sg5
I01
sg6
I117
sg7
F0.2
sg8
I7
sg9
I16
sg10
I4
sg11
I20
sg12
I79
sg13
I33
sg14
I01
sg15
F0.05
sg16
I01
sg17
I01
sg18
F0.0
sg19
I1
sg20
I18
sg21
g22
sasI62
(lp145
I00
a(dp146
g3
I75
sg4
I4
sg5
I01
sg6
I297
sg7
F0.4
sg8
I7
sg9
I128
sg10
I4
sg11
I20
sg12
I42
sg13
I86
sg14
I00
sg15
F0.05
sg16
I01
sg17
I01
sg18
F0.2
sg19
I1
sg20
I22
sg21
g22
sasI63
(lp147
I00
a(dp148
g3
I45
sg4
I4
sg5
I01
sg6
I176
sg7
F0.4
sg8
I7
sg9
I16
sg10
I4
sg11
I20
sg12
I69
sg13
I48
sg14
I00
sg15
F0.05
sg16
I01
sg17
I01
sg18
F0.2
sg19
I1
sg20
I9
sg21
g22
sasI64
(lp149
I00
a(dp150
g3
I19
sg4
I4
sg5
I01
sg6
I497
sg7
F0.4
sg8
I7
sg9
I64
sg10
I4
sg11
I20
sg12
I27
sg13
I8
sg14
I00
sg15
F0.05
sg16
I01
sg17
I01
sg18
F0.4
sg19
I1
sg20
I8
sg21
g22
sasI65
(lp151
I00
a(dp152
g3
I11
sg4
I4
sg5
I01
sg6
I443
sg7
F0.0
sg8
I7
sg9
I16
sg10
I4
sg11
I20
sg12
I55
sg13
I83
sg14
I01
sg15
F0.05
sg16
I01
sg17
I01
sg18
F0.5
sg19
I1
sg20
I28
sg21
g22
sasI66
(lp153
I00
a(dp154
g3
I86
sg4
I4
sg5
I01
sg6
I305
sg7
F0.4
sg8
I7
sg9
I16
sg10
I4
sg11
I20
sg12
I96
sg13
I34
sg14
I00
sg15
F0.05
sg16
I01
sg17
I01
sg18
F0.3
sg19
I1
sg20
I5
sg21
g22
sasI67
(lp155
I00
a(dp156
g3
I86
sg4
I4
sg5
I01
sg6
I392
sg7
F0.0
sg8
I7
sg9
I32
sg10
I4
sg11
I20
sg12
I50
sg13
I37
sg14
I01
sg15
F0.05
sg16
I01
sg17
I00
sg18
F0.0
sg19
I1
sg20
I9
sg21
g22
sasI68
(lp157
I00
a(dp158
g3
I84
sg4
I4
sg5
I01
sg6
I447
sg7
F0.2
sg8
I7
sg9
I32
sg10
I4
sg11
I20
sg12
I68
sg13
I92
sg14
I00
sg15
F0.05
sg16
I01
sg17
I01
sg18
F0.0
sg19
I1
sg20
I23
sg21
g22
sasI69
(lp159
I00
a(dp160
g3
I88
sg4
I4
sg5
I01
sg6
I231
sg7
F0.4
sg8
I7
sg9
I32
sg10
I4
sg11
I20
sg12
I89
sg13
I49
sg14
I01
sg15
F0.05
sg16
I01
sg17
I00
sg18
F0.2
sg19
I1
sg20
I5
sg21
g22
sasI70
(lp161
I00
a(dp162
g3
I34
sg4
I4
sg5
I01
sg6
I289
sg7
F0.3
sg8
I7
sg9
I64
sg10
I4
sg11
I20
sg12
I20
sg13
I52
sg14
I01
sg15
F0.05
sg16
I01
sg17
I01
sg18
F0.1
sg19
I1
sg20
I45
sg21
g22
sasI71
(lp163
I00
a(dp164
g3
I32
sg4
I4
sg5
I01
sg6
I289
sg7
F0.5
sg8
I7
sg9
I128
sg10
I4
sg11
I20
sg12
I85
sg13
I24
sg14
I01
sg15
F0.05
sg16
I01
sg17
I01
sg18
F0.4
sg19
I1
sg20
I48
sg21
g22
sasI72
(lp165
I00
a(dp166
g3
I33
sg4
I4
sg5
I01
sg6
I380
sg7
F0.0
sg8
I7
sg9
I32
sg10
I4
sg11
I20
sg12
I92
sg13
I71
sg14
I01
sg15
F0.05
sg16
I01
sg17
I01
sg18
F0.3
sg19
I1
sg20
I34
sg21
g22
sasI73
(lp167
I00
a(dp168
g3
I24
sg4
I4
sg5
I01
sg6
I224
sg7
F0.1
sg8
I7
sg9
I64
sg10
I4
sg11
I20
sg12
I21
sg13
I16
sg14
I01
sg15
F0.05
sg16
I01
sg17
I01
sg18
F0.1
sg19
I1
sg20
I19
sg21
g22
sasI74
(lp169
I00
a(dp170
g3
I70
sg4
I4
sg5
I01
sg6
I423
sg7
F0.3
sg8
I7
sg9
I128
sg10
I4
sg11
I20
sg12
I77
sg13
I57
sg14
I01
sg15
F0.05
sg16
I01
sg17
I01
sg18
F0.4
sg19
I1
sg20
I33
sg21
g22
sasI75
(lp171
I00
a(dp172
g3
I88
sg4
I4
sg5
I01
sg6
I120
sg7
F0.2
sg8
I7
sg9
I32
sg10
I4
sg11
I20
sg12
I18
sg13
I67
sg14
I00
sg15
F0.05
sg16
I00
sg17
I00
sg18
F0.2
sg19
I1
sg20
I6
sg21
g22
sasI76
(lp173
I00
a(dp174
g3
I49
sg4
I4
sg5
I01
sg6
I192
sg7
F0.4
sg8
I7
sg9
I64
sg10
I4
sg11
I20
sg12
I82
sg13
I43
sg14
I00
sg15
F0.05
sg16
I01
sg17
I00
sg18
F0.1
sg19
I1
sg20
I35
sg21
g22
sasI77
(lp175
I00
a(dp176
g3
I17
sg4
I4
sg5
I01
sg6
I458
sg7
F0.5
sg8
I7
sg9
I16
sg10
I4
sg11
I20
sg12
I53
sg13
I24
sg14
I01
sg15
F0.05
sg16
I01
sg17
I01
sg18
F0.4
sg19
I1
sg20
I12
sg21
g22
sasI78
(lp177
I00
a(dp178
g3
I79
sg4
I4
sg5
I01
sg6
I142
sg7
F0.2
sg8
I7
sg9
I128
sg10
I4
sg11
I20
sg12
I23
sg13
I5
sg14
I00
sg15
F0.05
sg16
I01
sg17
I01
sg18
F0.2
sg19
I1
sg20
I29
sg21
g22
sasI79
(lp179
I00
a(dp180
g3
I36
sg4
I4
sg5
I01
sg6
I314
sg7
F0.3
sg8
I7
sg9
I128
sg10
I4
sg11
I20
sg12
I76
sg13
I23
sg14
I00
sg15
F0.05
sg16
I01
sg17
I01
sg18
F0.4
sg19
I1
sg20
I22
sg21
g22
sasI80
(lp181
I00
a(dp182
g3
I11
sg4
I4
sg5
I01
sg6
I215
sg7
F0.2
sg8
I7
sg9
I64
sg10
I4
sg11
I20
sg12
I61
sg13
I38
sg14
I01
sg15
F0.05
sg16
I01
sg17
I01
sg18
F0.2
sg19
I1
sg20
I23
sg21
g22
sasI81
(lp183
I00
a(dp184
g3
I85
sg4
I4
sg5
I01
sg6
I378
sg7
F0.1
sg8
I7
sg9
I16
sg10
I4
sg11
I20
sg12
I68
sg13
I19
sg14
I01
sg15
F0.05
sg16
I01
sg17
I01
sg18
F0.3
sg19
I1
sg20
I28
sg21
g22
sasI82
(lp185
I00
a(dp186
g3
I65
sg4
I4
sg5
I01
sg6
I268
sg7
F0.3
sg8
I7
sg9
I16
sg10
I4
sg11
I20
sg12
I15
sg13
I16
sg14
I01
sg15
F0.05
sg16
I01
sg17
I01
sg18
F0.2
sg19
I1
sg20
I9
sg21
g22
sasI83
(lp187
I00
a(dp188
g3
I76
sg4
I4
sg5
I01
sg6
I292
sg7
F0.3
sg8
I7
sg9
I64
sg10
I4
sg11
I20
sg12
I6
sg13
I89
sg14
I01
sg15
F0.05
sg16
I01
sg17
I01
sg18
F0.1
sg19
I1
sg20
I15
sg21
g22
sasI84
(lp189
I00
a(dp190
g3
I16
sg4
I4
sg5
I01
sg6
I73
sg7
F0.4
sg8
I7
sg9
I64
sg10
I4
sg11
I20
sg12
I20
sg13
I93
sg14
I00
sg15
F0.05
sg16
I01
sg17
I01
sg18
F0.1
sg19
I1
sg20
I32
sg21
g22
sasI85
(lp191
I00
a(dp192
g3
I24
sg4
I4
sg5
I01
sg6
I132
sg7
F0.3
sg8
I7
sg9
I64
sg10
I4
sg11
I20
sg12
I67
sg13
I76
sg14
I01
sg15
F0.05
sg16
I01
sg17
I01
sg18
F0.1
sg19
I1
sg20
I25
sg21
g22
sasI86
(lp193
I00
a(dp194
g3
I94
sg4
I4
sg5
I01
sg6
I176
sg7
F0.4
sg8
I7
sg9
I128
sg10
I4
sg11
I20
sg12
I6
sg13
I53
sg14
I00
sg15
F0.05
sg16
I01
sg17
I00
sg18
F0.3
sg19
I1
sg20
I19
sg21
g22
sasI87
(lp195
I00
a(dp196
g3
I52
sg4
I4
sg5
I01
sg6
I250
sg7
F0.4
sg8
I7
sg9
I32
sg10
I4
sg11
I20
sg12
I37
sg13
I45
sg14
I01
sg15
F0.05
sg16
I01
sg17
I00
sg18
F0.1
sg19
I1
sg20
I30
sg21
g22
sasI88
(lp197
I00
a(dp198
g3
I34
sg4
I4
sg5
I01
sg6
I482
sg7
F0.5
sg8
I7
sg9
I32
sg10
I4
sg11
I20
sg12
I5
sg13
I43
sg14
I01
sg15
F0.05
sg16
I01
sg17
I00
sg18
F0.4
sg19
I1
sg20
I41
sg21
g22
sasI89
(lp199
I00
a(dp200
g3
I42
sg4
I4
sg5
I01
sg6
I431
sg7
F0.2
sg8
I7
sg9
I128
sg10
I4
sg11
I20
sg12
I31
sg13
I53
sg14
I00
sg15
F0.05
sg16
I01
sg17
I00
sg18
F0.3
sg19
I1
sg20
I7
sg21
g22
sasI90
(lp201
I00
a(dp202
g3
I33
sg4
I4
sg5
I01
sg6
I213
sg7
F0.1
sg8
I7
sg9
I16
sg10
I4
sg11
I20
sg12
I22
sg13
I10
sg14
I01
sg15
F0.05
sg16
I01
sg17
I01
sg18
F0.4
sg19
I1
sg20
I22
sg21
g22
sasI91
(lp203
I00
a(dp204
g3
I20
sg4
I4
sg5
I01
sg6
I472
sg7
F0.3
sg8
I7
sg9
I128
sg10
I4
sg11
I20
sg12
I80
sg13
I64
sg14
I01
sg15
F0.05
sg16
I01
sg17
I00
sg18
F0.5
sg19
I1
sg20
I44
sg21
g22
sasI92
(lp205
I00
a(dp206
g3
I34
sg4
I4
sg5
I01
sg6
I199
sg7
F0.1
sg8
I7
sg9
I64
sg10
I4
sg11
I20
sg12
I87
sg13
I61
sg14
I01
sg15
F0.05
sg16
I01
sg17
I01
sg18
F0.2
sg19
I1
sg20
I32
sg21
g22
sasI93
(lp207
I00
a(dp208
g3
I25
sg4
I4
sg5
I01
sg6
I96
sg7
F0.3
sg8
I7
sg9
I32
sg10
I4
sg11
I20
sg12
I56
sg13
I23
sg14
I00
sg15
F0.05
sg16
I00
sg17
I01
sg18
F0.3
sg19
I1
sg20
I40
sg21
g22
sasI94
(lp209
I00
a(dp210
g3
I19
sg4
I4
sg5
I01
sg6
I444
sg7
F0.0
sg8
I7
sg9
I64
sg10
I4
sg11
I20
sg12
I91
sg13
I7
sg14
I01
sg15
F0.05
sg16
I01
sg17
I01
sg18
F0.1
sg19
I1
sg20
I23
sg21
g22
sasI95
(lp211
I00
a(dp212
g3
I92
sg4
I4
sg5
I01
sg6
I141
sg7
F0.1
sg8
I7
sg9
I32
sg10
I4
sg11
I20
sg12
I78
sg13
I17
sg14
I00
sg15
F0.05
sg16
I00
sg17
I00
sg18
F0.3
sg19
I1
sg20
I24
sg21
g22
sasI96
(lp213
I00
a(dp214
g3
I72
sg4
I4
sg5
I01
sg6
I386
sg7
F0.5
sg8
I7
sg9
I64
sg10
I4
sg11
I20
sg12
I97
sg13
I33
sg14
I01
sg15
F0.05
sg16
I01
sg17
I01
sg18
F0.0
sg19
I1
sg20
I14
sg21
g22
sasI97
(lp215
I00
a(dp216
g3
I93
sg4
I4
sg5
I01
sg6
I189
sg7
F0.2
sg8
I7
sg9
I32
sg10
I4
sg11
I20
sg12
I18
sg13
I45
sg14
I01
sg15
F0.05
sg16
I00
sg17
I01
sg18
F0.5
sg19
I1
sg20
I36
sg21
g22
sasI98
(lp217
I00
a(dp218
g3
I39
sg4
I4
sg5
I01
sg6
I317
sg7
F0.5
sg8
I7
sg9
I128
sg10
I4
sg11
I20
sg12
I85
sg13
I81
sg14
I00
sg15
F0.05
sg16
I00
sg17
I01
sg18
F0.3
sg19
I1
sg20
I41
sg21
g22
sasI99
(lp219
I00
a(dp220
g3
I67
sg4
I4
sg5
I01
sg6
I220
sg7
F0.3
sg8
I7
sg9
I16
sg10
I4
sg11
I20
sg12
I48
sg13
I56
sg14
I01
sg15
F0.05
sg16
I00
sg17
I00
sg18
F0.3
sg19
I1
sg20
I17
sg21
g22
sasI100
(lp221
I00
a(dp222
g3
I67
sg4
I4
sg5
I01
sg6
I353
sg7
F0.2
sg8
I7
sg9
I16
sg10
I4
sg11
I20
sg12
I51
sg13
I58
sg14
I00
sg15
F0.05
sg16
I01
sg17
I01
sg18
F0.1
sg19
I1
sg20
I33
sg21
g22
sasI101
(lp223
I00
a(dp224
g3
I50
sg4
I4
sg5
I01
sg6
I126
sg7
F0.4
sg8
I7
sg9
I16
sg10
I4
sg11
I20
sg12
I90
sg13
I80
sg14
I01
sg15
F0.05
sg16
I00
sg17
I01
sg18
F0.2
sg19
I1
sg20
I20
sg21
g22
sasI102
(lp225
I00
a(dp226
g3
I23
sg4
I4
sg5
I01
sg6
I81
sg7
F0.5
sg8
I7
sg9
I32
sg10
I4
sg11
I20
sg12
I47
sg13
I20
sg14
I01
sg15
F0.05
sg16
I01
sg17
I00
sg18
F0.3
sg19
I1
sg20
I45
sg21
g22
sasI103
(lp227
I00
a(dp228
g3
I23
sg4
I4
sg5
I01
sg6
I53
sg7
F0.5
sg8
I7
sg9
I64
sg10
I4
sg11
I20
sg12
I81
sg13
I99
sg14
I01
sg15
F0.05
sg16
I01
sg17
I01
sg18
F0.1
sg19
I1
sg20
I33
sg21
g22
sasI104
(lp229
I00
a(dp230
g3
I27
sg4
I4
sg5
I01
sg6
I188
sg7
F0.1
sg8
I7
sg9
I32
sg10
I4
sg11
I20
sg12
I97
sg13
I77
sg14
I01
sg15
F0.05
sg16
I01
sg17
I01
sg18
F0.2
sg19
I1
sg20
I20
sg21
g22
sasI105
(lp231
I00
a(dp232
g3
I77
sg4
I4
sg5
I01
sg6
I82
sg7
F0.3
sg8
I7
sg9
I128
sg10
I4
sg11
I20
sg12
I23
sg13
I27
sg14
I01
sg15
F0.05
sg16
I00
sg17
I01
sg18
F0.1
sg19
I1
sg20
I47
sg21
g22
sasI106
(lp233
I00
a(dp234
g3
I83
sg4
I4
sg5
I01
sg6
I387
sg7
F0.0
sg8
I7
sg9
I16
sg10
I4
sg11
I20
sg12
I16
sg13
I14
sg14
I01
sg15
F0.05
sg16
I01
sg17
I01
sg18
F0.3
sg19
I1
sg20
I37
sg21
g22
sasI107
(lp235
I00
a(dp236
g3
I74
sg4
I4
sg5
I01
sg6
I447
sg7
F0.0
sg8
I7
sg9
I16
sg10
I4
sg11
I20
sg12
I72
sg13
I97
sg14
I01
sg15
F0.05
sg16
I01
sg17
I01
sg18
F0.3
sg19
I1
sg20
I25
sg21
g22
sasI108
(lp237
I00
a(dp238
g3
I37
sg4
I4
sg5
I01
sg6
I197
sg7
F0.4
sg8
I7
sg9
I32
sg10
I4
sg11
I20
sg12
I41
sg13
I41
sg14
I01
sg15
F0.05
sg16
I01
sg17
I01
sg18
F0.2
sg19
I1
sg20
I18
sg21
g22
sasI109
(lp239
I00
a(dp240
g3
I60
sg4
I4
sg5
I01
sg6
I89
sg7
F0.3
sg8
I7
sg9
I32
sg10
I4
sg11
I20
sg12
I39
sg13
I58
sg14
I00
sg15
F0.05
sg16
I01
sg17
I01
sg18
F0.1
sg19
I1
sg20
I28
sg21
g22
sasI110
(lp241
I00
a(dp242
g3
I47
sg4
I4
sg5
I01
sg6
I99
sg7
F0.5
sg8
I7
sg9
I16
sg10
I4
sg11
I20
sg12
I96
sg13
I5
sg14
I01
sg15
F0.05
sg16
I01
sg17
I00
sg18
F0.1
sg19
I1
sg20
I24
sg21
g22
sasI111
(lp243
I00
a(dp244
g3
I29
sg4
I4
sg5
I01
sg6
I307
sg7
F0.4
sg8
I7
sg9
I32
sg10
I4
sg11
I20
sg12
I62
sg13
I87
sg14
I01
sg15
F0.05
sg16
I01
sg17
I01
sg18
F0.2
sg19
I1
sg20
I24
sg21
g22
sasI112
(lp245
I00
a(dp246
g3
I11
sg4
I4
sg5
I01
sg6
I209
sg7
F0.4
sg8
I7
sg9
I32
sg10
I4
sg11
I20
sg12
I58
sg13
I82
sg14
I01
sg15
F0.05
sg16
I01
sg17
I01
sg18
F0.3
sg19
I1
sg20
I40
sg21
g22
sasI113
(lp247
I00
a(dp248
g3
I22
sg4
I4
sg5
I01
sg6
I153
sg7
F0.0
sg8
I7
sg9
I32
sg10
I4
sg11
I20
sg12
I62
sg13
I18
sg14
I01
sg15
F0.05
sg16
I00
sg17
I01
sg18
F0.3
sg19
I1
sg20
I24
sg21
g22
sasI114
(lp249
I00
a(dp250
g3
I59
sg4
I4
sg5
I01
sg6
I92
sg7
F0.4
sg8
I7
sg9
I16
sg10
I4
sg11
I20
sg12
I59
sg13
I67
sg14
I01
sg15
F0.05
sg16
I01
sg17
I01
sg18
F0.1
sg19
I1
sg20
I38
sg21
g22
sasI115
(lp251
I00
a(dp252
g3
I83
sg4
I4
sg5
I01
sg6
I55
sg7
F0.2
sg8
I7
sg9
I32
sg10
I4
sg11
I20
sg12
I92
sg13
I93
sg14
I01
sg15
F0.05
sg16
I01
sg17
I01
sg18
F0.1
sg19
I1
sg20
I7
sg21
g22
sasI116
(lp253
I00
a(dp254
g3
I33
sg4
I4
sg5
I01
sg6
I55
sg7
F0.2
sg8
I7
sg9
I128
sg10
I4
sg11
I20
sg12
I93
sg13
I85
sg14
I01
sg15
F0.05
sg16
I01
sg17
I01
sg18
F0.3
sg19
I1
sg20
I20
sg21
g22
sasI117
(lp255
I00
a(dp256
g3
I25
sg4
I4
sg5
I01
sg6
I476
sg7
F0.4
sg8
I7
sg9
I16
sg10
I4
sg11
I20
sg12
I22
sg13
I96
sg14
I01
sg15
F0.05
sg16
I01
sg17
I00
sg18
F0.3
sg19
I1
sg20
I11
sg21
g22
sasI118
(lp257
I00
a(dp258
g3
I64
sg4
I4
sg5
I01
sg6
I291
sg7
F0.0
sg8
I7
sg9
I32
sg10
I4
sg11
I20
sg12
I31
sg13
I74
sg14
I00
sg15
F0.05
sg16
I01
sg17
I00
sg18
F0.1
sg19
I1
sg20
I24
sg21
g22
sasI119
(lp259
I00
a(dp260
g3
I50
sg4
I4
sg5
I01
sg6
I313
sg7
F0.4
sg8
I7
sg9
I32
sg10
I4
sg11
I20
sg12
I44
sg13
I89
sg14
I01
sg15
F0.05
sg16
I01
sg17
I00
sg18
F0.1
sg19
I1
sg20
I35
sg21
g22
sasI120
(lp261
I00
a(dp262
g3
I91
sg4
I4
sg5
I01
sg6
I157
sg7
F0.3
sg8
I7
sg9
I128
sg10
I4
sg11
I20
sg12
I34
sg13
I27
sg14
I01
sg15
F0.05
sg16
I00
sg17
I01
sg18
F0.3
sg19
I1
sg20
I14
sg21
g22
sasI121
(lp263
I00
a(dp264
g3
I91
sg4
I4
sg5
I01
sg6
I459
sg7
F0.1
sg8
I7
sg9
I32
sg10
I4
sg11
I20
sg12
I76
sg13
I21
sg14
I01
sg15
F0.05
sg16
I01
sg17
I00
sg18
F0.1
sg19
I1
sg20
I49
sg21
g22
sasI122
(lp265
I00
a(dp266
g3
I15
sg4
I4
sg5
I01
sg6
I76
sg7
F0.2
sg8
I7
sg9
I128
sg10
I4
sg11
I20
sg12
I57
sg13
I96
sg14
I00
sg15
F0.05
sg16
I01
sg17
I00
sg18
F0.4
sg19
I1
sg20
I8
sg21
g22
sasI123
(lp267
I00
a(dp268
g3
I79
sg4
I4
sg5
I01
sg6
I401
sg7
F0.2
sg8
I7
sg9
I64
sg10
I4
sg11
I20
sg12
I22
sg13
I11
sg14
I01
sg15
F0.05
sg16
I01
sg17
I01
sg18
F0.0
sg19
I1
sg20
I11
sg21
g22
sasI124
(lp269
I00
a(dp270
g3
I71
sg4
I4
sg5
I01
sg6
I387
sg7
F0.1
sg8
I7
sg9
I128
sg10
I4
sg11
I20
sg12
I56
sg13
I11
sg14
I00
sg15
F0.05
sg16
I01
sg17
I00
sg18
F0.4
sg19
I1
sg20
I9
sg21
g22
sasI125
(lp271
I00
a(dp272
g3
I45
sg4
I4
sg5
I01
sg6
I351
sg7
F0.0
sg8
I7
sg9
I32
sg10
I4
sg11
I20
sg12
I22
sg13
I78
sg14
I01
sg15
F0.05
sg16
I01
sg17
I01
sg18
F0.1
sg19
I1
sg20
I28
sg21
g22
sasI126
(lp273
I00
a(dp274
g3
I77
sg4
I4
sg5
I01
sg6
I111
sg7
F0.2
sg8
I7
sg9
I64
sg10
I4
sg11
I20
sg12
I48
sg13
I89
sg14
I01
sg15
F0.05
sg16
I01
sg17
I01
sg18
F0.3
sg19
I1
sg20
I32
sg21
g22
sasI127
(lp275
I00
a(dp276
g3
I63
sg4
I4
sg5
I01
sg6
I345
sg7
F0.4
sg8
I7
sg9
I128
sg10
I4
sg11
I20
sg12
I46
sg13
I95
sg14
I00
sg15
F0.05
sg16
I01
sg17
I00
sg18
F0.0
sg19
I1
sg20
I5
sg21
g22
sasI128
(lp277
I00
a(dp278
g3
I74
sg4
I4
sg5
I01
sg6
I434
sg7
F0.2
sg8
I7
sg9
I64
sg10
I4
sg11
I20
sg12
I66
sg13
I62
sg14
I01
sg15
F0.05
sg16
I00
sg17
I01
sg18
F0.4
sg19
I1
sg20
I41
sg21
g22
sasI129
(lp279
I00
a(dp280
g3
I84
sg4
I4
sg5
I01
sg6
I294
sg7
F0.3
sg8
I7
sg9
I16
sg10
I4
sg11
I20
sg12
I18
sg13
I28
sg14
I00
sg15
F0.05
sg16
I01
sg17
I01
sg18
F0.1
sg19
I1
sg20
I43
sg21
g22
sasI130
(lp281
I00
a(dp282
g3
I98
sg4
I4
sg5
I01
sg6
I364
sg7
F0.3
sg8
I7
sg9
I32
sg10
I4
sg11
I20
sg12
I85
sg13
I41
sg14
I01
sg15
F0.05
sg16
I00
sg17
I00
sg18
F0.4
sg19
I1
sg20
I36
sg21
g22
sasI131
(lp283
I00
a(dp284
g3
I39
sg4
I4
sg5
I01
sg6
I383
sg7
F0.5
sg8
I7
sg9
I64
sg10
I4
sg11
I20
sg12
I15
sg13
I72
sg14
I01
sg15
F0.05
sg16
I01
sg17
I01
sg18
F0.4
sg19
I1
sg20
I44
sg21
g22
sasI132
(lp285
I00
a(dp286
g3
I41
sg4
I4
sg5
I01
sg6
I174
sg7
F0.3
sg8
I7
sg9
I16
sg10
I4
sg11
I20
sg12
I95
sg13
I57
sg14
I00
sg15
F0.05
sg16
I00
sg17
I01
sg18
F0.4
sg19
I1
sg20
I40
sg21
g22
sasI133
(lp287
I00
a(dp288
g3
I45
sg4
I4
sg5
I01
sg6
I404
sg7
F0.4
sg8
I7
sg9
I64
sg10
I4
sg11
I20
sg12
I79
sg13
I81
sg14
I01
sg15
F0.05
sg16
I01
sg17
I01
sg18
F0.2
sg19
I1
sg20
I39
sg21
g22
sasI134
(lp289
I00
a(dp290
g3
I53
sg4
I4
sg5
I01
sg6
I321
sg7
F0.3
sg8
I7
sg9
I128
sg10
I4
sg11
I20
sg12
I7
sg13
I45
sg14
I01
sg15
F0.05
sg16
I01
sg17
I01
sg18
F0.1
sg19
I1
sg20
I37
sg21
g22
sasI135
(lp291
I00
a(dp292
g3
I94
sg4
I4
sg5
I01
sg6
I479
sg7
F0.5
sg8
I7
sg9
I128
sg10
I4
sg11
I20
sg12
I69
sg13
I39
sg14
I01
sg15
F0.05
sg16
I01
sg17
I01
sg18
F0.0
sg19
I1
sg20
I6
sg21
g22
sasI136
(lp293
I00
a(dp294
g3
I64
sg4
I4
sg5
I01
sg6
I428
sg7
F0.3
sg8
I7
sg9
I32
sg10
I4
sg11
I20
sg12
I51
sg13
I31
sg14
I01
sg15
F0.05
sg16
I01
sg17
I01
sg18
F0.1
sg19
I1
sg20
I42
sg21
g22
sasI137
(lp295
I00
a(dp296
g3
I90
sg4
I4
sg5
I01
sg6
I213
sg7
F0.5
sg8
I7
sg9
I16
sg10
I4
sg11
I20
sg12
I54
sg13
I26
sg14
I00
sg15
F0.05
sg16
I00
sg17
I00
sg18
F0.3
sg19
I1
sg20
I16
sg21
g22
sasI138
(lp297
I00
a(dp298
g3
I33
sg4
I4
sg5
I01
sg6
I160
sg7
F0.1
sg8
I7
sg9
I128
sg10
I4
sg11
I20
sg12
I61
sg13
I36
sg14
I00
sg15
F0.05
sg16
I01
sg17
I01
sg18
F0.3
sg19
I1
sg20
I39
sg21
g22
sasI139
(lp299
I00
a(dp300
g3
I35
sg4
I4
sg5
I01
sg6
I376
sg7
F0.4
sg8
I7
sg9
I16
sg10
I4
sg11
I20
sg12
I83
sg13
I63
sg14
I01
sg15
F0.05
sg16
I01
sg17
I01
sg18
F0.2
sg19
I1
sg20
I6
sg21
g22
sasI140
(lp301
I00
a(dp302
g3
I71
sg4
I4
sg5
I01
sg6
I401
sg7
F0.5
sg8
I7
sg9
I32
sg10
I4
sg11
I20
sg12
I43
sg13
I67
sg14
I01
sg15
F0.05
sg16
I01
sg17
I00
sg18
F0.3
sg19
I1
sg20
I31
sg21
g22
sasI141
(lp303
I00
a(dp304
g3
I40
sg4
I4
sg5
I01
sg6
I280
sg7
F0.4
sg8
I7
sg9
I16
sg10
I4
sg11
I20
sg12
I8
sg13
I23
sg14
I00
sg15
F0.05
sg16
I01
sg17
I00
sg18
F0.3
sg19
I1
sg20
I34
sg21
g22
sasI142
(lp305
I00
a(dp306
g3
I46
sg4
I4
sg5
I01
sg6
I97
sg7
F0.2
sg8
I7
sg9
I128
sg10
I4
sg11
I20
sg12
I46
sg13
I49
sg14
I00
sg15
F0.05
sg16
I01
sg17
I01
sg18
F0.3
sg19
I1
sg20
I21
sg21
g22
sasI143
(lp307
I00
a(dp308
g3
I98
sg4
I4
sg5
I01
sg6
I478
sg7
F0.1
sg8
I7
sg9
I32
sg10
I4
sg11
I20
sg12
I75
sg13
I17
sg14
I01
sg15
F0.05
sg16
I01
sg17
I01
sg18
F0.1
sg19
I1
sg20
I40
sg21
g22
sasI144
(lp309
I00
a(dp310
g3
I91
sg4
I4
sg5
I01
sg6
I497
sg7
F0.1
sg8
I7
sg9
I128
sg10
I4
sg11
I20
sg12
I28
sg13
I17
sg14
I00
sg15
F0.05
sg16
I00
sg17
I01
sg18
F0.3
sg19
I1
sg20
I22
sg21
g22
sasI145
(lp311
I00
a(dp312
g3
I39
sg4
I4
sg5
I01
sg6
I307
sg7
F0.4
sg8
I7
sg9
I128
sg10
I4
sg11
I20
sg12
I84
sg13
I12
sg14
I00
sg15
F0.05
sg16
I01
sg17
I01
sg18
F0.2
sg19
I1
sg20
I28
sg21
g22
sasI146
(lp313
I00
a(dp314
g3
I51
sg4
I4
sg5
I01
sg6
I260
sg7
F0.3
sg8
I7
sg9
I16
sg10
I4
sg11
I20
sg12
I93
sg13
I33
sg14
I01
sg15
F0.05
sg16
I01
sg17
I00
sg18
F0.1
sg19
I1
sg20
I48
sg21
g22
sasI147
(lp315
I00
a(dp316
g3
I18
sg4
I4
sg5
I01
sg6
I137
sg7
F0.5
sg8
I7
sg9
I64
sg10
I4
sg11
I20
sg12
I69
sg13
I32
sg14
I01
sg15
F0.05
sg16
I01
sg17
I01
sg18
F0.4
sg19
I1
sg20
I24
sg21
g22
sasI148
(lp317
I00
a(dp318
g3
I12
sg4
I4
sg5
I01
sg6
I356
sg7
F0.3
sg8
I7
sg9
I16
sg10
I4
sg11
I20
sg12
I73
sg13
I35
sg14
I01
sg15
F0.05
sg16
I01
sg17
I00
sg18
F0.1
sg19
I1
sg20
I22
sg21
g22
sasI149
(lp319
I00
a(dp320
g3
I55
sg4
I4
sg5
I01
sg6
I205
sg7
F0.4
sg8
I7
sg9
I128
sg10
I4
sg11
I20
sg12
I84
sg13
I90
sg14
I01
sg15
F0.05
sg16
I01
sg17
I00
sg18
F0.3
sg19
I1
sg20
I19
sg21
g22
sasI150
(lp321
I00
a(dp322
g3
I18
sg4
I4
sg5
I01
sg6
I367
sg7
F0.3
sg8
I7
sg9
I16
sg10
I4
sg11
I20
sg12
I27
sg13
I37
sg14
I01
sg15
F0.05
sg16
I00
sg17
I01
sg18
F0.2
sg19
I1
sg20
I40
sg21
g22
sasI151
(lp323
I00
a(dp324
g3
I49
sg4
I4
sg5
I01
sg6
I284
sg7
F0.1
sg8
I7
sg9
I64
sg10
I4
sg11
I20
sg12
I32
sg13
I37
sg14
I01
sg15
F0.05
sg16
I01
sg17
I01
sg18
F0.3
sg19
I1
sg20
I12
sg21
g22
sasI152
(lp325
I00
a(dp326
g3
I83
sg4
I4
sg5
I01
sg6
I116
sg7
F0.1
sg8
I7
sg9
I32
sg10
I4
sg11
I20
sg12
I91
sg13
I83
sg14
I00
sg15
F0.05
sg16
I01
sg17
I00
sg18
F0.4
sg19
I1
sg20
I36
sg21
g22
sasI153
(lp327
I00
a(dp328
g3
I28
sg4
I4
sg5
I01
sg6
I82
sg7
F0.4
sg8
I7
sg9
I32
sg10
I4
sg11
I20
sg12
I13
sg13
I22
sg14
I00
sg15
F0.05
sg16
I01
sg17
I01
sg18
F0.3
sg19
I1
sg20
I39
sg21
g22
sasI154
(lp329
I00
a(dp330
g3
I91
sg4
I4
sg5
I01
sg6
I320
sg7
F0.0
sg8
I7
sg9
I16
sg10
I4
sg11
I20
sg12
I56
sg13
I31
sg14
I01
sg15
F0.05
sg16
I01
sg17
I01
sg18
F0.2
sg19
I1
sg20
I47
sg21
g22
sasI155
(lp331
I00
a(dp332
g3
I56
sg4
I4
sg5
I01
sg6
I321
sg7
F0.2
sg8
I7
sg9
I64
sg10
I4
sg11
I20
sg12
I48
sg13
I66
sg14
I01
sg15
F0.05
sg16
I00
sg17
I01
sg18
F0.3
sg19
I1
sg20
I40
sg21
g22
sasI156
(lp333
I00
a(dp334
g3
I21
sg4
I4
sg5
I01
sg6
I426
sg7
F0.4
sg8
I7
sg9
I16
sg10
I4
sg11
I20
sg12
I44
sg13
I5
sg14
I01
sg15
F0.05
sg16
I01
sg17
I01
sg18
F0.2
sg19
I1
sg20
I15
sg21
g22
sasI157
(lp335
I00
a(dp336
g3
I31
sg4
I4
sg5
I01
sg6
I464
sg7
F0.0
sg8
I7
sg9
I16
sg10
I4
sg11
I20
sg12
I66
sg13
I42
sg14
I01
sg15
F0.05
sg16
I01
sg17
I00
sg18
F0.1
sg19
I1
sg20
I42
sg21
g22
sasI158
(lp337
I00
a(dp338
g3
I98
sg4
I4
sg5
I01
sg6
I88
sg7
F0.5
sg8
I7
sg9
I64
sg10
I4
sg11
I20
sg12
I11
sg13
I57
sg14
I01
sg15
F0.05
sg16
I01
sg17
I01
sg18
F0.3
sg19
I1
sg20
I25
sg21
g22
sasI159
(lp339
I00
a(dp340
g3
I78
sg4
I4
sg5
I01
sg6
I63
sg7
F0.4
sg8
I7
sg9
I64
sg10
I4
sg11
I20
sg12
I78
sg13
I95
sg14
I01
sg15
F0.05
sg16
I01
sg17
I01
sg18
F0.2
sg19
I1
sg20
I19
sg21
g22
sasI160
(lp341
I00
a(dp342
g3
I20
sg4
I4
sg5
I01
sg6
I394
sg7
F0.3
sg8
I7
sg9
I32
sg10
I4
sg11
I20
sg12
I33
sg13
I50
sg14
I00
sg15
F0.05
sg16
I00
sg17
I01
sg18
F0.3
sg19
I1
sg20
I39
sg21
g22
sasI161
(lp343
I00
a(dp344
g3
I29
sg4
I4
sg5
I01
sg6
I84
sg7
F0.1
sg8
I7
sg9
I64
sg10
I4
sg11
I20
sg12
I94
sg13
I39
sg14
I01
sg15
F0.05
sg16
I01
sg17
I00
sg18
F0.5
sg19
I1
sg20
I29
sg21
g22
sasI162
(lp345
I00
a(dp346
g3
I97
sg4
I4
sg5
I01
sg6
I396
sg7
F0.2
sg8
I7
sg9
I16
sg10
I4
sg11
I20
sg12
I61
sg13
I9
sg14
I01
sg15
F0.05
sg16
I00
sg17
I01
sg18
F0.1
sg19
I1
sg20
I30
sg21
g22
sasI163
(lp347
I00
a(dp348
g3
I83
sg4
I4
sg5
I01
sg6
I293
sg7
F0.3
sg8
I7
sg9
I16
sg10
I4
sg11
I20
sg12
I60
sg13
I16
sg14
I01
sg15
F0.05
sg16
I00
sg17
I01
sg18
F0.1
sg19
I1
sg20
I8
sg21
g22
sasI164
(lp349
I00
a(dp350
g3
I40
sg4
I4
sg5
I01
sg6
I140
sg7
F0.1
sg8
I7
sg9
I16
sg10
I4
sg11
I20
sg12
I53
sg13
I20
sg14
I00
sg15
F0.05
sg16
I00
sg17
I00
sg18
F0.1
sg19
I1
sg20
I28
sg21
g22
sasI165
(lp351
I00
a(dp352
g3
I95
sg4
I4
sg5
I01
sg6
I304
sg7
F0.3
sg8
I7
sg9
I16
sg10
I4
sg11
I20
sg12
I34
sg13
I28
sg14
I01
sg15
F0.05
sg16
I01
sg17
I00
sg18
F0.0
sg19
I1
sg20
I45
sg21
g22
sasI166
(lp353
I00
a(dp354
g3
I66
sg4
I4
sg5
I01
sg6
I158
sg7
F0.1
sg8
I7
sg9
I64
sg10
I4
sg11
I20
sg12
I91
sg13
I40
sg14
I00
sg15
F0.05
sg16
I01
sg17
I01
sg18
F0.2
sg19
I1
sg20
I12
sg21
g22
sasI167
(lp355
I00
a(dp356
g3
I52
sg4
I4
sg5
I01
sg6
I196
sg7
F0.2
sg8
I7
sg9
I32
sg10
I4
sg11
I20
sg12
I93
sg13
I61
sg14
I00
sg15
F0.05
sg16
I01
sg17
I01
sg18
F0.4
sg19
I1
sg20
I28
sg21
g22
sasI168
(lp357
I00
a(dp358
g3
I38
sg4
I4
sg5
I01
sg6
I205
sg7
F0.4
sg8
I7
sg9
I128
sg10
I4
sg11
I20
sg12
I28
sg13
I11
sg14
I00
sg15
F0.05
sg16
I00
sg17
I01
sg18
F0.3
sg19
I1
sg20
I34
sg21
g22
sasI169
(lp359
I00
a(dp360
g3
I18
sg4
I4
sg5
I01
sg6
I233
sg7
F0.3
sg8
I7
sg9
I16
sg10
I4
sg11
I20
sg12
I11
sg13
I30
sg14
I01
sg15
F0.05
sg16
I01
sg17
I01
sg18
F0.3
sg19
I1
sg20
I47
sg21
g22
sasI170
(lp361
I00
a(dp362
g3
I19
sg4
I4
sg5
I01
sg6
I482
sg7
F0.1
sg8
I7
sg9
I32
sg10
I4
sg11
I20
sg12
I91
sg13
I76
sg14
I01
sg15
F0.05
sg16
I01
sg17
I00
sg18
F0.2
sg19
I1
sg20
I5
sg21
g22
sasI171
(lp363
I00
a(dp364
g3
I54
sg4
I4
sg5
I01
sg6
I311
sg7
F0.2
sg8
I7
sg9
I32
sg10
I4
sg11
I20
sg12
I84
sg13
I37
sg14
I01
sg15
F0.05
sg16
I01
sg17
I00
sg18
F0.4
sg19
I1
sg20
I45
sg21
g22
sasI172
(lp365
I00
a(dp366
g3
I36
sg4
I4
sg5
I01
sg6
I470
sg7
F0.1
sg8
I7
sg9
I128
sg10
I4
sg11
I20
sg12
I73
sg13
I8
sg14
I00
sg15
F0.05
sg16
I00
sg17
I00
sg18
F0.3
sg19
I1
sg20
I43
sg21
g22
sasI173
(lp367
I00
a(dp368
g3
I78
sg4
I4
sg5
I01
sg6
I224
sg7
F0.2
sg8
I7
sg9
I32
sg10
I4
sg11
I20
sg12
I66
sg13
I49
sg14
I01
sg15
F0.05
sg16
I01
sg17
I00
sg18
F0.1
sg19
I1
sg20
I30
sg21
g22
sasI174
(lp369
I00
a(dp370
g3
I48
sg4
I4
sg5
I01
sg6
I71
sg7
F0.0
sg8
I7
sg9
I16
sg10
I4
sg11
I20
sg12
I85
sg13
I86
sg14
I00
sg15
F0.05
sg16
I00
sg17
I00
sg18
F0.3
sg19
I1
sg20
I47
sg21
g22
sasI175
(lp371
I00
a(dp372
g3
I51
sg4
I4
sg5
I01
sg6
I407
sg7
F0.3
sg8
I7
sg9
I32
sg10
I4
sg11
I20
sg12
I67
sg13
I15
sg14
I01
sg15
F0.05
sg16
I01
sg17
I01
sg18
F0.5
sg19
I1
sg20
I25
sg21
g22
sasI176
(lp373
I00
a(dp374
g3
I95
sg4
I4
sg5
I01
sg6
I431
sg7
F0.3
sg8
I7
sg9
I16
sg10
I4
sg11
I20
sg12
I91
sg13
I43
sg14
I01
sg15
F0.05
sg16
I00
sg17
I01
sg18
F0.1
sg19
I1
sg20
I23
sg21
g22
sasI177
(lp375
I00
a(dp376
g3
I20
sg4
I4
sg5
I01
sg6
I224
sg7
F0.0
sg8
I7
sg9
I16
sg10
I4
sg11
I20
sg12
I17
sg13
I64
sg14
I00
sg15
F0.05
sg16
I00
sg17
I01
sg18
F0.2
sg19
I1
sg20
I22
sg21
g22
sasI178
(lp377
I00
a(dp378
g3
I61
sg4
I4
sg5
I01
sg6
I234
sg7
F0.3
sg8
I7
sg9
I64
sg10
I4
sg11
I20
sg12
I18
sg13
I43
sg14
I01
sg15
F0.05
sg16
I00
sg17
I01
sg18
F0.5
sg19
I1
sg20
I12
sg21
g22
sasI179
(lp379
I00
a(dp380
g3
I98
sg4
I4
sg5
I01
sg6
I224
sg7
F0.2
sg8
I7
sg9
I64
sg10
I4
sg11
I20
sg12
I92
sg13
I20
sg14
I00
sg15
F0.05
sg16
I01
sg17
I01
sg18
F0.3
sg19
I1
sg20
I30
sg21
g22
sasI180
(lp381
I00
a(dp382
g3
I84
sg4
I4
sg5
I01
sg6
I285
sg7
F0.1
sg8
I7
sg9
I16
sg10
I4
sg11
I20
sg12
I21
sg13
I35
sg14
I00
sg15
F0.05
sg16
I01
sg17
I00
sg18
F0.0
sg19
I1
sg20
I25
sg21
g22
sasI181
(lp383
I00
a(dp384
g3
I35
sg4
I4
sg5
I01
sg6
I228
sg7
F0.3
sg8
I7
sg9
I32
sg10
I4
sg11
I20
sg12
I90
sg13
I58
sg14
I01
sg15
F0.05
sg16
I01
sg17
I01
sg18
F0.2
sg19
I1
sg20
I30
sg21
g22
sasI182
(lp385
I00
a(dp386
g3
I59
sg4
I4
sg5
I01
sg6
I347
sg7
F0.1
sg8
I7
sg9
I32
sg10
I4
sg11
I20
sg12
I37
sg13
I44
sg14
I01
sg15
F0.05
sg16
I01
sg17
I00
sg18
F0.5
sg19
I1
sg20
I27
sg21
g22
sasI183
(lp387
I00
a(dp388
g3
I28
sg4
I4
sg5
I01
sg6
I272
sg7
F0.4
sg8
I7
sg9
I128
sg10
I4
sg11
I20
sg12
I12
sg13
I45
sg14
I00
sg15
F0.05
sg16
I01
sg17
I01
sg18
F0.1
sg19
I1
sg20
I10
sg21
g22
sasI184
(lp389
I00
a(dp390
g3
I41
sg4
I4
sg5
I01
sg6
I244
sg7
F0.4
sg8
I7
sg9
I32
sg10
I4
sg11
I20
sg12
I19
sg13
I63
sg14
I00
sg15
F0.05
sg16
I01
sg17
I01
sg18
F0.4
sg19
I1
sg20
I40
sg21
g22
sasI185
(lp391
I00
a(dp392
g3
I33
sg4
I4
sg5
I01
sg6
I75
sg7
F0.1
sg8
I7
sg9
I16
sg10
I4
sg11
I20
sg12
I52
sg13
I96
sg14
I01
sg15
F0.05
sg16
I01
sg17
I01
sg18
F0.3
sg19
I1
sg20
I17
sg21
g22
sasI186
(lp393
I00
a(dp394
g3
I80
sg4
I4
sg5
I01
sg6
I348
sg7
F0.2
sg8
I7
sg9
I128
sg10
I4
sg11
I20
sg12
I62
sg13
I14
sg14
I01
sg15
F0.05
sg16
I00
sg17
I01
sg18
F0.4
sg19
I1
sg20
I39
sg21
g22
sasI187
(lp395
I00
a(dp396
g3
I68
sg4
I4
sg5
I01
sg6
I54
sg7
F0.5
sg8
I7
sg9
I16
sg10
I4
sg11
I20
sg12
I73
sg13
I35
sg14
I00
sg15
F0.05
sg16
I01
sg17
I00
sg18
F0.3
sg19
I1
sg20
I33
sg21
g22
sasI188
(lp397
I00
a(dp398
g3
I33
sg4
I4
sg5
I01
sg6
I429
sg7
F0.5
sg8
I7
sg9
I128
sg10
I4
sg11
I20
sg12
I80
sg13
I62
sg14
I01
sg15
F0.05
sg16
I01
sg17
I00
sg18
F0.0
sg19
I1
sg20
I35
sg21
g22
sasI189
(lp399
I00
a(dp400
g3
I96
sg4
I4
sg5
I01
sg6
I153
sg7
F0.1
sg8
I7
sg9
I32
sg10
I4
sg11
I20
sg12
I72
sg13
I75
sg14
I00
sg15
F0.05
sg16
I01
sg17
I01
sg18
F0.4
sg19
I1
sg20
I28
sg21
g22
sasI190
(lp401
I00
a(dp402
g3
I55
sg4
I4
sg5
I01
sg6
I391
sg7
F0.4
sg8
I7
sg9
I32
sg10
I4
sg11
I20
sg12
I43
sg13
I74
sg14
I01
sg15
F0.05
sg16
I01
sg17
I01
sg18
F0.4
sg19
I1
sg20
I45
sg21
g22
sasI191
(lp403
I00
a(dp404
g3
I71
sg4
I4
sg5
I01
sg6
I126
sg7
F0.1
sg8
I7
sg9
I128
sg10
I4
sg11
I20
sg12
I90
sg13
I47
sg14
I00
sg15
F0.05
sg16
I00
sg17
I00
sg18
F0.0
sg19
I1
sg20
I41
sg21
g22
sasI192
(lp405
I01
a(dp406
g3
I25
sg4
I4
sg5
I01
sg6
I332
sg7
F0.2
sg8
I7
sg9
I64
sg10
I4
sg11
I20
sg12
I54
sg13
I94
sg14
I00
sg15
F0.05
sg16
I01
sg17
I01
sg18
F0.1
sg19
I1
sg20
I46
sg21
g22
sasI193
(lp407
I00
a(dp408
g3
I39
sg4
I4
sg5
I01
sg6
I488
sg7
F0.2
sg8
I7
sg9
I64
sg10
I4
sg11
I20
sg12
I71
sg13
I91
sg14
I01
sg15
F0.05
sg16
I01
sg17
I00
sg18
F0.5
sg19
I1
sg20
I11
sg21
g22
sasI194
(lp409
I00
a(dp410
g3
I24
sg4
I4
sg5
I01
sg6
I281
sg7
F0.0
sg8
I7
sg9
I16
sg10
I4
sg11
I20
sg12
I47
sg13
I39
sg14
I00
sg15
F0.05
sg16
I00
sg17
I01
sg18
F0.2
sg19
I1
sg20
I30
sg21
g22
sasI195
(lp411
I00
a(dp412
g3
I32
sg4
I4
sg5
I01
sg6
I361
sg7
F0.4
sg8
I7
sg9
I32
sg10
I4
sg11
I20
sg12
I47
sg13
I41
sg14
I01
sg15
F0.05
sg16
I01
sg17
I00
sg18
F0.1
sg19
I1
sg20
I8
sg21
g22
sasI196
(lp413
I00
a(dp414
g3
I61
sg4
I4
sg5
I01
sg6
I127
sg7
F0.3
sg8
I7
sg9
I32
sg10
I4
sg11
I20
sg12
I11
sg13
I64
sg14
I01
sg15
F0.05
sg16
I01
sg17
I01
sg18
F0.2
sg19
I1
sg20
I5
sg21
g22
sasI197
(lp415
I00
a(dp416
g3
I61
sg4
I4
sg5
I01
sg6
I357
sg7
F0.4
sg8
I7
sg9
I16
sg10
I4
sg11
I20
sg12
I34
sg13
I27
sg14
I01
sg15
F0.05
sg16
I01
sg17
I01
sg18
F0.0
sg19
I1
sg20
I20
sg21
g22
sasI198
(lp417
I00
a(dp418
g3
I10
sg4
I4
sg5
I01
sg6
I127
sg7
F0.4
sg8
I7
sg9
I32
sg10
I4
sg11
I20
sg12
I76
sg13
I36
sg14
I00
sg15
F0.05
sg16
I00
sg17
I00
sg18
F0.1
sg19
I1
sg20
I34
sg21
g22
sasI199
(lp419
I00
a(dp420
g3
I14
sg4
I4
sg5
I01
sg6
I401
sg7
F0.0
sg8
I7
sg9
I64
sg10
I4
sg11
I20
sg12
I92
sg13
I56
sg14
I01
sg15
F0.05
sg16
I01
sg17
I00
sg18
F0.3
sg19
I1
sg20
I38
sg21
g22
sasI200
(lp421
I00
a(dp422
g3
I37
sg4
I4
sg5
I01
sg6
I493
sg7
F0.3
sg8
I7
sg9
I32
sg10
I4
sg11
I20
sg12
I59
sg13
I96
sg14
I01
sg15
F0.05
sg16
I01
sg17
I01
sg18
F0.1
sg19
I1
sg20
I48
sg21
g22
sasI201
(lp423
I00
a(dp424
g3
I58
sg4
I4
sg5
I01
sg6
I445
sg7
F0.2
sg8
I7
sg9
I32
sg10
I4
sg11
I20
sg12
I7
sg13
I71
sg14
I01
sg15
F0.05
sg16
I01
sg17
I00
sg18
F0.1
sg19
I1
sg20
I26
sg21
g22
sasI202
(lp425
I00
a(dp426
g3
I77
sg4
I4
sg5
I01
sg6
I353
sg7
F0.4
sg8
I7
sg9
I32
sg10
I4
sg11
I20
sg12
I46
sg13
I18
sg14
I01
sg15
F0.05
sg16
I01
sg17
I01
sg18
F0.4
sg19
I1
sg20
I36
sg21
g22
sasI203
(lp427
I00
a(dp428
g3
I73
sg4
I4
sg5
I01
sg6
I251
sg7
F0.3
sg8
I7
sg9
I64
sg10
I4
sg11
I20
sg12
I45
sg13
I22
sg14
I01
sg15
F0.05
sg16
I01
sg17
I00
sg18
F0.5
sg19
I1
sg20
I34
sg21
g22
sasI204
(lp429
I00
a(dp430
g3
I78
sg4
I4
sg5
I01
sg6
I410
sg7
F0.1
sg8
I7
sg9
I16
sg10
I4
sg11
I20
sg12
I73
sg13
I94
sg14
I01
sg15
F0.05
sg16
I01
sg17
I00
sg18
F0.2
sg19
I1
sg20
I29
sg21
g22
sasI205
(lp431
I00
a(dp432
g3
I96
sg4
I4
sg5
I01
sg6
I462
sg7
F0.2
sg8
I7
sg9
I128
sg10
I4
sg11
I20
sg12
I92
sg13
I10
sg14
I01
sg15
F0.05
sg16
I00
sg17
I01
sg18
F0.3
sg19
I1
sg20
I37
sg21
g22
sasI206
(lp433
I00
a(dp434
g3
I31
sg4
I4
sg5
I01
sg6
I488
sg7
F0.0
sg8
I7
sg9
I32
sg10
I4
sg11
I20
sg12
I34
sg13
I52
sg14
I01
sg15
F0.05
sg16
I01
sg17
I00
sg18
F0.2
sg19
I1
sg20
I24
sg21
g22
sasI207
(lp435
I00
a(dp436
g3
I83
sg4
I4
sg5
I01
sg6
I200
sg7
F0.1
sg8
I7
sg9
I64
sg10
I4
sg11
I20
sg12
I33
sg13
I45
sg14
I00
sg15
F0.05
sg16
I00
sg17
I00
sg18
F0.2
sg19
I1
sg20
I22
sg21
g22
sasI208
(lp437
I00
a(dp438
g3
I96
sg4
I4
sg5
I01
sg6
I277
sg7
F0.1
sg8
I7
sg9
I64
sg10
I4
sg11
I20
sg12
I64
sg13
I34
sg14
I01
sg15
F0.05
sg16
I01
sg17
I01
sg18
F0.4
sg19
I1
sg20
I29
sg21
g22
sasI209
(lp439
I00
a(dp440
g3
I66
sg4
I4
sg5
I01
sg6
I380
sg7
F0.4
sg8
I7
sg9
I128
sg10
I4
sg11
I20
sg12
I10
sg13
I68
sg14
I01
sg15
F0.05
sg16
I01
sg17
I01
sg18
F0.4
sg19
I1
sg20
I10
sg21
g22
sasI210
(lp441
I00
a(dp442
g3
I21
sg4
I4
sg5
I01
sg6
I245
sg7
F0.2
sg8
I7
sg9
I64
sg10
I4
sg11
I20
sg12
I7
sg13
I33
sg14
I00
sg15
F0.05
sg16
I00
sg17
I00
sg18
F0.3
sg19
I1
sg20
I6
sg21
g22
sasI211
(lp443
I00
a(dp444
g3
I36
sg4
I4
sg5
I01
sg6
I127
sg7
F0.2
sg8
I7
sg9
I16
sg10
I4
sg11
I20
sg12
I28
sg13
I95
sg14
I01
sg15
F0.05
sg16
I01
sg17
I00
sg18
F0.1
sg19
I1
sg20
I44
sg21
g22
sasI212
(lp445
I00
a(dp446
g3
I83
sg4
I4
sg5
I01
sg6
I85
sg7
F0.2
sg8
I7
sg9
I16
sg10
I4
sg11
I20
sg12
I43
sg13
I17
sg14
I01
sg15
F0.05
sg16
I01
sg17
I00
sg18
F0.3
sg19
I1
sg20
I35
sg21
g22
sasI213
(lp447
I00
a(dp448
g3
I44
sg4
I4
sg5
I01
sg6
I69
sg7
F0.5
sg8
I7
sg9
I64
sg10
I4
sg11
I20
sg12
I79
sg13
I21
sg14
I00
sg15
F0.05
sg16
I01
sg17
I00
sg18
F0.1
sg19
I1
sg20
I33
sg21
g22
sasI214
(lp449
I00
a(dp450
g3
I44
sg4
I4
sg5
I01
sg6
I447
sg7
F0.5
sg8
I7
sg9
I32
sg10
I4
sg11
I20
sg12
I60
sg13
I55
sg14
I01
sg15
F0.05
sg16
I01
sg17
I00
sg18
F0.4
sg19
I1
sg20
I45
sg21
g22
sasI215
(lp451
I00
a(dp452
g3
I35
sg4
I4
sg5
I01
sg6
I197
sg7
F0.3
sg8
I7
sg9
I32
sg10
I4
sg11
I20
sg12
I86
sg13
I82
sg14
I01
sg15
F0.05
sg16
I01
sg17
I01
sg18
F0.4
sg19
I1
sg20
I26
sg21
g22
sasI216
(lp453
I00
a(dp454
g3
I54
sg4
I4
sg5
I01
sg6
I386
sg7
F0.3
sg8
I7
sg9
I32
sg10
I4
sg11
I20
sg12
I11
sg13
I97
sg14
I00
sg15
F0.05
sg16
I00
sg17
I00
sg18
F0.3
sg19
I1
sg20
I9
sg21
g22
sasI217
(lp455
I00
a(dp456
g3
I48
sg4
I4
sg5
I01
sg6
I377
sg7
F0.2
sg8
I7
sg9
I128
sg10
I4
sg11
I20
sg12
I54
sg13
I31
sg14
I01
sg15
F0.05
sg16
I01
sg17
I00
sg18
F0.5
sg19
I1
sg20
I33
sg21
g22
sasI218
(lp457
I00
a(dp458
g3
I73
sg4
I4
sg5
I01
sg6
I126
sg7
F0.2
sg8
I7
sg9
I128
sg10
I4
sg11
I20
sg12
I49
sg13
I41
sg14
I01
sg15
F0.05
sg16
I01
sg17
I01
sg18
F0.1
sg19
I1
sg20
I37
sg21
g22
sasI219
(lp459
I00
a(dp460
g3
I58
sg4
I4
sg5
I01
sg6
I397
sg7
F0.1
sg8
I7
sg9
I32
sg10
I4
sg11
I20
sg12
I9
sg13
I23
sg14
I01
sg15
F0.05
sg16
I00
sg17
I01
sg18
F0.4
sg19
I1
sg20
I43
sg21
g22
sasI220
(lp461
I00
a(dp462
g3
I37
sg4
I4
sg5
I01
sg6
I211
sg7
F0.3
sg8
I7
sg9
I16
sg10
I4
sg11
I20
sg12
I37
sg13
I18
sg14
I01
sg15
F0.05
sg16
I01
sg17
I01
sg18
F0.4
sg19
I1
sg20
I33
sg21
g22
sasI221
(lp463
I00
a(dp464
g3
I78
sg4
I4
sg5
I01
sg6
I388
sg7
F0.1
sg8
I7
sg9
I32
sg10
I4
sg11
I20
sg12
I34
sg13
I30
sg14
I01
sg15
F0.05
sg16
I01
sg17
I00
sg18
F0.1
sg19
I1
sg20
I28
sg21
g22
sasI222
(lp465
I00
a(dp466
g3
I99
sg4
I4
sg5
I01
sg6
I396
sg7
F0.2
sg8
I7
sg9
I32
sg10
I4
sg11
I20
sg12
I14
sg13
I76
sg14
I00
sg15
F0.05
sg16
I01
sg17
I00
sg18
F0.1
sg19
I1
sg20
I41
sg21
g22
sasI223
(lp467
I00
a(dp468
g3
I13
sg4
I4
sg5
I01
sg6
I343
sg7
F0.3
sg8
I7
sg9
I128
sg10
I4
sg11
I20
sg12
I9
sg13
I90
sg14
I01
sg15
F0.05
sg16
I00
sg17
I00
sg18
F0.3
sg19
I1
sg20
I10
sg21
g22
sasI224
(lp469
I00
a(dp470
g3
I85
sg4
I4
sg5
I01
sg6
I276
sg7
F0.0
sg8
I7
sg9
I128
sg10
I4
sg11
I20
sg12
I34
sg13
I25
sg14
I01
sg15
F0.05
sg16
I00
sg17
I01
sg18
F0.0
sg19
I1
sg20
I15
sg21
g22
sasI225
(lp471
I00
a(dp472
g3
I99
sg4
I4
sg5
I01
sg6
I116
sg7
F0.2
sg8
I7
sg9
I64
sg10
I4
sg11
I20
sg12
I13
sg13
I99
sg14
I01
sg15
F0.05
sg16
I01
sg17
I01
sg18
F0.1
sg19
I1
sg20
I11
sg21
g22
sasI226
(lp473
I00
a(dp474
g3
I19
sg4
I4
sg5
I01
sg6
I364
sg7
F0.1
sg8
I7
sg9
I128
sg10
I4
sg11
I20
sg12
I7
sg13
I74
sg14
I01
sg15
F0.05
sg16
I01
sg17
I01
sg18
F0.3
sg19
I1
sg20
I40
sg21
g22
sasI227
(lp475
I00
a(dp476
g3
I33
sg4
I4
sg5
I01
sg6
I175
sg7
F0.1
sg8
I7
sg9
I32
sg10
I4
sg11
I20
sg12
I21
sg13
I56
sg14
I01
sg15
F0.05
sg16
I01
sg17
I00
sg18
F0.3
sg19
I1
sg20
I46
sg21
g22
sasI228
(lp477
I00
a(dp478
g3
I32
sg4
I4
sg5
I01
sg6
I159
sg7
F0.4
sg8
I7
sg9
I64
sg10
I4
sg11
I20
sg12
I55
sg13
I50
sg14
I01
sg15
F0.05
sg16
I01
sg17
I01
sg18
F0.5
sg19
I1
sg20
I30
sg21
g22
sasI229
(lp479
I00
a(dp480
g3
I76
sg4
I4
sg5
I01
sg6
I50
sg7
F0.3
sg8
I7
sg9
I32
sg10
I4
sg11
I20
sg12
I53
sg13
I40
sg14
I01
sg15
F0.05
sg16
I01
sg17
I01
sg18
F0.1
sg19
I1
sg20
I33
sg21
g22
sasI230
(lp481
I00
a(dp482
g3
I56
sg4
I4
sg5
I01
sg6
I371
sg7
F0.4
sg8
I7
sg9
I128
sg10
I4
sg11
I20
sg12
I45
sg13
I11
sg14
I01
sg15
F0.05
sg16
I01
sg17
I01
sg18
F0.2
sg19
I1
sg20
I24
sg21
g22
sasI231
(lp483
I00
a(dp484
g3
I40
sg4
I4
sg5
I01
sg6
I386
sg7
F0.4
sg8
I7
sg9
I128
sg10
I4
sg11
I20
sg12
I74
sg13
I67
sg14
I01
sg15
F0.05
sg16
I01
sg17
I01
sg18
F0.1
sg19
I1
sg20
I35
sg21
g22
sasI232
(lp485
I00
a(dp486
g3
I42
sg4
I4
sg5
I01
sg6
I352
sg7
F0.3
sg8
I7
sg9
I32
sg10
I4
sg11
I20
sg12
I43
sg13
I25
sg14
I00
sg15
F0.05
sg16
I01
sg17
I00
sg18
F0.4
sg19
I1
sg20
I11
sg21
g22
sasI233
(lp487
I00
a(dp488
g3
I25
sg4
I4
sg5
I01
sg6
I496
sg7
F0.4
sg8
I7
sg9
I32
sg10
I4
sg11
I20
sg12
I98
sg13
I48
sg14
I01
sg15
F0.05
sg16
I01
sg17
I01
sg18
F0.1
sg19
I1
sg20
I18
sg21
g22
sasI234
(lp489
I00
a(dp490
g3
I62
sg4
I4
sg5
I01
sg6
I170
sg7
F0.5
sg8
I7
sg9
I16
sg10
I4
sg11
I20
sg12
I31
sg13
I76
sg14
I01
sg15
F0.05
sg16
I01
sg17
I01
sg18
F0.4
sg19
I1
sg20
I5
sg21
g22
sasI235
(lp491
I00
a(dp492
g3
I14
sg4
I4
sg5
I01
sg6
I336
sg7
F0.3
sg8
I7
sg9
I128
sg10
I4
sg11
I20
sg12
I80
sg13
I40
sg14
I00
sg15
F0.05
sg16
I01
sg17
I01
sg18
F0.0
sg19
I1
sg20
I5
sg21
g22
sasI236
(lp493
I00
a(dp494
g3
I44
sg4
I4
sg5
I01
sg6
I418
sg7
F0.0
sg8
I7
sg9
I128
sg10
I4
sg11
I20
sg12
I70
sg13
I80
sg14
I00
sg15
F0.05
sg16
I01
sg17
I00
sg18
F0.3
sg19
I1
sg20
I37
sg21
g22
sasI237
(lp495
I00
a(dp496
g3
I59
sg4
I4
sg5
I01
sg6
I451
sg7
F0.2
sg8
I7
sg9
I16
sg10
I4
sg11
I20
sg12
I69
sg13
I82
sg14
I01
sg15
F0.05
sg16
I00
sg17
I00
sg18
F0.0
sg19
I1
sg20
I34
sg21
g22
sasI238
(lp497
I00
a(dp498
g3
I89
sg4
I4
sg5
I01
sg6
I407
sg7
F0.3
sg8
I7
sg9
I64
sg10
I4
sg11
I20
sg12
I99
sg13
I30
sg14
I00
sg15
F0.05
sg16
I01
sg17
I00
sg18
F0.5
sg19
I1
sg20
I38
sg21
g22
sasI239
(lp499
I00
a(dp500
g3
I34
sg4
I4
sg5
I01
sg6
I155
sg7
F0.5
sg8
I7
sg9
I16
sg10
I4
sg11
I20
sg12
I60
sg13
I76
sg14
I01
sg15
F0.05
sg16
I00
sg17
I00
sg18
F0.2
sg19
I1
sg20
I33
sg21
g22
sasI240
(lp501
I00
a(dp502
g3
I61
sg4
I4
sg5
I01
sg6
I179
sg7
F0.5
sg8
I7
sg9
I32
sg10
I4
sg11
I20
sg12
I55
sg13
I76
sg14
I01
sg15
F0.05
sg16
I01
sg17
I00
sg18
F0.4
sg19
I1
sg20
I46
sg21
g22
sasI241
(lp503
I00
a(dp504
g3
I88
sg4
I4
sg5
I01
sg6
I186
sg7
F0.3
sg8
I7
sg9
I32
sg10
I4
sg11
I20
sg12
I48
sg13
I82
sg14
I01
sg15
F0.05
sg16
I01
sg17
I00
sg18
F0.3
sg19
I1
sg20
I39
sg21
g22
sasI242
(lp505
I00
a(dp506
g3
I17
sg4
I4
sg5
I01
sg6
I218
sg7
F0.4
sg8
I7
sg9
I64
sg10
I4
sg11
I20
sg12
I51
sg13
I52
sg14
I01
sg15
F0.05
sg16
I01
sg17
I00
sg18
F0.2
sg19
I1
sg20
I44
sg21
g22
sasI243
(lp507
I00
a(dp508
g3
I75
sg4
I4
sg5
I01
sg6
I405
sg7
F0.3
sg8
I7
sg9
I128
sg10
I4
sg11
I20
sg12
I49
sg13
I19
sg14
I01
sg15
F0.05
sg16
I01
sg17
I00
sg18
F0.2
sg19
I1
sg20
I44
sg21
g22
sasI244
(lp509
I00
a(dp510
g3
I29
sg4
I4
sg5
I01
sg6
I109
sg7
F0.1
sg8
I7
sg9
I128
sg10
I4
sg11
I20
sg12
I39
sg13
I33
sg14
I01
sg15
F0.05
sg16
I00
sg17
I01
sg18
F0.3
sg19
I1
sg20
I26
sg21
g22
sasI245
(lp511
I00
a(dp512
g3
I63
sg4
I4
sg5
I01
sg6
I216
sg7
F0.1
sg8
I7
sg9
I64
sg10
I4
sg11
I20
sg12
I32
sg13
I23
sg14
I00
sg15
F0.05
sg16
I01
sg17
I00
sg18
F0.3
sg19
I1
sg20
I24
sg21
g22
sasI246
(lp513
I00
a(dp514
g3
I41
sg4
I4
sg5
I01
sg6
I394
sg7
F0.1
sg8
I7
sg9
I32
sg10
I4
sg11
I20
sg12
I94
sg13
I76
sg14
I01
sg15
F0.05
sg16
I01
sg17
I00
sg18
F0.5
sg19
I1
sg20
I27
sg21
g22
sasI247
(lp515
I00
a(dp516
g3
I96
sg4
I4
sg5
I01
sg6
I400
sg7
F0.1
sg8
I7
sg9
I32
sg10
I4
sg11
I20
sg12
I86
sg13
I92
sg14
I00
sg15
F0.05
sg16
I00
sg17
I00
sg18
F0.2
sg19
I1
sg20
I31
sg21
g22
sasI248
(lp517
I00
a(dp518
g3
I94
sg4
I4
sg5
I01
sg6
I149
sg7
F0.0
sg8
I7
sg9
I32
sg10
I4
sg11
I20
sg12
I20
sg13
I62
sg14
I00
sg15
F0.05
sg16
I00
sg17
I01
sg18
F0.3
sg19
I1
sg20
I46
sg21
g22
sasI249
(lp519
I00
a(dp520
g3
I82
sg4
I4
sg5
I01
sg6
I483
sg7
F0.2
sg8
I7
sg9
I32
sg10
I4
sg11
I20
sg12
I60
sg13
I69
sg14
I00
sg15
F0.05
sg16
I01
sg17
I00
sg18
F0.0
sg19
I1
sg20
I17
sg21
g22
sasI250
(lp521
I00
a(dp522
g3
I18
sg4
I4
sg5
I01
sg6
I434
sg7
F0.0
sg8
I7
sg9
I64
sg10
I4
sg11
I20
sg12
I66
sg13
I69
sg14
I00
sg15
F0.05
sg16
I00
sg17
I01
sg18
F0.1
sg19
I1
sg20
I36
sg21
g22
sasI251
(lp523
I00
a(dp524
g3
I30
sg4
I4
sg5
I01
sg6
I217
sg7
F0.0
sg8
I7
sg9
I128
sg10
I4
sg11
I20
sg12
I48
sg13
I11
sg14
I00
sg15
F0.05
sg16
I01
sg17
I00
sg18
F0.5
sg19
I1
sg20
I27
sg21
g22
sasI252
(lp525
I00
a(dp526
g3
I69
sg4
I4
sg5
I01
sg6
I127
sg7
F0.1
sg8
I7
sg9
I128
sg10
I4
sg11
I20
sg12
I11
sg13
I10
sg14
I01
sg15
F0.05
sg16
I01
sg17
I01
sg18
F0.1
sg19
I1
sg20
I43
sg21
g22
sasI253
(lp527
I00
a(dp528
g3
I85
sg4
I4
sg5
I01
sg6
I256
sg7
F0.0
sg8
I7
sg9
I32
sg10
I4
sg11
I20
sg12
I20
sg13
I29
sg14
I01
sg15
F0.05
sg16
I00
sg17
I00
sg18
F0.2
sg19
I1
sg20
I18
sg21
g22
sasI254
(lp529
I00
a(dp530
g3
I30
sg4
I4
sg5
I01
sg6
I381
sg7
F0.4
sg8
I7
sg9
I128
sg10
I4
sg11
I20
sg12
I69
sg13
I96
sg14
I00
sg15
F0.05
sg16
I01
sg17
I01
sg18
F0.3
sg19
I1
sg20
I42
sg21
g22
sasI255
(lp531
I00
a(dp532
g3
I81
sg4
I4
sg5
I01
sg6
I368
sg7
F0.2
sg8
I7
sg9
I64
sg10
I4
sg11
I20
sg12
I41
sg13
I33
sg14
I00
sg15
F0.05
sg16
I00
sg17
I01
sg18
F0.4
sg19
I1
sg20
I36
sg21
g22
sasI256
(lp533
I00
a(dp534
g3
I76
sg4
I4
sg5
I01
sg6
I415
sg7
F0.2
sg8
I7
sg9
I128
sg10
I4
sg11
I20
sg12
I37
sg13
I9
sg14
I00
sg15
F0.05
sg16
I00
sg17
I01
sg18
F0.4
sg19
I1
sg20
I49
sg21
g22
sasI257
(lp535
I00
a(dp536
g3
I76
sg4
I4
sg5
I01
sg6
I335
sg7
F0.3
sg8
I7
sg9
I16
sg10
I4
sg11
I20
sg12
I82
sg13
I52
sg14
I01
sg15
F0.05
sg16
I00
sg17
I01
sg18
F0.2
sg19
I1
sg20
I23
sg21
g22
sasI258
(lp537
I00
a(dp538
g3
I80
sg4
I4
sg5
I01
sg6
I367
sg7
F0.1
sg8
I7
sg9
I16
sg10
I4
sg11
I20
sg12
I71
sg13
I93
sg14
I01
sg15
F0.05
sg16
I00
sg17
I00
sg18
F0.1
sg19
I1
sg20
I47
sg21
g22
sasI259
(lp539
I00
a(dp540
g3
I32
sg4
I4
sg5
I01
sg6
I150
sg7
F0.5
sg8
I7
sg9
I64
sg10
I4
sg11
I20
sg12
I70
sg13
I46
sg14
I01
sg15
F0.05
sg16
I01
sg17
I01
sg18
F0.0
sg19
I1
sg20
I49
sg21
g22
sasI260
(lp541
I00
a(dp542
g3
I11
sg4
I4
sg5
I01
sg6
I237
sg7
F0.5
sg8
I7
sg9
I128
sg10
I4
sg11
I20
sg12
I92
sg13
I31
sg14
I00
sg15
F0.05
sg16
I01
sg17
I01
sg18
F0.3
sg19
I1
sg20
I33
sg21
g22
sasI261
(lp543
I00
a(dp544
g3
I31
sg4
I4
sg5
I01
sg6
I455
sg7
F0.3
sg8
I7
sg9
I64
sg10
I4
sg11
I20
sg12
I7
sg13
I22
sg14
I01
sg15
F0.05
sg16
I00
sg17
I01
sg18
F0.2
sg19
I1
sg20
I11
sg21
g22
sasI262
(lp545
I00
a(dp546
g3
I45
sg4
I4
sg5
I01
sg6
I88
sg7
F0.2
sg8
I7
sg9
I32
sg10
I4
sg11
I20
sg12
I92
sg13
I86
sg14
I01
sg15
F0.05
sg16
I01
sg17
I01
sg18
F0.2
sg19
I1
sg20
I46
sg21
g22
sasI263
(lp547
I00
a(dp548
g3
I29
sg4
I4
sg5
I01
sg6
I375
sg7
F0.2
sg8
I7
sg9
I128
sg10
I4
sg11
I20
sg12
I42
sg13
I77
sg14
I01
sg15
F0.05
sg16
I01
sg17
I01
sg18
F0.2
sg19
I1
sg20
I42
sg21
g22
sasI264
(lp549
I00
a(dp550
g3
I64
sg4
I4
sg5
I01
sg6
I334
sg7
F0.1
sg8
I7
sg9
I32
sg10
I4
sg11
I20
sg12
I47
sg13
I75
sg14
I01
sg15
F0.05
sg16
I01
sg17
I01
sg18
F0.4
sg19
I1
sg20
I44
sg21
g22
sasI265
(lp551
I00
a(dp552
g3
I72
sg4
I4
sg5
I01
sg6
I203
sg7
F0.4
sg8
I7
sg9
I32
sg10
I4
sg11
I20
sg12
I7
sg13
I16
sg14
I00
sg15
F0.05
sg16
I01
sg17
I01
sg18
F0.2
sg19
I1
sg20
I43
sg21
g22
sasI266
(lp553
I00
a(dp554
g3
I41
sg4
I4
sg5
I01
sg6
I307
sg7
F0.2
sg8
I7
sg9
I32
sg10
I4
sg11
I20
sg12
I29
sg13
I26
sg14
I01
sg15
F0.05
sg16
I00
sg17
I01
sg18
F0.3
sg19
I1
sg20
I9
sg21
g22
sasI267
(lp555
I00
a(dp556
g3
I69
sg4
I4
sg5
I01
sg6
I419
sg7
F0.4
sg8
I7
sg9
I128
sg10
I4
sg11
I20
sg12
I44
sg13
I45
sg14
I01
sg15
F0.05
sg16
I00
sg17
I01
sg18
F0.4
sg19
I1
sg20
I33
sg21
g22
sasI268
(lp557
I00
a(dp558
g3
I64
sg4
I4
sg5
I01
sg6
I248
sg7
F0.4
sg8
I7
sg9
I128
sg10
I4
sg11
I20
sg12
I21
sg13
I76
sg14
I00
sg15
F0.05
sg16
I01
sg17
I01
sg18
F0.2
sg19
I1
sg20
I36
sg21
g22
sasI269
(lp559
I00
a(dp560
g3
I57
sg4
I4
sg5
I01
sg6
I64
sg7
F0.4
sg8
I7
sg9
I32
sg10
I4
sg11
I20
sg12
I13
sg13
I56
sg14
I00
sg15
F0.05
sg16
I00
sg17
I01
sg18
F0.1
sg19
I1
sg20
I21
sg21
g22
sasI270
(lp561
I00
a(dp562
g3
I71
sg4
I4
sg5
I01
sg6
I65
sg7
F0.2
sg8
I7
sg9
I128
sg10
I4
sg11
I20
sg12
I48
sg13
I48
sg14
I01
sg15
F0.05
sg16
I01
sg17
I01
sg18
F0.3
sg19
I1
sg20
I12
sg21
g22
sasI271
(lp563
I00
a(dp564
g3
I85
sg4
I4
sg5
I01
sg6
I180
sg7
F0.0
sg8
I7
sg9
I64
sg10
I4
sg11
I20
sg12
I37
sg13
I68
sg14
I01
sg15
F0.05
sg16
I01
sg17
I01
sg18
F0.4
sg19
I1
sg20
I22
sg21
g22
sasI272
(lp565
I00
a(dp566
g3
I64
sg4
I4
sg5
I01
sg6
I424
sg7
F0.1
sg8
I7
sg9
I16
sg10
I4
sg11
I20
sg12
I40
sg13
I88
sg14
I01
sg15
F0.05
sg16
I01
sg17
I00
sg18
F0.0
sg19
I1
sg20
I42
sg21
g22
sasI273
(lp567
I00
a(dp568
g3
I92
sg4
I4
sg5
I01
sg6
I151
sg7
F0.1
sg8
I7
sg9
I16
sg10
I4
sg11
I20
sg12
I99
sg13
I56
sg14
I00
sg15
F0.05
sg16
I01
sg17
I01
sg18
F0.1
sg19
I1
sg20
I6
sg21
g22
sasI274
(lp569
I00
a(dp570
g3
I59
sg4
I4
sg5
I01
sg6
I263
sg7
F0.1
sg8
I7
sg9
I16
sg10
I4
sg11
I20
sg12
I69
sg13
I19
sg14
I01
sg15
F0.05
sg16
I01
sg17
I00
sg18
F0.0
sg19
I1
sg20
I38
sg21
g22
sasI275
(lp571
I00
a(dp572
g3
I48
sg4
I4
sg5
I01
sg6
I409
sg7
F0.2
sg8
I7
sg9
I16
sg10
I4
sg11
I20
sg12
I40
sg13
I68
sg14
I01
sg15
F0.05
sg16
I01
sg17
I01
sg18
F0.2
sg19
I1
sg20
I39
sg21
g22
sasI276
(lp573
I00
a(dp574
g3
I91
sg4
I4
sg5
I01
sg6
I347
sg7
F0.5
sg8
I7
sg9
I32
sg10
I4
sg11
I20
sg12
I72
sg13
I74
sg14
I01
sg15
F0.05
sg16
I01
sg17
I01
sg18
F0.1
sg19
I1
sg20
I41
sg21
g22
sasI277
(lp575
I00
a(dp576
g3
I55
sg4
I4
sg5
I01
sg6
I313
sg7
F0.5
sg8
I7
sg9
I128
sg10
I4
sg11
I20
sg12
I27
sg13
I47
sg14
I00
sg15
F0.05
sg16
I01
sg17
I01
sg18
F0.4
sg19
I1
sg20
I5
sg21
g22
sasI278
(lp577
I00
a(dp578
g3
I33
sg4
I4
sg5
I01
sg6
I297
sg7
F0.5
sg8
I7
sg9
I32
sg10
I4
sg11
I20
sg12
I55
sg13
I64
sg14
I01
sg15
F0.05
sg16
I01
sg17
I01
sg18
F0.2
sg19
I1
sg20
I36
sg21
g22
sasI279
(lp579
I00
a(dp580
g3
I17
sg4
I4
sg5
I01
sg6
I227
sg7
F0.5
sg8
I7
sg9
I16
sg10
I4
sg11
I20
sg12
I42
sg13
I75
sg14
I01
sg15
F0.05
sg16
I01
sg17
I01
sg18
F0.4
sg19
I1
sg20
I46
sg21
g22
sasI280
(lp581
I00
a(dp582
g3
I97
sg4
I4
sg5
I01
sg6
I104
sg7
F0.1
sg8
I7
sg9
I32
sg10
I4
sg11
I20
sg12
I19
sg13
I26
sg14
I01
sg15
F0.05
sg16
I01
sg17
I01
sg18
F0.2
sg19
I1
sg20
I15
sg21
g22
sasI281
(lp583
I00
a(dp584
g3
I41
sg4
I4
sg5
I01
sg6
I475
sg7
F0.5
sg8
I7
sg9
I128
sg10
I4
sg11
I20
sg12
I33
sg13
I93
sg14
I01
sg15
F0.05
sg16
I01
sg17
I01
sg18
F0.2
sg19
I1
sg20
I32
sg21
g22
sasI282
(lp585
I00
a(dp586
g3
I21
sg4
I4
sg5
I01
sg6
I73
sg7
F0.4
sg8
I7
sg9
I16
sg10
I4
sg11
I20
sg12
I32
sg13
I51
sg14
I00
sg15
F0.05
sg16
I01
sg17
I01
sg18
F0.5
sg19
I1
sg20
I12
sg21
g22
sasI283
(lp587
I00
a(dp588
g3
I46
sg4
I4
sg5
I01
sg6
I83
sg7
F0.3
sg8
I7
sg9
I16
sg10
I4
sg11
I20
sg12
I92
sg13
I24
sg14
I01
sg15
F0.05
sg16
I01
sg17
I01
sg18
F0.4
sg19
I1
sg20
I42
sg21
g22
sasI284
(lp589
I00
a(dp590
g3
I10
sg4
I4
sg5
I01
sg6
I412
sg7
F0.1
sg8
I7
sg9
I128
sg10
I4
sg11
I20
sg12
I52
sg13
I97
sg14
I00
sg15
F0.05
sg16
I01
sg17
I00
sg18
F0.2
sg19
I1
sg20
I32
sg21
g22
sasI285
(lp591
I00
a(dp592
g3
I77
sg4
I4
sg5
I01
sg6
I225
sg7
F0.2
sg8
I7
sg9
I16
sg10
I4
sg11
I20
sg12
I35
sg13
I46
sg14
I00
sg15
F0.05
sg16
I01
sg17
I00
sg18
F0.1
sg19
I1
sg20
I24
sg21
g22
sasI286
(lp593
I00
a(dp594
g3
I45
sg4
I4
sg5
I01
sg6
I433
sg7
F0.1
sg8
I7
sg9
I32
sg10
I4
sg11
I20
sg12
I27
sg13
I12
sg14
I01
sg15
F0.05
sg16
I01
sg17
I01
sg18
F0.4
sg19
I1
sg20
I26
sg21
g22
sasI287
(lp595
I00
a(dp596
g3
I33
sg4
I4
sg5
I01
sg6
I113
sg7
F0.3
sg8
I7
sg9
I32
sg10
I4
sg11
I20
sg12
I21
sg13
I62
sg14
I01
sg15
F0.05
sg16
I01
sg17
I00
sg18
F0.5
sg19
I1
sg20
I38
sg21
g22
sasI288
(lp597
I00
a(dp598
g3
I31
sg4
I4
sg5
I01
sg6
I172
sg7
F0.3
sg8
I7
sg9
I128
sg10
I4
sg11
I20
sg12
I36
sg13
I66
sg14
I00
sg15
F0.05
sg16
I01
sg17
I00
sg18
F0.0
sg19
I1
sg20
I48
sg21
g22
sasI289
(lp599
I00
a(dp600
g3
I15
sg4
I4
sg5
I01
sg6
I494
sg7
F0.3
sg8
I7
sg9
I16
sg10
I4
sg11
I20
sg12
I52
sg13
I81
sg14
I01
sg15
F0.05
sg16
I01
sg17
I01
sg18
F0.1
sg19
I1
sg20
I42
sg21
g22
sasI290
(lp601
I00
a(dp602
g3
I24
sg4
I4
sg5
I01
sg6
I484
sg7
F0.3
sg8
I7
sg9
I16
sg10
I4
sg11
I20
sg12
I96
sg13
I85
sg14
I01
sg15
F0.05
sg16
I00
sg17
I00
sg18
F0.3
sg19
I1
sg20
I7
sg21
g22
sasI291
(lp603
I00
a(dp604
g3
I28
sg4
I4
sg5
I01
sg6
I489
sg7
F0.2
sg8
I7
sg9
I32
sg10
I4
sg11
I20
sg12
I10
sg13
I8
sg14
I01
sg15
F0.05
sg16
I01
sg17
I00
sg18
F0.2
sg19
I1
sg20
I35
sg21
g22
sasI292
(lp605
I00
a(dp606
g3
I69
sg4
I4
sg5
I01
sg6
I407
sg7
F0.4
sg8
I7
sg9
I128
sg10
I4
sg11
I20
sg12
I87
sg13
I23
sg14
I01
sg15
F0.05
sg16
I01
sg17
I00
sg18
F0.1
sg19
I1
sg20
I18
sg21
g22
sasI293
(lp607
I00
a(dp608
g3
I74
sg4
I4
sg5
I01
sg6
I65
sg7
F0.2
sg8
I7
sg9
I64
sg10
I4
sg11
I20
sg12
I97
sg13
I16
sg14
I01
sg15
F0.05
sg16
I00
sg17
I01
sg18
F0.1
sg19
I1
sg20
I45
sg21
g22
sasI294
(lp609
I00
a(dp610
g3
I46
sg4
I4
sg5
I01
sg6
I53
sg7
F0.4
sg8
I7
sg9
I128
sg10
I4
sg11
I20
sg12
I32
sg13
I8
sg14
I00
sg15
F0.05
sg16
I01
sg17
I01
sg18
F0.2
sg19
I1
sg20
I34
sg21
g22
sasI295
(lp611
I00
a(dp612
g3
I97
sg4
I4
sg5
I01
sg6
I435
sg7
F0.2
sg8
I7
sg9
I64
sg10
I4
sg11
I20
sg12
I25
sg13
I42
sg14
I01
sg15
F0.05
sg16
I00
sg17
I01
sg18
F0.3
sg19
I1
sg20
I19
sg21
g22
sasI296
(lp613
I00
a(dp614
g3
I45
sg4
I4
sg5
I01
sg6
I263
sg7
F0.5
sg8
I7
sg9
I64
sg10
I4
sg11
I20
sg12
I52
sg13
I68
sg14
I00
sg15
F0.05
sg16
I01
sg17
I00
sg18
F0.3
sg19
I1
sg20
I47
sg21
g22
sasI297
(lp615
I00
a(dp616
g3
I11
sg4
I4
sg5
I01
sg6
I121
sg7
F0.1
sg8
I7
sg9
I32
sg10
I4
sg11
I20
sg12
I53
sg13
I85
sg14
I01
sg15
F0.05
sg16
I01
sg17
I00
sg18
F0.4
sg19
I1
sg20
I43
sg21
g22
sasI298
(lp617
I00
a(dp618
g3
I93
sg4
I4
sg5
I01
sg6
I264
sg7
F0.3
sg8
I7
sg9
I64
sg10
I4
sg11
I20
sg12
I98
sg13
I54
sg14
I01
sg15
F0.05
sg16
I01
sg17
I01
sg18
F0.5
sg19
I1
sg20
I47
sg21
g22
sasI299
(lp619
I00
a(dp620
g3
I40
sg4
I4
sg5
I01
sg6
I361
sg7
F0.2
sg8
I7
sg9
I32
sg10
I4
sg11
I20
sg12
I22
sg13
I30
sg14
I00
sg15
F0.05
sg16
I01
sg17
I01
sg18
F0.3
sg19
I1
sg20
I12
sg21
g22
sasI300
(lp621
I00
a(dp622
g3
I44
sg4
I4
sg5
I01
sg6
I130
sg7
F0.4
sg8
I7
sg9
I32
sg10
I4
sg11
I20
sg12
I37
sg13
I78
sg14
I01
sg15
F0.05
sg16
I00
sg17
I01
sg18
F0.1
sg19
I1
sg20
I45
sg21
g22
sasI301
(lp623
I00
a(dp624
g3
I17
sg4
I4
sg5
I01
sg6
I131
sg7
F0.1
sg8
I7
sg9
I64
sg10
I4
sg11
I20
sg12
I91
sg13
I99
sg14
I01
sg15
F0.05
sg16
I01
sg17
I01
sg18
F0.4
sg19
I1
sg20
I14
sg21
g22
sasI302
(lp625
I00
a(dp626
g3
I15
sg4
I4
sg5
I01
sg6
I353
sg7
F0.1
sg8
I7
sg9
I64
sg10
I4
sg11
I20
sg12
I22
sg13
I95
sg14
I01
sg15
F0.05
sg16
I01
sg17
I01
sg18
F0.5
sg19
I1
sg20
I47
sg21
g22
sasI303
(lp627
I00
a(dp628
g3
I63
sg4
I4
sg5
I01
sg6
I408
sg7
F0.1
sg8
I7
sg9
I32
sg10
I4
sg11
I20
sg12
I12
sg13
I85
sg14
I00
sg15
F0.05
sg16
I01
sg17
I01
sg18
F0.1
sg19
I1
sg20
I41
sg21
g22
sasI304
(lp629
I00
a(dp630
g3
I75
sg4
I4
sg5
I01
sg6
I461
sg7
F0.0
sg8
I7
sg9
I128
sg10
I4
sg11
I20
sg12
I82
sg13
I46
sg14
I01
sg15
F0.05
sg16
I01
sg17
I01
sg18
F0.2
sg19
I1
sg20
I41
sg21
g22
sasI305
(lp631
I00
a(dp632
g3
I24
sg4
I4
sg5
I01
sg6
I300
sg7
F0.3
sg8
I7
sg9
I32
sg10
I4
sg11
I20
sg12
I85
sg13
I13
sg14
I01
sg15
F0.05
sg16
I01
sg17
I01
sg18
F0.4
sg19
I1
sg20
I16
sg21
g22
sasI306
(lp633
I00
a(dp634
g3
I53
sg4
I4
sg5
I01
sg6
I445
sg7
F0.4
sg8
I7
sg9
I32
sg10
I4
sg11
I20
sg12
I74
sg13
I27
sg14
I01
sg15
F0.05
sg16
I00
sg17
I00
sg18
F0.1
sg19
I1
sg20
I9
sg21
g22
sasI307
(lp635
I00
a(dp636
g3
I83
sg4
I4
sg5
I01
sg6
I379
sg7
F0.2
sg8
I7
sg9
I64
sg10
I4
sg11
I20
sg12
I94
sg13
I15
sg14
I01
sg15
F0.05
sg16
I01
sg17
I01
sg18
F0.1
sg19
I1
sg20
I18
sg21
g22
sasI308
(lp637
I00
a(dp638
g3
I88
sg4
I4
sg5
I01
sg6
I131
sg7
F0.4
sg8
I7
sg9
I32
sg10
I4
sg11
I20
sg12
I94
sg13
I40
sg14
I01
sg15
F0.05
sg16
I01
sg17
I01
sg18
F0.2
sg19
I1
sg20
I19
sg21
g22
sasI309
(lp639
I00
a(dp640
g3
I64
sg4
I4
sg5
I01
sg6
I234
sg7
F0.0
sg8
I7
sg9
I64
sg10
I4
sg11
I20
sg12
I36
sg13
I23
sg14
I01
sg15
F0.05
sg16
I01
sg17
I00
sg18
F0.1
sg19
I1
sg20
I40
sg21
g22
sasI310
(lp641
I00
a(dp642
g3
I66
sg4
I4
sg5
I01
sg6
I103
sg7
F0.0
sg8
I7
sg9
I16
sg10
I4
sg11
I20
sg12
I93
sg13
I50
sg14
I01
sg15
F0.05
sg16
I01
sg17
I00
sg18
F0.5
sg19
I1
sg20
I29
sg21
g22
sasI311
(lp643
I00
a(dp644
g3
I64
sg4
I4
sg5
I01
sg6
I418
sg7
F0.1
sg8
I7
sg9
I64
sg10
I4
sg11
I20
sg12
I84
sg13
I34
sg14
I01
sg15
F0.05
sg16
I01
sg17
I01
sg18
F0.1
sg19
I1
sg20
I35
sg21
g22
sasI312
(lp645
I00
a(dp646
g3
I84
sg4
I4
sg5
I01
sg6
I407
sg7
F0.4
sg8
I7
sg9
I32
sg10
I4
sg11
I20
sg12
I9
sg13
I53
sg14
I01
sg15
F0.05
sg16
I01
sg17
I01
sg18
F0.3
sg19
I1
sg20
I27
sg21
g22
sasI313
(lp647
I00
a(dp648
g3
I63
sg4
I4
sg5
I01
sg6
I417
sg7
F0.2
sg8
I7
sg9
I128
sg10
I4
sg11
I20
sg12
I93
sg13
I49
sg14
I00
sg15
F0.05
sg16
I01
sg17
I00
sg18
F0.1
sg19
I1
sg20
I32
sg21
g22
sasI314
(lp649
I00
a(dp650
g3
I26
sg4
I4
sg5
I01
sg6
I273
sg7
F0.2
sg8
I7
sg9
I128
sg10
I4
sg11
I20
sg12
I5
sg13
I67
sg14
I01
sg15
F0.05
sg16
I01
sg17
I00
sg18
F0.2
sg19
I1
sg20
I15
sg21
g22
sasI315
(lp651
I00
a(dp652
g3
I19
sg4
I4
sg5
I01
sg6
I489
sg7
F0.2
sg8
I7
sg9
I32
sg10
I4
sg11
I20
sg12
I42
sg13
I83
sg14
I00
sg15
F0.05
sg16
I00
sg17
I00
sg18
F0.4
sg19
I1
sg20
I27
sg21
g22
sasI316
(lp653
I00
a(dp654
g3
I47
sg4
I4
sg5
I01
sg6
I125
sg7
F0.1
sg8
I7
sg9
I16
sg10
I4
sg11
I20
sg12
I45
sg13
I91
sg14
I01
sg15
F0.05
sg16
I01
sg17
I01
sg18
F0.3
sg19
I1
sg20
I48
sg21
g22
sasI317
(lp655
I00
a(dp656
g3
I90
sg4
I4
sg5
I01
sg6
I469
sg7
F0.0
sg8
I7
sg9
I16
sg10
I4
sg11
I20
sg12
I40
sg13
I71
sg14
I01
sg15
F0.05
sg16
I01
sg17
I00
sg18
F0.3
sg19
I1
sg20
I11
sg21
g22
sasI318
(lp657
I00
a(dp658
g3
I35
sg4
I4
sg5
I01
sg6
I117
sg7
F0.3
sg8
I7
sg9
I16
sg10
I4
sg11
I20
sg12
I37
sg13
I32
sg14
I01
sg15
F0.05
sg16
I01
sg17
I01
sg18
F0.1
sg19
I1
sg20
I14
sg21
g22
sasI319
(lp659
I00
a(dp660
g3
I77
sg4
I4
sg5
I01
sg6
I187
sg7
F0.3
sg8
I7
sg9
I128
sg10
I4
sg11
I20
sg12
I86
sg13
I55
sg14
I01
sg15
F0.05
sg16
I01
sg17
I00
sg18
F0.4
sg19
I1
sg20
I44
sg21
g22
sasI320
(lp661
I00
a(dp662
g3
I80
sg4
I4
sg5
I01
sg6
I442
sg7
F0.1
sg8
I7
sg9
I128
sg10
I4
sg11
I20
sg12
I31
sg13
I40
sg14
I00
sg15
F0.05
sg16
I01
sg17
I01
sg18
F0.1
sg19
I1
sg20
I40
sg21
g22
sasI321
(lp663
I00
a(dp664
g3
I52
sg4
I4
sg5
I01
sg6
I368
sg7
F0.2
sg8
I7
sg9
I16
sg10
I4
sg11
I20
sg12
I13
sg13
I53
sg14
I01
sg15
F0.05
sg16
I01
sg17
I01
sg18
F0.1
sg19
I1
sg20
I26
sg21
g22
sasI322
(lp665
I00
a(dp666
g3
I91
sg4
I4
sg5
I01
sg6
I341
sg7
F0.3
sg8
I7
sg9
I64
sg10
I4
sg11
I20
sg12
I78
sg13
I67
sg14
I01
sg15
F0.05
sg16
I00
sg17
I01
sg18
F0.0
sg19
I1
sg20
I34
sg21
g22
sasI323
(lp667
I00
a(dp668
g3
I77
sg4
I4
sg5
I01
sg6
I70
sg7
F0.2
sg8
I7
sg9
I16
sg10
I4
sg11
I20
sg12
I65
sg13
I97
sg14
I01
sg15
F0.05
sg16
I00
sg17
I00
sg18
F0.3
sg19
I1
sg20
I18
sg21
g22
sasI324
(lp669
I00
a(dp670
g3
I86
sg4
I4
sg5
I01
sg6
I426
sg7
F0.3
sg8
I7
sg9
I128
sg10
I4
sg11
I20
sg12
I93
sg13
I79
sg14
I01
sg15
F0.05
sg16
I00
sg17
I01
sg18
F0.5
sg19
I1
sg20
I35
sg21
g22
sasI325
(lp671
I00
a(dp672
g3
I85
sg4
I4
sg5
I01
sg6
I484
sg7
F0.3
sg8
I7
sg9
I64
sg10
I4
sg11
I20
sg12
I73
sg13
I6
sg14
I01
sg15
F0.05
sg16
I00
sg17
I00
sg18
F0.2
sg19
I1
sg20
I47
sg21
g22
sasI326
(lp673
I00
a(dp674
g3
I42
sg4
I4
sg5
I01
sg6
I120
sg7
F0.4
sg8
I7
sg9
I64
sg10
I4
sg11
I20
sg12
I37
sg13
I46
sg14
I01
sg15
F0.05
sg16
I00
sg17
I01
sg18
F0.3
sg19
I1
sg20
I8
sg21
g22
sasI327
(lp675
I00
a(dp676
g3
I48
sg4
I4
sg5
I01
sg6
I54
sg7
F0.2
sg8
I7
sg9
I128
sg10
I4
sg11
I20
sg12
I12
sg13
I86
sg14
I00
sg15
F0.05
sg16
I01
sg17
I01
sg18
F0.1
sg19
I1
sg20
I42
sg21
g22
sasI328
(lp677
I00
a(dp678
g3
I92
sg4
I4
sg5
I01
sg6
I476
sg7
F0.0
sg8
I7
sg9
I128
sg10
I4
sg11
I20
sg12
I69
sg13
I42
sg14
I00
sg15
F0.05
sg16
I01
sg17
I00
sg18
F0.3
sg19
I1
sg20
I11
sg21
g22
sasI329
(lp679
I00
a(dp680
g3
I50
sg4
I4
sg5
I01
sg6
I232
sg7
F0.3
sg8
I7
sg9
I32
sg10
I4
sg11
I20
sg12
I54
sg13
I38
sg14
I01
sg15
F0.05
sg16
I01
sg17
I01
sg18
F0.0
sg19
I1
sg20
I11
sg21
g22
sasI330
(lp681
I00
a(dp682
g3
I28
sg4
I4
sg5
I01
sg6
I115
sg7
F0.3
sg8
I7
sg9
I64
sg10
I4
sg11
I20
sg12
I17
sg13
I44
sg14
I01
sg15
F0.05
sg16
I00
sg17
I01
sg18
F0.1
sg19
I1
sg20
I25
sg21
g22
sasI331
(lp683
I00
a(dp684
g3
I65
sg4
I4
sg5
I01
sg6
I435
sg7
F0.2
sg8
I7
sg9
I128
sg10
I4
sg11
I20
sg12
I85
sg13
I58
sg14
I00
sg15
F0.05
sg16
I01
sg17
I01
sg18
F0.5
sg19
I1
sg20
I19
sg21
g22
sasI332
(lp685
I00
a(dp686
g3
I10
sg4
I4
sg5
I01
sg6
I256
sg7
F0.2
sg8
I7
sg9
I64
sg10
I4
sg11
I20
sg12
I79
sg13
I44
sg14
I00
sg15
F0.05
sg16
I00
sg17
I01
sg18
F0.3
sg19
I1
sg20
I28
sg21
g22
sasI333
(lp687
I00
a(dp688
g3
I68
sg4
I4
sg5
I01
sg6
I486
sg7
F0.3
sg8
I7
sg9
I16
sg10
I4
sg11
I20
sg12
I66
sg13
I9
sg14
I01
sg15
F0.05
sg16
I01
sg17
I00
sg18
F0.1
sg19
I1
sg20
I31
sg21
g22
sasI334
(lp689
I00
a(dp690
g3
I59
sg4
I4
sg5
I01
sg6
I275
sg7
F0.2
sg8
I7
sg9
I64
sg10
I4
sg11
I20
sg12
I43
sg13
I14
sg14
I00
sg15
F0.05
sg16
I01
sg17
I00
sg18
F0.2
sg19
I1
sg20
I48
sg21
g22
sasI335
(lp691
I00
a(dp692
g3
I96
sg4
I4
sg5
I01
sg6
I345
sg7
F0.4
sg8
I7
sg9
I32
sg10
I4
sg11
I20
sg12
I92
sg13
I79
sg14
I01
sg15
F0.05
sg16
I01
sg17
I01
sg18
F0.4
sg19
I1
sg20
I6
sg21
g22
sasI336
(lp693
I00
a(dp694
g3
I26
sg4
I4
sg5
I01
sg6
I137
sg7
F0.1
sg8
I7
sg9
I32
sg10
I4
sg11
I20
sg12
I88
sg13
I27
sg14
I01
sg15
F0.05
sg16
I00
sg17
I00
sg18
F0.1
sg19
I1
sg20
I46
sg21
g22
sasI337
(lp695
I00
a(dp696
g3
I23
sg4
I4
sg5
I01
sg6
I102
sg7
F0.5
sg8
I7
sg9
I16
sg10
I4
sg11
I20
sg12
I94
sg13
I84
sg14
I01
sg15
F0.05
sg16
I01
sg17
I01
sg18
F0.4
sg19
I1
sg20
I36
sg21
g22
sasI338
(lp697
I00
a(dp698
g3
I29
sg4
I4
sg5
I01
sg6
I55
sg7
F0.3
sg8
I7
sg9
I16
sg10
I4
sg11
I20
sg12
I73
sg13
I29
sg14
I01
sg15
F0.05
sg16
I01
sg17
I01
sg18
F0.2
sg19
I1
sg20
I48
sg21
g22
sasI339
(lp699
I00
a(dp700
g3
I82
sg4
I4
sg5
I01
sg6
I322
sg7
F0.4
sg8
I7
sg9
I32
sg10
I4
sg11
I20
sg12
I25
sg13
I19
sg14
I00
sg15
F0.05
sg16
I01
sg17
I00
sg18
F0.5
sg19
I1
sg20
I17
sg21
g22
sasI340
(lp701
I00
a(dp702
g3
I38
sg4
I4
sg5
I01
sg6
I490
sg7
F0.4
sg8
I7
sg9
I32
sg10
I4
sg11
I20
sg12
I40
sg13
I9
sg14
I01
sg15
F0.05
sg16
I01
sg17
I01
sg18
F0.0
sg19
I1
sg20
I48
sg21
g22
sasI341
(lp703
I00
a(dp704
g3
I14
sg4
I4
sg5
I01
sg6
I439
sg7
F0.0
sg8
I7
sg9
I16
sg10
I4
sg11
I20
sg12
I35
sg13
I29
sg14
I01
sg15
F0.05
sg16
I01
sg17
I01
sg18
F0.4
sg19
I1
sg20
I23
sg21
g22
sasI342
(lp705
I00
a(dp706
g3
I77
sg4
I4
sg5
I01
sg6
I262
sg7
F0.4
sg8
I7
sg9
I64
sg10
I4
sg11
I20
sg12
I23
sg13
I57
sg14
I00
sg15
F0.05
sg16
I01
sg17
I00
sg18
F0.3
sg19
I1
sg20
I49
sg21
g22
sasI343
(lp707
I00
a(dp708
g3
I92
sg4
I4
sg5
I01
sg6
I76
sg7
F0.4
sg8
I7
sg9
I32
sg10
I4
sg11
I20
sg12
I97
sg13
I81
sg14
I01
sg15
F0.05
sg16
I01
sg17
I01
sg18
F0.1
sg19
I1
sg20
I17
sg21
g22
sasI344
(lp709
I00
a(dp710
g3
I64
sg4
I4
sg5
I01
sg6
I177
sg7
F0.2
sg8
I7
sg9
I128
sg10
I4
sg11
I20
sg12
I60
sg13
I33
sg14
I00
sg15
F0.05
sg16
I01
sg17
I01
sg18
F0.0
sg19
I1
sg20
I46
sg21
g22
sasI345
(lp711
I00
a(dp712
g3
I36
sg4
I4
sg5
I01
sg6
I122
sg7
F0.3
sg8
I7
sg9
I32
sg10
I4
sg11
I20
sg12
I98
sg13
I18
sg14
I01
sg15
F0.05
sg16
I01
sg17
I01
sg18
F0.4
sg19
I1
sg20
I10
sg21
g22
sasI346
(lp713
I00
a(dp714
g3
I47
sg4
I4
sg5
I01
sg6
I492
sg7
F0.4
sg8
I7
sg9
I32
sg10
I4
sg11
I20
sg12
I60
sg13
I21
sg14
I01
sg15
F0.05
sg16
I01
sg17
I01
sg18
F0.5
sg19
I1
sg20
I31
sg21
g22
sasI347
(lp715
I00
a(dp716
g3
I16
sg4
I4
sg5
I01
sg6
I191
sg7
F0.4
sg8
I7
sg9
I16
sg10
I4
sg11
I20
sg12
I70
sg13
I89
sg14
I01
sg15
F0.05
sg16
I00
sg17
I01
sg18
F0.0
sg19
I1
sg20
I17
sg21
g22
sasI348
(lp717
I00
a(dp718
g3
I94
sg4
I4
sg5
I01
sg6
I85
sg7
F0.3
sg8
I7
sg9
I16
sg10
I4
sg11
I20
sg12
I14
sg13
I66
sg14
I01
sg15
F0.05
sg16
I01
sg17
I01
sg18
F0.3
sg19
I1
sg20
I25
sg21
g22
sasI349
(lp719
I00
a(dp720
g3
I41
sg4
I4
sg5
I01
sg6
I152
sg7
F0.4
sg8
I7
sg9
I16
sg10
I4
sg11
I20
sg12
I67
sg13
I70
sg14
I01
sg15
F0.05
sg16
I01
sg17
I01
sg18
F0.2
sg19
I1
sg20
I34
sg21
g22
sasI350
(lp721
I00
a(dp722
g3
I45
sg4
I4
sg5
I01
sg6
I491
sg7
F0.1
sg8
I7
sg9
I32
sg10
I4
sg11
I20
sg12
I71
sg13
I90
sg14
I01
sg15
F0.05
sg16
I01
sg17
I01
sg18
F0.3
sg19
I1
sg20
I36
sg21
g22
sasI351
(lp723
I00
a(dp724
g3
I27
sg4
I4
sg5
I01
sg6
I329
sg7
F0.2
sg8
I7
sg9
I64
sg10
I4
sg11
I20
sg12
I20
sg13
I28
sg14
I01
sg15
F0.05
sg16
I01
sg17
I01
sg18
F0.1
sg19
I1
sg20
I19
sg21
g22
sasI352
(lp725
I00
a(dp726
g3
I81
sg4
I4
sg5
I01
sg6
I111
sg7
F0.3
sg8
I7
sg9
I64
sg10
I4
sg11
I20
sg12
I79
sg13
I42
sg14
I00
sg15
F0.05
sg16
I01
sg17
I00
sg18
F0.1
sg19
I1
sg20
I16
sg21
g22
sasI353
(lp727
I00
a(dp728
g3
I47
sg4
I4
sg5
I01
sg6
I326
sg7
F0.3
sg8
I7
sg9
I32
sg10
I4
sg11
I20
sg12
I29
sg13
I23
sg14
I01
sg15
F0.05
sg16
I01
sg17
I01
sg18
F0.0
sg19
I1
sg20
I27
sg21
g22
sasI354
(lp729
I00
a(dp730
g3
I72
sg4
I4
sg5
I01
sg6
I221
sg7
F0.4
sg8
I7
sg9
I64
sg10
I4
sg11
I20
sg12
I10
sg13
I55
sg14
I01
sg15
F0.05
sg16
I00
sg17
I01
sg18
F0.2
sg19
I1
sg20
I7
sg21
g22
sasI355
(lp731
I00
a(dp732
g3
I68
sg4
I4
sg5
I01
sg6
I273
sg7
F0.0
sg8
I7
sg9
I32
sg10
I4
sg11
I20
sg12
I40
sg13
I64
sg14
I00
sg15
F0.05
sg16
I01
sg17
I01
sg18
F0.1
sg19
I1
sg20
I44
sg21
g22
sasI356
(lp733
I00
a(dp734
g3
I93
sg4
I4
sg5
I01
sg6
I244
sg7
F0.1
sg8
I7
sg9
I16
sg10
I4
sg11
I20
sg12
I58
sg13
I97
sg14
I00
sg15
F0.05
sg16
I00
sg17
I01
sg18
F0.1
sg19
I1
sg20
I11
sg21
g22
sasI357
(lp735
I00
a(dp736
g3
I62
sg4
I4
sg5
I01
sg6
I192
sg7
F0.3
sg8
I7
sg9
I128
sg10
I4
sg11
I20
sg12
I55
sg13
I84
sg14
I00
sg15
F0.05
sg16
I01
sg17
I01
sg18
F0.3
sg19
I1
sg20
I12
sg21
g22
sasI358
(lp737
I00
a(dp738
g3
I48
sg4
I4
sg5
I01
sg6
I162
sg7
F0.4
sg8
I7
sg9
I128
sg10
I4
sg11
I20
sg12
I42
sg13
I13
sg14
I01
sg15
F0.05
sg16
I01
sg17
I01
sg18
F0.3
sg19
I1
sg20
I27
sg21
g22
sasI359
(lp739
I00
a(dp740
g3
I79
sg4
I4
sg5
I01
sg6
I314
sg7
F0.2
sg8
I7
sg9
I64
sg10
I4
sg11
I20
sg12
I92
sg13
I56
sg14
I00
sg15
F0.05
sg16
I01
sg17
I00
sg18
F0.0
sg19
I1
sg20
I31
sg21
g22
sasI360
(lp741
I00
a(dp742
g3
I61
sg4
I4
sg5
I01
sg6
I429
sg7
F0.2
sg8
I7
sg9
I64
sg10
I4
sg11
I20
sg12
I96
sg13
I8
sg14
I00
sg15
F0.05
sg16
I01
sg17
I00
sg18
F0.2
sg19
I1
sg20
I17
sg21
g22
sasI361
(lp743
I00
a(dp744
g3
I96
sg4
I4
sg5
I01
sg6
I166
sg7
F0.2
sg8
I7
sg9
I128
sg10
I4
sg11
I20
sg12
I84
sg13
I23
sg14
I00
sg15
F0.05
sg16
I01
sg17
I00
sg18
F0.4
sg19
I1
sg20
I39
sg21
g22
sasI362
(lp745
I00
a(dp746
g3
I55
sg4
I4
sg5
I01
sg6
I426
sg7
F0.2
sg8
I7
sg9
I128
sg10
I4
sg11
I20
sg12
I69
sg13
I26
sg14
I01
sg15
F0.05
sg16
I01
sg17
I00
sg18
F0.1
sg19
I1
sg20
I15
sg21
g22
sasI363
(lp747
I00
a(dp748
g3
I19
sg4
I4
sg5
I01
sg6
I196
sg7
F0.5
sg8
I7
sg9
I32
sg10
I4
sg11
I20
sg12
I45
sg13
I61
sg14
I01
sg15
F0.05
sg16
I00
sg17
I01
sg18
F0.0
sg19
I1
sg20
I10
sg21
g22
sasI364
(lp749
I00
a(dp750
g3
I72
sg4
I4
sg5
I01
sg6
I447
sg7
F0.3
sg8
I7
sg9
I64
sg10
I4
sg11
I20
sg12
I46
sg13
I36
sg14
I01
sg15
F0.05
sg16
I01
sg17
I01
sg18
F0.2
sg19
I1
sg20
I39
sg21
g22
sasI365
(lp751
I01
a(dp752
g3
I87
sg4
I4
sg5
I01
sg6
I433
sg7
F0.3
sg8
I7
sg9
I128
sg10
I4
sg11
I20
sg12
I83
sg13
I75
sg14
I01
sg15
F0.05
sg16
I00
sg17
I00
sg18
F0.4
sg19
I1
sg20
I18
sg21
g22
sasI366
(lp753
I00
a(dp754
g3
I83
sg4
I4
sg5
I01
sg6
I399
sg7
F0.4
sg8
I7
sg9
I32
sg10
I4
sg11
I20
sg12
I25
sg13
I90
sg14
I01
sg15
F0.05
sg16
I01
sg17
I01
sg18
F0.4
sg19
I1
sg20
I8
sg21
g22
sasI367
(lp755
I00
a(dp756
g3
I95
sg4
I4
sg5
I01
sg6
I92
sg7
F0.3
sg8
I7
sg9
I16
sg10
I4
sg11
I20
sg12
I54
sg13
I47
sg14
I01
sg15
F0.05
sg16
I00
sg17
I01
sg18
F0.4
sg19
I1
sg20
I17
sg21
g22
sasI368
(lp757
I01
a(dp758
g3
I90
sg4
I4
sg5
I01
sg6
I305
sg7
F0.2
sg8
I7
sg9
I16
sg10
I4
sg11
I20
sg12
I44
sg13
I71
sg14
I01
sg15
F0.05
sg16
I00
sg17
I01
sg18
F0.5
sg19
I1
sg20
I19
sg21
g22
sasI369
(lp759
I00
a(dp760
g3
I59
sg4
I4
sg5
I01
sg6
I428
sg7
F0.2
sg8
I7
sg9
I16
sg10
I4
sg11
I20
sg12
I56
sg13
I62
sg14
I00
sg15
F0.05
sg16
I01
sg17
I00
sg18
F0.3
sg19
I1
sg20
I12
sg21
g22
sasI370
(lp761
I00
a(dp762
g3
I65
sg4
I4
sg5
I01
sg6
I330
sg7
F0.2
sg8
I7
sg9
I128
sg10
I4
sg11
I20
sg12
I58
sg13
I47
sg14
I00
sg15
F0.05
sg16
I00
sg17
I01
sg18
F0.0
sg19
I1
sg20
I24
sg21
g22
sasI371
(lp763
I00
a(dp764
g3
I76
sg4
I4
sg5
I01
sg6
I174
sg7
F0.3
sg8
I7
sg9
I64
sg10
I4
sg11
I20
sg12
I7
sg13
I17
sg14
I01
sg15
F0.05
sg16
I01
sg17
I01
sg18
F0.0
sg19
I1
sg20
I17
sg21
g22
sasI372
(lp765
I00
a(dp766
g3
I76
sg4
I4
sg5
I01
sg6
I262
sg7
F0.0
sg8
I7
sg9
I128
sg10
I4
sg11
I20
sg12
I84
sg13
I96
sg14
I00
sg15
F0.05
sg16
I01
sg17
I01
sg18
F0.3
sg19
I1
sg20
I12
sg21
g22
sasI373
(lp767
I00
a(dp768
g3
I13
sg4
I4
sg5
I01
sg6
I190
sg7
F0.3
sg8
I7
sg9
I64
sg10
I4
sg11
I20
sg12
I27
sg13
I54
sg14
I01
sg15
F0.05
sg16
I01
sg17
I00
sg18
F0.0
sg19
I1
sg20
I9
sg21
g22
sasI374
(lp769
I00
a(dp770
g3
I45
sg4
I4
sg5
I01
sg6
I82
sg7
F0.1
sg8
I7
sg9
I16
sg10
I4
sg11
I20
sg12
I57
sg13
I54
sg14
I01
sg15
F0.05
sg16
I00
sg17
I00
sg18
F0.1
sg19
I1
sg20
I36
sg21
g22
sasI375
(lp771
I00
a(dp772
g3
I47
sg4
I4
sg5
I01
sg6
I190
sg7
F0.5
sg8
I7
sg9
I64
sg10
I4
sg11
I20
sg12
I99
sg13
I14
sg14
I00
sg15
F0.05
sg16
I01
sg17
I01
sg18
F0.0
sg19
I1
sg20
I8
sg21
g22
sasI376
(lp773
I00
a(dp774
g3
I46
sg4
I4
sg5
I01
sg6
I345
sg7
F0.2
sg8
I7
sg9
I16
sg10
I4
sg11
I20
sg12
I49
sg13
I28
sg14
I01
sg15
F0.05
sg16
I01
sg17
I01
sg18
F0.1
sg19
I1
sg20
I24
sg21
g22
sasI377
(lp775
I00
a(dp776
g3
I58
sg4
I4
sg5
I01
sg6
I127
sg7
F0.1
sg8
I7
sg9
I32
sg10
I4
sg11
I20
sg12
I8
sg13
I82
sg14
I01
sg15
F0.05
sg16
I01
sg17
I00
sg18
F0.0
sg19
I1
sg20
I46
sg21
g22
sasI378
(lp777
I00
a(dp778
g3
I12
sg4
I4
sg5
I01
sg6
I404
sg7
F0.2
sg8
I7
sg9
I16
sg10
I4
sg11
I20
sg12
I73
sg13
I58
sg14
I00
sg15
F0.05
sg16
I01
sg17
I01
sg18
F0.3
sg19
I1
sg20
I27
sg21
g22
sasI379
(lp779
I00
a(dp780
g3
I94
sg4
I4
sg5
I01
sg6
I406
sg7
F0.4
sg8
I7
sg9
I32
sg10
I4
sg11
I20
sg12
I17
sg13
I57
sg14
I01
sg15
F0.05
sg16
I00
sg17
I01
sg18
F0.1
sg19
I1
sg20
I19
sg21
g22
sasI380
(lp781
I00
a(dp782
g3
I22
sg4
I4
sg5
I01
sg6
I242
sg7
F0.2
sg8
I7
sg9
I16
sg10
I4
sg11
I20
sg12
I13
sg13
I37
sg14
I01
sg15
F0.05
sg16
I01
sg17
I01
sg18
F0.1
sg19
I1
sg20
I23
sg21
g22
sasI381
(lp783
I00
a(dp784
g3
I22
sg4
I4
sg5
I01
sg6
I187
sg7
F0.2
sg8
I7
sg9
I128
sg10
I4
sg11
I20
sg12
I90
sg13
I92
sg14
I01
sg15
F0.05
sg16
I01
sg17
I00
sg18
F0.4
sg19
I1
sg20
I38
sg21
g22
sasI382
(lp785
I00
a(dp786
g3
I78
sg4
I4
sg5
I01
sg6
I335
sg7
F0.4
sg8
I7
sg9
I32
sg10
I4
sg11
I20
sg12
I37
sg13
I90
sg14
I01
sg15
F0.05
sg16
I01
sg17
I00
sg18
F0.1
sg19
I1
sg20
I45
sg21
g22
sasI383
(lp787
I00
a(dp788
g3
I79
sg4
I4
sg5
I01
sg6
I212
sg7
F0.2
sg8
I7
sg9
I64
sg10
I4
sg11
I20
sg12
I79
sg13
I39
sg14
I01
sg15
F0.05
sg16
I00
sg17
I01
sg18
F0.4
sg19
I1
sg20
I6
sg21
g22
sasI384
(lp789
I00
a(dp790
g3
I69
sg4
I4
sg5
I01
sg6
I159
sg7
F0.1
sg8
I7
sg9
I128
sg10
I4
sg11
I20
sg12
I62
sg13
I75
sg14
I01
sg15
F0.05
sg16
I01
sg17
I01
sg18
F0.3
sg19
I1
sg20
I16
sg21
g22
sasI385
(lp791
I00
a(dp792
g3
I19
sg4
I4
sg5
I01
sg6
I338
sg7
F0.2
sg8
I7
sg9
I64
sg10
I4
sg11
I20
sg12
I61
sg13
I7
sg14
I00
sg15
F0.05
sg16
I01
sg17
I01
sg18
F0.4
sg19
I1
sg20
I44
sg21
g22
sasI386
(lp793
I00
a(dp794
g3
I44
sg4
I4
sg5
I01
sg6
I394
sg7
F0.2
sg8
I7
sg9
I128
sg10
I4
sg11
I20
sg12
I7
sg13
I63
sg14
I01
sg15
F0.05
sg16
I01
sg17
I01
sg18
F0.1
sg19
I1
sg20
I47
sg21
g22
sasI387
(lp795
I00
a(dp796
g3
I98
sg4
I4
sg5
I01
sg6
I176
sg7
F0.2
sg8
I7
sg9
I128
sg10
I4
sg11
I20
sg12
I53
sg13
I11
sg14
I01
sg15
F0.05
sg16
I01
sg17
I01
sg18
F0.1
sg19
I1
sg20
I43
sg21
g22
sasI388
(lp797
I00
a(dp798
g3
I99
sg4
I4
sg5
I01
sg6
I82
sg7
F0.0
sg8
I7
sg9
I16
sg10
I4
sg11
I20
sg12
I83
sg13
I97
sg14
I01
sg15
F0.05
sg16
I01
sg17
I00
sg18
F0.4
sg19
I1
sg20
I8
sg21
g22
sasI389
(lp799
I00
a(dp800
g3
I50
sg4
I4
sg5
I01
sg6
I489
sg7
F0.3
sg8
I7
sg9
I32
sg10
I4
sg11
I20
sg12
I9
sg13
I76
sg14
I01
sg15
F0.05
sg16
I01
sg17
I00
sg18
F0.4
sg19
I1
sg20
I28
sg21
g22
sasI390
(lp801
I00
a(dp802
g3
I37
sg4
I4
sg5
I01
sg6
I335
sg7
F0.1
sg8
I7
sg9
I16
sg10
I4
sg11
I20
sg12
I74
sg13
I76
sg14
I01
sg15
F0.05
sg16
I01
sg17
I01
sg18
F0.2
sg19
I1
sg20
I41
sg21
g22
sasI391
(lp803
I00
a(dp804
g3
I45
sg4
I4
sg5
I01
sg6
I332
sg7
F0.3
sg8
I7
sg9
I16
sg10
I4
sg11
I20
sg12
I21
sg13
I82
sg14
I01
sg15
F0.05
sg16
I01
sg17
I01
sg18
F0.2
sg19
I1
sg20
I43
sg21
g22
sasI392
(lp805
I00
a(dp806
g3
I45
sg4
I4
sg5
I01
sg6
I84
sg7
F0.2
sg8
I7
sg9
I32
sg10
I4
sg11
I20
sg12
I96
sg13
I15
sg14
I01
sg15
F0.05
sg16
I00
sg17
I00
sg18
F0.5
sg19
I1
sg20
I49
sg21
g22
sasI393
(lp807
I00
a(dp808
g3
I20
sg4
I4
sg5
I01
sg6
I299
sg7
F0.4
sg8
I7
sg9
I16
sg10
I4
sg11
I20
sg12
I51
sg13
I56
sg14
I01
sg15
F0.05
sg16
I00
sg17
I01
sg18
F0.2
sg19
I1
sg20
I7
sg21
g22
sasI394
(lp809
I00
a(dp810
g3
I27
sg4
I4
sg5
I01
sg6
I156
sg7
F0.3
sg8
I7
sg9
I16
sg10
I4
sg11
I20
sg12
I35
sg13
I19
sg14
I01
sg15
F0.05
sg16
I00
sg17
I00
sg18
F0.1
sg19
I1
sg20
I12
sg21
g22
sasI395
(lp811
I00
a(dp812
g3
I20
sg4
I4
sg5
I01
sg6
I471
sg7
F0.4
sg8
I7
sg9
I128
sg10
I4
sg11
I20
sg12
I38
sg13
I19
sg14
I01
sg15
F0.05
sg16
I01
sg17
I01
sg18
F0.3
sg19
I1
sg20
I49
sg21
g22
sasI396
(lp813
I00
a(dp814
g3
I78
sg4
I4
sg5
I01
sg6
I111
sg7
F0.1
sg8
I7
sg9
I32
sg10
I4
sg11
I20
sg12
I16
sg13
I24
sg14
I00
sg15
F0.05
sg16
I01
sg17
I01
sg18
F0.1
sg19
I1
sg20
I16
sg21
g22
sasI397
(lp815
I00
a(dp816
g3
I65
sg4
I4
sg5
I01
sg6
I414
sg7
F0.1
sg8
I7
sg9
I64
sg10
I4
sg11
I20
sg12
I98
sg13
I65
sg14
I01
sg15
F0.05
sg16
I01
sg17
I01
sg18
F0.3
sg19
I1
sg20
I44
sg21
g22
sasI398
(lp817
I00
a(dp818
g3
I78
sg4
I4
sg5
I01
sg6
I66
sg7
F0.4
sg8
I7
sg9
I128
sg10
I4
sg11
I20
sg12
I79
sg13
I67
sg14
I01
sg15
F0.05
sg16
I01
sg17
I00
sg18
F0.4
sg19
I1
sg20
I23
sg21
g22
sasI399
(lp819
I00
a(dp820
g3
I82
sg4
I4
sg5
I01
sg6
I390
sg7
F0.3
sg8
I7
sg9
I128
sg10
I4
sg11
I20
sg12
I71
sg13
I20
sg14
I01
sg15
F0.05
sg16
I00
sg17
I00
sg18
F0.1
sg19
I1
sg20
I28
sg21
g22
sasI400
(lp821
I00
a(dp822
g3
I37
sg4
I4
sg5
I01
sg6
I431
sg7
F0.2
sg8
I7
sg9
I32
sg10
I4
sg11
I20
sg12
I12
sg13
I10
sg14
I01
sg15
F0.05
sg16
I00
sg17
I01
sg18
F0.4
sg19
I1
sg20
I47
sg21
g22
sasI401
(lp823
I00
a(dp824
g3
I12
sg4
I4
sg5
I01
sg6
I183
sg7
F0.3
sg8
I7
sg9
I64
sg10
I4
sg11
I20
sg12
I25
sg13
I60
sg14
I00
sg15
F0.05
sg16
I01
sg17
I01
sg18
F0.2
sg19
I1
sg20
I16
sg21
g22
sasI402
(lp825
I00
a(dp826
g3
I74
sg4
I4
sg5
I01
sg6
I175
sg7
F0.0
sg8
I7
sg9
I16
sg10
I4
sg11
I20
sg12
I75
sg13
I55
sg14
I01
sg15
F0.05
sg16
I00
sg17
I01
sg18
F0.0
sg19
I1
sg20
I37
sg21
g22
sasI403
(lp827
I00
a(dp828
g3
I19
sg4
I4
sg5
I01
sg6
I354
sg7
F0.4
sg8
I7
sg9
I16
sg10
I4
sg11
I20
sg12
I10
sg13
I10
sg14
I01
sg15
F0.05
sg16
I00
sg17
I01
sg18
F0.0
sg19
I1
sg20
I16
sg21
g22
sasI404
(lp829
I00
a(dp830
g3
I74
sg4
I4
sg5
I01
sg6
I349
sg7
F0.1
sg8
I7
sg9
I16
sg10
I4
sg11
I20
sg12
I50
sg13
I29
sg14
I00
sg15
F0.05
sg16
I00
sg17
I01
sg18
F0.3
sg19
I1
sg20
I24
sg21
g22
sasI405
(lp831
I00
a(dp832
g3
I13
sg4
I4
sg5
I01
sg6
I491
sg7
F0.2
sg8
I7
sg9
I32
sg10
I4
sg11
I20
sg12
I28
sg13
I73
sg14
I01
sg15
F0.05
sg16
I01
sg17
I01
sg18
F0.2
sg19
I1
sg20
I28
sg21
g22
sasI406
(lp833
I00
a(dp834
g3
I30
sg4
I4
sg5
I01
sg6
I382
sg7
F0.5
sg8
I7
sg9
I64
sg10
I4
sg11
I20
sg12
I83
sg13
I57
sg14
I01
sg15
F0.05
sg16
I01
sg17
I01
sg18
F0.5
sg19
I1
sg20
I17
sg21
g22
sasI407
(lp835
I00
a(dp836
g3
I28
sg4
I4
sg5
I01
sg6
I353
sg7
F0.1
sg8
I7
sg9
I128
sg10
I4
sg11
I20
sg12
I75
sg13
I80
sg14
I01
sg15
F0.05
sg16
I00
sg17
I01
sg18
F0.0
sg19
I1
sg20
I29
sg21
g22
sasI408
(lp837
I00
a(dp838
g3
I39
sg4
I4
sg5
I01
sg6
I468
sg7
F0.1
sg8
I7
sg9
I128
sg10
I4
sg11
I20
sg12
I39
sg13
I12
sg14
I01
sg15
F0.05
sg16
I01
sg17
I00
sg18
F0.5
sg19
I1
sg20
I45
sg21
g22
sasI409
(lp839
I00
a(dp840
g3
I31
sg4
I4
sg5
I01
sg6
I354
sg7
F0.2
sg8
I7
sg9
I128
sg10
I4
sg11
I20
sg12
I71
sg13
I5
sg14
I01
sg15
F0.05
sg16
I01
sg17
I00
sg18
F0.0
sg19
I1
sg20
I44
sg21
g22
sasI410
(lp841
I00
a(dp842
g3
I82
sg4
I4
sg5
I01
sg6
I303
sg7
F0.3
sg8
I7
sg9
I64
sg10
I4
sg11
I20
sg12
I69
sg13
I93
sg14
I01
sg15
F0.05
sg16
I01
sg17
I01
sg18
F0.4
sg19
I1
sg20
I8
sg21
g22
sasI411
(lp843
I00
a(dp844
g3
I22
sg4
I4
sg5
I01
sg6
I388
sg7
F0.3
sg8
I7
sg9
I32
sg10
I4
sg11
I20
sg12
I53
sg13
I9
sg14
I01
sg15
F0.05
sg16
I01
sg17
I01
sg18
F0.4
sg19
I1
sg20
I19
sg21
g22
sasI412
(lp845
I00
a(dp846
g3
I88
sg4
I4
sg5
I01
sg6
I384
sg7
F0.0
sg8
I7
sg9
I64
sg10
I4
sg11
I20
sg12
I50
sg13
I68
sg14
I00
sg15
F0.05
sg16
I01
sg17
I00
sg18
F0.3
sg19
I1
sg20
I42
sg21
g22
sasI413
(lp847
I00
a(dp848
g3
I97
sg4
I4
sg5
I01
sg6
I395
sg7
F0.1
sg8
I7
sg9
I64
sg10
I4
sg11
I20
sg12
I11
sg13
I61
sg14
I00
sg15
F0.05
sg16
I00
sg17
I01
sg18
F0.4
sg19
I1
sg20
I18
sg21
g22
sasI414
(lp849
I00
a(dp850
g3
I39
sg4
I4
sg5
I01
sg6
I161
sg7
F0.1
sg8
I7
sg9
I16
sg10
I4
sg11
I20
sg12
I24
sg13
I82
sg14
I01
sg15
F0.05
sg16
I00
sg17
I01
sg18
F0.5
sg19
I1
sg20
I33
sg21
g22
sasI415
(lp851
I00
a(dp852
g3
I81
sg4
I4
sg5
I01
sg6
I353
sg7
F0.5
sg8
I7
sg9
I16
sg10
I4
sg11
I20
sg12
I75
sg13
I96
sg14
I01
sg15
F0.05
sg16
I01
sg17
I01
sg18
F0.5
sg19
I1
sg20
I47
sg21
g22
sasI416
(lp853
I00
a(dp854
g3
I82
sg4
I4
sg5
I01
sg6
I314
sg7
F0.0
sg8
I7
sg9
I64
sg10
I4
sg11
I20
sg12
I45
sg13
I5
sg14
I00
sg15
F0.05
sg16
I01
sg17
I00
sg18
F0.5
sg19
I1
sg20
I40
sg21
g22
sasI417
(lp855
I00
a(dp856
g3
I26
sg4
I4
sg5
I01
sg6
I366
sg7
F0.3
sg8
I7
sg9
I128
sg10
I4
sg11
I20
sg12
I31
sg13
I18
sg14
I01
sg15
F0.05
sg16
I01
sg17
I01
sg18
F0.1
sg19
I1
sg20
I6
sg21
g22
sasI418
(lp857
I00
a(dp858
g3
I12
sg4
I4
sg5
I01
sg6
I334
sg7
F0.1
sg8
I7
sg9
I64
sg10
I4
sg11
I20
sg12
I32
sg13
I92
sg14
I01
sg15
F0.05
sg16
I01
sg17
I01
sg18
F0.4
sg19
I1
sg20
I24
sg21
g22
sasI419
(lp859
I00
a(dp860
g3
I13
sg4
I4
sg5
I01
sg6
I410
sg7
F0.3
sg8
I7
sg9
I64
sg10
I4
sg11
I20
sg12
I90
sg13
I55
sg14
I00
sg15
F0.05
sg16
I01
sg17
I01
sg18
F0.3
sg19
I1
sg20
I46
sg21
g22
sasI420
(lp861
I00
a(dp862
g3
I39
sg4
I4
sg5
I01
sg6
I494
sg7
F0.5
sg8
I7
sg9
I64
sg10
I4
sg11
I20
sg12
I26
sg13
I7
sg14
I01
sg15
F0.05
sg16
I00
sg17
I01
sg18
F0.1
sg19
I1
sg20
I18
sg21
g22
sasI421
(lp863
I00
a(dp864
g3
I23
sg4
I4
sg5
I01
sg6
I252
sg7
F0.2
sg8
I7
sg9
I32
sg10
I4
sg11
I20
sg12
I38
sg13
I64
sg14
I01
sg15
F0.05
sg16
I01
sg17
I00
sg18
F0.1
sg19
I1
sg20
I33
sg21
g22
sasI422
(lp865
I00
a(dp866
g3
I85
sg4
I4
sg5
I01
sg6
I354
sg7
F0.1
sg8
I7
sg9
I64
sg10
I4
sg11
I20
sg12
I93
sg13
I18
sg14
I01
sg15
F0.05
sg16
I00
sg17
I01
sg18
F0.1
sg19
I1
sg20
I47
sg21
g22
sasI423
(lp867
I00
a(dp868
g3
I16
sg4
I4
sg5
I01
sg6
I405
sg7
F0.0
sg8
I7
sg9
I32
sg10
I4
sg11
I20
sg12
I85
sg13
I84
sg14
I00
sg15
F0.05
sg16
I01
sg17
I01
sg18
F0.2
sg19
I1
sg20
I32
sg21
g22
sasI424
(lp869
I00
a(dp870
g3
I49
sg4
I4
sg5
I01
sg6
I353
sg7
F0.0
sg8
I7
sg9
I32
sg10
I4
sg11
I20
sg12
I18
sg13
I91
sg14
I01
sg15
F0.05
sg16
I00
sg17
I00
sg18
F0.1
sg19
I1
sg20
I13
sg21
g22
sasI425
(lp871
I00
a(dp872
g3
I96
sg4
I4
sg5
I01
sg6
I200
sg7
F0.4
sg8
I7
sg9
I128
sg10
I4
sg11
I20
sg12
I94
sg13
I25
sg14
I01
sg15
F0.05
sg16
I01
sg17
I01
sg18
F0.2
sg19
I1
sg20
I43
sg21
g22
sasI426
(lp873
I00
a(dp874
g3
I77
sg4
I4
sg5
I01
sg6
I449
sg7
F0.4
sg8
I7
sg9
I128
sg10
I4
sg11
I20
sg12
I6
sg13
I80
sg14
I01
sg15
F0.05
sg16
I00
sg17
I00
sg18
F0.4
sg19
I1
sg20
I21
sg21
g22
sasI427
(lp875
I00
a(dp876
g3
I80
sg4
I4
sg5
I01
sg6
I236
sg7
F0.3
sg8
I7
sg9
I128
sg10
I4
sg11
I20
sg12
I59
sg13
I6
sg14
I01
sg15
F0.05
sg16
I01
sg17
I00
sg18
F0.1
sg19
I1
sg20
I8
sg21
g22
sasI428
(lp877
I00
a(dp878
g3
I43
sg4
I4
sg5
I01
sg6
I367
sg7
F0.2
sg8
I7
sg9
I64
sg10
I4
sg11
I20
sg12
I87
sg13
I95
sg14
I01
sg15
F0.05
sg16
I01
sg17
I01
sg18
F0.5
sg19
I1
sg20
I35
sg21
g22
sasI429
(lp879
I00
a(dp880
g3
I30
sg4
I4
sg5
I01
sg6
I124
sg7
F0.4
sg8
I7
sg9
I16
sg10
I4
sg11
I20
sg12
I98
sg13
I19
sg14
I01
sg15
F0.05
sg16
I01
sg17
I01
sg18
F0.1
sg19
I1
sg20
I8
sg21
g22
sasI430
(lp881
I00
a(dp882
g3
I30
sg4
I4
sg5
I01
sg6
I354
sg7
F0.4
sg8
I7
sg9
I64
sg10
I4
sg11
I20
sg12
I75
sg13
I90
sg14
I01
sg15
F0.05
sg16
I01
sg17
I00
sg18
F0.1
sg19
I1
sg20
I26
sg21
g22
sasI431
(lp883
I00
a(dp884
g3
I12
sg4
I4
sg5
I01
sg6
I369
sg7
F0.1
sg8
I7
sg9
I32
sg10
I4
sg11
I20
sg12
I27
sg13
I32
sg14
I01
sg15
F0.05
sg16
I00
sg17
I00
sg18
F0.4
sg19
I1
sg20
I33
sg21
g22
sasI432
(lp885
I00
a(dp886
g3
I44
sg4
I4
sg5
I01
sg6
I336
sg7
F0.5
sg8
I7
sg9
I64
sg10
I4
sg11
I20
sg12
I62
sg13
I75
sg14
I01
sg15
F0.05
sg16
I01
sg17
I00
sg18
F0.0
sg19
I1
sg20
I34
sg21
g22
sasI433
(lp887
I00
a(dp888
g3
I80
sg4
I4
sg5
I01
sg6
I258
sg7
F0.0
sg8
I7
sg9
I16
sg10
I4
sg11
I20
sg12
I58
sg13
I15
sg14
I01
sg15
F0.05
sg16
I01
sg17
I00
sg18
F0.2
sg19
I1
sg20
I24
sg21
g22
sasI434
(lp889
I00
a(dp890
g3
I17
sg4
I4
sg5
I01
sg6
I56
sg7
F0.1
sg8
I7
sg9
I16
sg10
I4
sg11
I20
sg12
I45
sg13
I60
sg14
I00
sg15
F0.05
sg16
I00
sg17
I01
sg18
F0.3
sg19
I1
sg20
I16
sg21
g22
sasI435
(lp891
I00
a(dp892
g3
I43
sg4
I4
sg5
I01
sg6
I477
sg7
F0.1
sg8
I7
sg9
I16
sg10
I4
sg11
I20
sg12
I82
sg13
I48
sg14
I01
sg15
F0.05
sg16
I01
sg17
I01
sg18
F0.3
sg19
I1
sg20
I10
sg21
g22
sasI436
(lp893
I00
a(dp894
g3
I28
sg4
I4
sg5
I01
sg6
I307
sg7
F0.3
sg8
I7
sg9
I64
sg10
I4
sg11
I20
sg12
I17
sg13
I85
sg14
I00
sg15
F0.05
sg16
I00
sg17
I01
sg18
F0.1
sg19
I1
sg20
I8
sg21
g22
sasI437
(lp895
I00
a(dp896
g3
I39
sg4
I4
sg5
I01
sg6
I84
sg7
F0.1
sg8
I7
sg9
I64
sg10
I4
sg11
I20
sg12
I39
sg13
I22
sg14
I01
sg15
F0.05
sg16
I01
sg17
I00
sg18
F0.3
sg19
I1
sg20
I24
sg21
g22
sasI438
(lp897
I00
a(dp898
g3
I71
sg4
I4
sg5
I01
sg6
I115
sg7
F0.5
sg8
I7
sg9
I16
sg10
I4
sg11
I20
sg12
I17
sg13
I27
sg14
I00
sg15
F0.05
sg16
I01
sg17
I00
sg18
F0.2
sg19
I1
sg20
I13
sg21
g22
sasI439
(lp899
I00
a(dp900
g3
I61
sg4
I4
sg5
I01
sg6
I373
sg7
F0.1
sg8
I7
sg9
I32
sg10
I4
sg11
I20
sg12
I53
sg13
I21
sg14
I01
sg15
F0.05
sg16
I01
sg17
I01
sg18
F0.0
sg19
I1
sg20
I27
sg21
g22
sasI440
(lp901
I00
a(dp902
g3
I11
sg4
I4
sg5
I01
sg6
I395
sg7
F0.3
sg8
I7
sg9
I32
sg10
I4
sg11
I20
sg12
I96
sg13
I82
sg14
I01
sg15
F0.05
sg16
I01
sg17
I01
sg18
F0.2
sg19
I1
sg20
I42
sg21
g22
sasI441
(lp903
I00
a(dp904
g3
I94
sg4
I4
sg5
I01
sg6
I105
sg7
F0.1
sg8
I7
sg9
I32
sg10
I4
sg11
I20
sg12
I63
sg13
I88
sg14
I01
sg15
F0.05
sg16
I01
sg17
I01
sg18
F0.1
sg19
I1
sg20
I33
sg21
g22
sasI442
(lp905
I00
a(dp906
g3
I32
sg4
I4
sg5
I01
sg6
I456
sg7
F0.3
sg8
I7
sg9
I64
sg10
I4
sg11
I20
sg12
I16
sg13
I31
sg14
I00
sg15
F0.05
sg16
I00
sg17
I01
sg18
F0.1
sg19
I1
sg20
I11
sg21
g22
sasI443
(lp907
I00
a(dp908
g3
I81
sg4
I4
sg5
I01
sg6
I323
sg7
F0.1
sg8
I7
sg9
I128
sg10
I4
sg11
I20
sg12
I74
sg13
I92
sg14
I01
sg15
F0.05
sg16
I01
sg17
I01
sg18
F0.1
sg19
I1
sg20
I6
sg21
g22
sasI444
(lp909
I00
a(dp910
g3
I88
sg4
I4
sg5
I01
sg6
I465
sg7
F0.3
sg8
I7
sg9
I32
sg10
I4
sg11
I20
sg12
I25
sg13
I87
sg14
I01
sg15
F0.05
sg16
I01
sg17
I00
sg18
F0.3
sg19
I1
sg20
I27
sg21
g22
sasI445
(lp911
I00
a(dp912
g3
I18
sg4
I4
sg5
I01
sg6
I244
sg7
F0.0
sg8
I7
sg9
I64
sg10
I4
sg11
I20
sg12
I38
sg13
I43
sg14
I01
sg15
F0.05
sg16
I01
sg17
I00
sg18
F0.2
sg19
I1
sg20
I18
sg21
g22
sasI446
(lp913
I00
a(dp914
g3
I73
sg4
I4
sg5
I01
sg6
I89
sg7
F0.3
sg8
I7
sg9
I16
sg10
I4
sg11
I20
sg12
I6
sg13
I33
sg14
I01
sg15
F0.05
sg16
I00
sg17
I00
sg18
F0.0
sg19
I1
sg20
I31
sg21
g22
sasI447
(lp915
I00
a(dp916
g3
I12
sg4
I4
sg5
I01
sg6
I353
sg7
F0.2
sg8
I7
sg9
I64
sg10
I4
sg11
I20
sg12
I90
sg13
I26
sg14
I01
sg15
F0.05
sg16
I00
sg17
I00
sg18
F0.0
sg19
I1
sg20
I24
sg21
g22
sasI448
(lp917
I00
a(dp918
g3
I35
sg4
I4
sg5
I01
sg6
I308
sg7
F0.1
sg8
I7
sg9
I64
sg10
I4
sg11
I20
sg12
I23
sg13
I89
sg14
I01
sg15
F0.05
sg16
I00
sg17
I00
sg18
F0.4
sg19
I1
sg20
I32
sg21
g22
sasI449
(lp919
I00
a(dp920
g3
I71
sg4
I4
sg5
I01
sg6
I271
sg7
F0.3
sg8
I7
sg9
I32
sg10
I4
sg11
I20
sg12
I64
sg13
I15
sg14
I01
sg15
F0.05
sg16
I00
sg17
I01
sg18
F0.4
sg19
I1
sg20
I13
sg21
g22
sasI450
(lp921
I00
a(dp922
g3
I51
sg4
I4
sg5
I01
sg6
I245
sg7
F0.1
sg8
I7
sg9
I128
sg10
I4
sg11
I20
sg12
I6
sg13
I57
sg14
I01
sg15
F0.05
sg16
I00
sg17
I00
sg18
F0.0
sg19
I1
sg20
I27
sg21
g22
sasI451
(lp923
I00
a(dp924
g3
I97
sg4
I4
sg5
I01
sg6
I337
sg7
F0.4
sg8
I7
sg9
I128
sg10
I4
sg11
I20
sg12
I31
sg13
I99
sg14
I01
sg15
F0.05
sg16
I01
sg17
I01
sg18
F0.1
sg19
I1
sg20
I33
sg21
g22
sasI452
(lp925
I00
a(dp926
g3
I86
sg4
I4
sg5
I01
sg6
I172
sg7
F0.1
sg8
I7
sg9
I64
sg10
I4
sg11
I20
sg12
I69
sg13
I54
sg14
I00
sg15
F0.05
sg16
I01
sg17
I01
sg18
F0.4
sg19
I1
sg20
I39
sg21
g22
sasI453
(lp927
I00
a(dp928
g3
I90
sg4
I4
sg5
I01
sg6
I345
sg7
F0.2
sg8
I7
sg9
I128
sg10
I4
sg11
I20
sg12
I6
sg13
I82
sg14
I00
sg15
F0.05
sg16
I00
sg17
I00
sg18
F0.3
sg19
I1
sg20
I48
sg21
g22
sasI454
(lp929
I00
a(dp930
g3
I32
sg4
I4
sg5
I01
sg6
I226
sg7
F0.1
sg8
I7
sg9
I32
sg10
I4
sg11
I20
sg12
I74
sg13
I17
sg14
I01
sg15
F0.05
sg16
I01
sg17
I00
sg18
F0.1
sg19
I1
sg20
I29
sg21
g22
sasI455
(lp931
I00
a(dp932
g3
I52
sg4
I4
sg5
I01
sg6
I52
sg7
F0.1
sg8
I7
sg9
I128
sg10
I4
sg11
I20
sg12
I59
sg13
I74
sg14
I01
sg15
F0.05
sg16
I01
sg17
I00
sg18
F0.5
sg19
I1
sg20
I11
sg21
g22
sasI456
(lp933
I00
a(dp934
g3
I79
sg4
I4
sg5
I01
sg6
I113
sg7
F0.3
sg8
I7
sg9
I32
sg10
I4
sg11
I20
sg12
I63
sg13
I20
sg14
I01
sg15
F0.05
sg16
I01
sg17
I01
sg18
F0.2
sg19
I1
sg20
I15
sg21
g22
sasI457
(lp935
I00
a(dp936
g3
I95
sg4
I4
sg5
I01
sg6
I353
sg7
F0.3
sg8
I7
sg9
I64
sg10
I4
sg11
I20
sg12
I85
sg13
I64
sg14
I01
sg15
F0.05
sg16
I01
sg17
I00
sg18
F0.4
sg19
I1
sg20
I40
sg21
g22
sasI458
(lp937
I00
a(dp938
g3
I41
sg4
I4
sg5
I01
sg6
I121
sg7
F0.1
sg8
I7
sg9
I128
sg10
I4
sg11
I20
sg12
I32
sg13
I89
sg14
I00
sg15
F0.05
sg16
I01
sg17
I01
sg18
F0.3
sg19
I1
sg20
I37
sg21
g22
sasI459
(lp939
I00
a(dp940
g3
I12
sg4
I4
sg5
I01
sg6
I241
sg7
F0.3
sg8
I7
sg9
I32
sg10
I4
sg11
I20
sg12
I83
sg13
I64
sg14
I01
sg15
F0.05
sg16
I01
sg17
I00
sg18
F0.3
sg19
I1
sg20
I10
sg21
g22
sasI460
(lp941
I00
a(dp942
g3
I66
sg4
I4
sg5
I01
sg6
I284
sg7
F0.2
sg8
I7
sg9
I16
sg10
I4
sg11
I20
sg12
I31
sg13
I55
sg14
I01
sg15
F0.05
sg16
I01
sg17
I01
sg18
F0.2
sg19
I1
sg20
I18
sg21
g22
sasI461
(lp943
I00
a(dp944
g3
I18
sg4
I4
sg5
I01
sg6
I79
sg7
F0.3
sg8
I7
sg9
I16
sg10
I4
sg11
I20
sg12
I53
sg13
I95
sg14
I00
sg15
F0.05
sg16
I01
sg17
I00
sg18
F0.4
sg19
I1
sg20
I37
sg21
g22
sasI462
(lp945
I00
a(dp946
g3
I53
sg4
I4
sg5
I01
sg6
I104
sg7
F0.2
sg8
I7
sg9
I64
sg10
I4
sg11
I20
sg12
I44
sg13
I98
sg14
I01
sg15
F0.05
sg16
I01
sg17
I01
sg18
F0.1
sg19
I1
sg20
I22
sg21
g22
sasI463
(lp947
I00
a(dp948
g3
I52
sg4
I4
sg5
I01
sg6
I211
sg7
F0.2
sg8
I7
sg9
I64
sg10
I4
sg11
I20
sg12
I35
sg13
I38
sg14
I00
sg15
F0.05
sg16
I00
sg17
I00
sg18
F0.1
sg19
I1
sg20
I14
sg21
g22
sasI464
(lp949
I00
a(dp950
g3
I76
sg4
I4
sg5
I01
sg6
I333
sg7
F0.3
sg8
I7
sg9
I128
sg10
I4
sg11
I20
sg12
I67
sg13
I39
sg14
I01
sg15
F0.05
sg16
I01
sg17
I01
sg18
F0.4
sg19
I1
sg20
I22
sg21
g22
sasI465
(lp951
I00
a(dp952
g3
I56
sg4
I4
sg5
I01
sg6
I372
sg7
F0.1
sg8
I7
sg9
I128
sg10
I4
sg11
I20
sg12
I73
sg13
I70
sg14
I01
sg15
F0.05
sg16
I00
sg17
I01
sg18
F0.4
sg19
I1
sg20
I36
sg21
g22
sasI466
(lp953
I00
a(dp954
g3
I11
sg4
I4
sg5
I01
sg6
I476
sg7
F0.5
sg8
I7
sg9
I16
sg10
I4
sg11
I20
sg12
I24
sg13
I83
sg14
I01
sg15
F0.05
sg16
I01
sg17
I01
sg18
F0.2
sg19
I1
sg20
I17
sg21
g22
sasI467
(lp955
I00
a(dp956
g3
I12
sg4
I4
sg5
I01
sg6
I361
sg7
F0.4
sg8
I7
sg9
I32
sg10
I4
sg11
I20
sg12
I59
sg13
I31
sg14
I00
sg15
F0.05
sg16
I00
sg17
I01
sg18
F0.2
sg19
I1
sg20
I49
sg21
g22
sasI468
(lp957
I00
a(dp958
g3
I52
sg4
I4
sg5
I01
sg6
I182
sg7
F0.1
sg8
I7
sg9
I32
sg10
I4
sg11
I20
sg12
I46
sg13
I93
sg14
I01
sg15
F0.05
sg16
I01
sg17
I01
sg18
F0.1
sg19
I1
sg20
I13
sg21
g22
sasI469
(lp959
I00
a(dp960
g3
I23
sg4
I4
sg5
I01
sg6
I316
sg7
F0.5
sg8
I7
sg9
I32
sg10
I4
sg11
I20
sg12
I49
sg13
I24
sg14
I01
sg15
F0.05
sg16
I00
sg17
I00
sg18
F0.1
sg19
I1
sg20
I16
sg21
g22
sasI470
(lp961
I00
a(dp962
g3
I96
sg4
I4
sg5
I01
sg6
I316
sg7
F0.3
sg8
I7
sg9
I128
sg10
I4
sg11
I20
sg12
I66
sg13
I14
sg14
I00
sg15
F0.05
sg16
I01
sg17
I00
sg18
F0.4
sg19
I1
sg20
I11
sg21
g22
sasI471
(lp963
I00
a(dp964
g3
I78
sg4
I4
sg5
I01
sg6
I299
sg7
F0.4
sg8
I7
sg9
I64
sg10
I4
sg11
I20
sg12
I14
sg13
I29
sg14
I01
sg15
F0.05
sg16
I00
sg17
I00
sg18
F0.3
sg19
I1
sg20
I10
sg21
g22
sasI472
(lp965
I00
a(dp966
g3
I17
sg4
I4
sg5
I01
sg6
I122
sg7
F0.3
sg8
I7
sg9
I64
sg10
I4
sg11
I20
sg12
I30
sg13
I48
sg14
I01
sg15
F0.05
sg16
I00
sg17
I01
sg18
F0.1
sg19
I1
sg20
I7
sg21
g22
sasI473
(lp967
I00
a(dp968
g3
I36
sg4
I4
sg5
I01
sg6
I334
sg7
F0.3
sg8
I7
sg9
I32
sg10
I4
sg11
I20
sg12
I77
sg13
I11
sg14
I01
sg15
F0.05
sg16
I00
sg17
I01
sg18
F0.3
sg19
I1
sg20
I23
sg21
g22
sasI474
(lp969
I00
a(dp970
g3
I17
sg4
I4
sg5
I01
sg6
I115
sg7
F0.5
sg8
I7
sg9
I16
sg10
I4
sg11
I20
sg12
I7
sg13
I25
sg14
I01
sg15
F0.05
sg16
I00
sg17
I01
sg18
F0.5
sg19
I1
sg20
I7
sg21
g22
sasI475
(lp971
I00
a(dp972
g3
I39
sg4
I4
sg5
I01
sg6
I219
sg7
F0.3
sg8
I7
sg9
I128
sg10
I4
sg11
I20
sg12
I66
sg13
I88
sg14
I01
sg15
F0.05
sg16
I00
sg17
I00
sg18
F0.2
sg19
I1
sg20
I5
sg21
g22
sasI476
(lp973
I00
a(dp974
g3
I97
sg4
I4
sg5
I01
sg6
I187
sg7
F0.1
sg8
I7
sg9
I64
sg10
I4
sg11
I20
sg12
I84
sg13
I9
sg14
I00
sg15
F0.05
sg16
I01
sg17
I01
sg18
F0.2
sg19
I1
sg20
I19
sg21
g22
sasI477
(lp975
I00
a(dp976
g3
I29
sg4
I4
sg5
I01
sg6
I236
sg7
F0.5
sg8
I7
sg9
I64
sg10
I4
sg11
I20
sg12
I6
sg13
I63
sg14
I01
sg15
F0.05
sg16
I01
sg17
I01
sg18
F0.3
sg19
I1
sg20
I5
sg21
g22
sasI478
(lp977
I00
a(dp978
g3
I14
sg4
I4
sg5
I01
sg6
I361
sg7
F0.4
sg8
I7
sg9
I64
sg10
I4
sg11
I20
sg12
I84
sg13
I9
sg14
I01
sg15
F0.05
sg16
I01
sg17
I01
sg18
F0.1
sg19
I1
sg20
I47
sg21
g22
sasI479
(lp979
I00
a(dp980
g3
I90
sg4
I4
sg5
I01
sg6
I139
sg7
F0.1
sg8
I7
sg9
I32
sg10
I4
sg11
I20
sg12
I31
sg13
I22
sg14
I00
sg15
F0.05
sg16
I00
sg17
I00
sg18
F0.2
sg19
I1
sg20
I12
sg21
g22
sasI480
(lp981
I00
a(dp982
g3
I11
sg4
I4
sg5
I01
sg6
I63
sg7
F0.2
sg8
I7
sg9
I128
sg10
I4
sg11
I20
sg12
I14
sg13
I21
sg14
I01
sg15
F0.05
sg16
I01
sg17
I00
sg18
F0.0
sg19
I1
sg20
I38
sg21
g22
sasI481
(lp983
I00
a(dp984
g3
I48
sg4
I4
sg5
I01
sg6
I332
sg7
F0.2
sg8
I7
sg9
I16
sg10
I4
sg11
I20
sg12
I34
sg13
I70
sg14
I00
sg15
F0.05
sg16
I00
sg17
I01
sg18
F0.2
sg19
I1
sg20
I25
sg21
g22
sasI482
(lp985
I00
a(dp986
g3
I29
sg4
I4
sg5
I01
sg6
I418
sg7
F0.1
sg8
I7
sg9
I64
sg10
I4
sg11
I20
sg12
I93
sg13
I30
sg14
I00
sg15
F0.05
sg16
I01
sg17
I01
sg18
F0.1
sg19
I1
sg20
I20
sg21
g22
sasI483
(lp987
I00
a(dp988
g3
I36
sg4
I4
sg5
I01
sg6
I245
sg7
F0.3
sg8
I7
sg9
I16
sg10
I4
sg11
I20
sg12
I55
sg13
I13
sg14
I01
sg15
F0.05
sg16
I01
sg17
I01
sg18
F0.0
sg19
I1
sg20
I17
sg21
g22
sasI484
(lp989
I00
a(dp990
g3
I66
sg4
I4
sg5
I01
sg6
I330
sg7
F0.4
sg8
I7
sg9
I128
sg10
I4
sg11
I20
sg12
I83
sg13
I11
sg14
I01
sg15
F0.05
sg16
I01
sg17
I01
sg18
F0.5
sg19
I1
sg20
I48
sg21
g22
sasI485
(lp991
I00
a(dp992
g3
I78
sg4
I4
sg5
I01
sg6
I474
sg7
F0.2
sg8
I7
sg9
I128
sg10
I4
sg11
I20
sg12
I34
sg13
I98
sg14
I00
sg15
F0.05
sg16
I01
sg17
I01
sg18
F0.5
sg19
I1
sg20
I17
sg21
g22
sasI486
(lp993
I00
a(dp994
g3
I54
sg4
I4
sg5
I01
sg6
I166
sg7
F0.5
sg8
I7
sg9
I32
sg10
I4
sg11
I20
sg12
I33
sg13
I75
sg14
I00
sg15
F0.05
sg16
I01
sg17
I00
sg18
F0.5
sg19
I1
sg20
I32
sg21
g22
sasI487
(lp995
I00
a(dp996
g3
I72
sg4
I4
sg5
I01
sg6
I143
sg7
F0.4
sg8
I7
sg9
I128
sg10
I4
sg11
I20
sg12
I84
sg13
I67
sg14
I00
sg15
F0.05
sg16
I00
sg17
I00
sg18
F0.4
sg19
I1
sg20
I41
sg21
g22
sasI488
(lp997
I00
a(dp998
g3
I68
sg4
I4
sg5
I01
sg6
I456
sg7
F0.5
sg8
I7
sg9
I32
sg10
I4
sg11
I20
sg12
I48
sg13
I22
sg14
I00
sg15
F0.05
sg16
I00
sg17
I01
sg18
F0.3
sg19
I1
sg20
I21
sg21
g22
sasI489
(lp999
I00
a(dp1000
g3
I80
sg4
I4
sg5
I01
sg6
I137
sg7
F0.2
sg8
I7
sg9
I128
sg10
I4
sg11
I20
sg12
I28
sg13
I57
sg14
I01
sg15
F0.05
sg16
I01
sg17
I01
sg18
F0.4
sg19
I1
sg20
I30
sg21
g22
sasI490
(lp1001
I00
a(dp1002
g3
I88
sg4
I4
sg5
I01
sg6
I90
sg7
F0.3
sg8
I7
sg9
I32
sg10
I4
sg11
I20
sg12
I52
sg13
I8
sg14
I01
sg15
F0.05
sg16
I01
sg17
I01
sg18
F0.1
sg19
I1
sg20
I32
sg21
g22
sasI491
(lp1003
I00
a(dp1004
g3
I36
sg4
I4
sg5
I01
sg6
I337
sg7
F0.2
sg8
I7
sg9
I64
sg10
I4
sg11
I20
sg12
I92
sg13
I38
sg14
I01
sg15
F0.05
sg16
I01
sg17
I01
sg18
F0.3
sg19
I1
sg20
I37
sg21
g22
sasI492
(lp1005
I00
a(dp1006
g3
I34
sg4
I4
sg5
I01
sg6
I132
sg7
F0.3
sg8
I7
sg9
I32
sg10
I4
sg11
I20
sg12
I37
sg13
I21
sg14
I01
sg15
F0.05
sg16
I01
sg17
I00
sg18
F0.4
sg19
I1
sg20
I32
sg21
g22
sasI493
(lp1007
I00
a(dp1008
g3
I67
sg4
I4
sg5
I01
sg6
I435
sg7
F0.2
sg8
I7
sg9
I128
sg10
I4
sg11
I20
sg12
I71
sg13
I93
sg14
I01
sg15
F0.05
sg16
I00
sg17
I01
sg18
F0.2
sg19
I1
sg20
I18
sg21
g22
sasI494
(lp1009
I00
a(dp1010
g3
I28
sg4
I4
sg5
I01
sg6
I392
sg7
F0.2
sg8
I7
sg9
I16
sg10
I4
sg11
I20
sg12
I31
sg13
I59
sg14
I01
sg15
F0.05
sg16
I01
sg17
I01
sg18
F0.2
sg19
I1
sg20
I47
sg21
g22
sasI495
(lp1011
I00
a(dp1012
g3
I44
sg4
I4
sg5
I01
sg6
I443
sg7
F0.1
sg8
I7
sg9
I16
sg10
I4
sg11
I20
sg12
I31
sg13
I55
sg14
I01
sg15
F0.05
sg16
I01
sg17
I00
sg18
F0.1
sg19
I1
sg20
I11
sg21
g22
sasI496
(lp1013
I00
a(dp1014
g3
I30
sg4
I4
sg5
I01
sg6
I418
sg7
F0.0
sg8
I7
sg9
I128
sg10
I4
sg11
I20
sg12
I45
sg13
I49
sg14
I01
sg15
F0.05
sg16
I01
sg17
I01
sg18
F0.1
sg19
I1
sg20
I33
sg21
g22
sasI497
(lp1015
I00
a(dp1016
g3
I34
sg4
I4
sg5
I01
sg6
I325
sg7
F0.0
sg8
I7
sg9
I128
sg10
I4
sg11
I20
sg12
I50
sg13
I99
sg14
I01
sg15
F0.05
sg16
I00
sg17
I00
sg18
F0.1
sg19
I1
sg20
I35
sg21
g22
sasI498
(lp1017
I00
a(dp1018
g3
I63
sg4
I4
sg5
I01
sg6
I380
sg7
F0.1
sg8
I7
sg9
I32
sg10
I4
sg11
I20
sg12
I92
sg13
I6
sg14
I01
sg15
F0.05
sg16
I00
sg17
I01
sg18
F0.0
sg19
I1
sg20
I15
sg21
g22
sasI499
(lp1019
I00
a(dp1020
g3
I22
sg4
I4
sg5
I01
sg6
I360
sg7
F0.4
sg8
I7
sg9
I128
sg10
I4
sg11
I20
sg12
I33
sg13
I46
sg14
I00
sg15
F0.05
sg16
I00
sg17
I01
sg18
F0.4
sg19
I1
sg20
I18
sg21
g22
sas.